MODULE Linux x86_64 07D99619A47792DEBFF908E4B04AE4940 test
INFO CODE_ID 1996D90777A4DE92BFF908E4B04AE494C4CDA66A
FUNC 19b0 20 0 google_breakpad::LineReader::PopLine(unsigned int)
FUNC 19d0 20 0 google_breakpad::TypedMDRVA<MDRawDirectory>::CopyIndex(unsigned int, MDRawDirectory*)
FUNC 19f0 1d 0 google_breakpad::TypedMDRVA<MDRawDirectory>::CopyIndex(unsigned int, MDRawDirectory*)
FUNC 1a0e 20 0 google_breakpad::TypedMDRVA<unsigned int>::AllocateObjectAndArray(unsigned long, unsigned long)
FUNC 1a2e 20 0 google_breakpad::TypedMDRVA<unsigned int>::CopyIndexAfterObject(unsigned int, void const*, unsigned long)
FUNC 1a4e 1cb 0 MinidumpWriter::WriteFile
FUNC 1c1a 3d 0 MinidumpWriter::WriteProcFile
FUNC 1c58 20 0 google_breakpad::TypedMDRVA<MDString>::CopyIndexAfterObject(unsigned int, void const*, unsigned long)
FUNC 1c78 20 0 google_breakpad::TypedMDRVA<MDString>::AllocateObjectAndArray(unsigned long, unsigned long)
FUNC 1d8d 39 0 dumpCallback
FUNC 1dc6 18 0 crash()
FUNC 1dde 119 0 main
FUNC 1ef7 3d 0 __static_initialization_and_destruction_0
FUNC 1f34 15 0 _GLOBAL__sub_I__Z5crashv
FUNC 1f4a 39 0 google_breakpad::MicrodumpExtraInfo::MicrodumpExtraInfo()
FUNC 1f84 df 0 google_breakpad::MinidumpDescriptor::MinidumpDescriptor(std::string const&)
FUNC 2064 12 0 google_breakpad::MinidumpDescriptor::path() const
FUNC 2076 2e 0 google_breakpad::MinidumpDescriptor::~MinidumpDescriptor()
FUNC 20b0 f8 0 google_breakpad::ExceptionHandler::InstallHandlersLocked()
FUNC 21b0 7c 0 google_breakpad::ExceptionHandler::RestoreHandlersLocked()
FUNC 2230 361 0 google_breakpad::ExceptionHandler::~ExceptionHandler()
FUNC 25a0 ce 0 google_breakpad::ExceptionHandler::SendContinueSignalToChild()
FUNC 2670 48f 0 google_breakpad::ExceptionHandler::GenerateDump(google_breakpad::ExceptionHandler::CrashContext*)
FUNC 2b00 1cc 0 google_breakpad::ExceptionHandler::HandleSignal(int, siginfo_t*, void*)
FUNC 2cd0 19c 0 google_breakpad::ExceptionHandler::SignalHandler(int, siginfo_t*, void*)
FUNC 2e70 56 0 google_breakpad::ExceptionHandler::SimulateSignalDelivery(int)
FUNC 2ed0 c6 0 google_breakpad::ExceptionHandler::WaitForContinueSignal()
FUNC 2fa0 d0 0 google_breakpad::ExceptionHandler::DoDump(int, void const*, unsigned long)
FUNC 3070 28 0 google_breakpad::ExceptionHandler::ThreadEntry(void*)
FUNC 30a0 168 0 google_breakpad::ExceptionHandler::WriteMinidump()
FUNC 3210 b6 0 google_breakpad::ExceptionHandler::AddMappingInfo(std::string const&, unsigned char const*, unsigned long, unsigned long, unsigned long)
FUNC 32d0 6d 0 google_breakpad::ExceptionHandler::RegisterAppMemory(void*, unsigned long)
FUNC 3340 41 0 google_breakpad::ExceptionHandler::UnregisterAppMemory(void*)
FUNC 3390 1b5 0 google_breakpad::ExceptionHandler::WriteMinidumpForChild(int, int, std::string const&, bool (*)(google_breakpad::MinidumpDescriptor const&, void*, bool), void*)
FUNC 3550 35f 0 google_breakpad::ExceptionHandler::ExceptionHandler(google_breakpad::MinidumpDescriptor const&, bool (*)(void*), bool (*)(google_breakpad::MinidumpDescriptor const&, void*, bool), void*, bool, int)
FUNC 38b0 1c1 0 google_breakpad::ExceptionHandler::WriteMinidump(std::string const&, bool (*)(google_breakpad::MinidumpDescriptor const&, void*, bool), void*)
FUNC 3a80 f9 0 void std::vector<google_breakpad::ExceptionHandler*, std::allocator<google_breakpad::ExceptionHandler*> >::_M_emplace_back_aux<google_breakpad::ExceptionHandler* const&>(google_breakpad::ExceptionHandler* const&)
FUNC 3b80 ab 0 google_breakpad::MinidumpDescriptor::MinidumpDescriptor(google_breakpad::MinidumpDescriptor const&)
FUNC 3c30 2b5 0 google_breakpad::MinidumpDescriptor::UpdatePath()
FUNC 3ef0 c6 0 google_breakpad::MinidumpDescriptor::operator=(google_breakpad::MinidumpDescriptor const&)
FUNC 3fc0 34 0 logger::write(char const*, unsigned long)
FUNC 4000 1b98 0 google_breakpad::WriteMicrodump(int, void const*, unsigned long, std::list<google_breakpad::MappingEntry, std::allocator<google_breakpad::MappingEntry> > const&, bool, unsigned long, bool, google_breakpad::MicrodumpExtraInfo const&)
FUNC 5ba0 3f0 0 void std::vector<unsigned char, google_breakpad::PageStdAllocator<unsigned char> >::_M_range_insert<unsigned char const*>(__gnu_cxx::__normal_iterator<unsigned char*, std::vector<unsigned char, google_breakpad::PageStdAllocator<unsigned char> > >, unsigned char const*, unsigned char const*, std::forward_iterator_tag)
FUNC 5f90 6 0 google_breakpad::LinuxDumper::LateInit()
FUNC 5fa0 69 0 google_breakpad::LinuxDumper::~LinuxDumper()
FUNC 6010 12 0 google_breakpad::LinuxDumper::~LinuxDumper()
FUNC 6030 4a 0 google_breakpad::LinuxDumper::GetMappingAbsolutePath(google_breakpad::MappingInfo const&, char*) const
FUNC 6080 170 0 ElfFileSoName
FUNC 61f0 e6 0 google_breakpad::LinuxDumper::GetMappingEffectiveNameAndPath(google_breakpad::MappingInfo const&, char*, unsigned long, char*, unsigned long)
FUNC 62e0 114 0 google_breakpad::LinuxDumper::ReadAuxv()
FUNC 6400 32 0 google_breakpad::LinuxDumper::Init()
FUNC 6440 46 0 google_breakpad::LinuxDumper::StackHasPointerToMapping(unsigned char const*, unsigned long, unsigned long, google_breakpad::MappingInfo const&)
FUNC 6490 4b 0 google_breakpad::LinuxDumper::FindMapping(void const*) const
FUNC 64e0 73 0 google_breakpad::LinuxDumper::GetStackInfo(void const**, unsigned long*, unsigned long)
FUNC 6560 43 0 google_breakpad::LinuxDumper::FindMappingNoBias(unsigned long) const
FUNC 65b0 1c4 0 google_breakpad::LinuxDumper::SanitizeStackCopy(unsigned char*, unsigned long, unsigned long, unsigned long)
FUNC 6780 1f8 0 google_breakpad::LinuxDumper::HandleDeletedFileInMapping(char*) const
FUNC 6980 2fe 0 google_breakpad::LinuxDumper::ElfFileIdentifierForMapping(google_breakpad::MappingInfo const&, bool, unsigned int, google_breakpad::wasteful_vector<unsigned char>&)
FUNC 6c80 5f1 0 google_breakpad::LinuxDumper::LinuxDumper(int, char const*)
FUNC 7280 820 0 google_breakpad::LinuxDumper::EnumerateMappings()
FUNC 7aa0 2a2 0 std::vector<unsigned long, google_breakpad::PageStdAllocator<unsigned long> >::_M_default_append(unsigned long)
FUNC 7d50 284 0 std::vector<google_breakpad::MappingInfo*, google_breakpad::PageStdAllocator<google_breakpad::MappingInfo*> >::_M_default_append(unsigned long)
FUNC 7fe0 219 0 void std::vector<google_breakpad::MappingInfo*, google_breakpad::PageStdAllocator<google_breakpad::MappingInfo*> >::_M_emplace_back_aux<google_breakpad::MappingInfo* const&>(google_breakpad::MappingInfo* const&)
FUNC 8200 3 0 google_breakpad::LinuxPtraceDumper::IsPostMortem() const
FUNC 8210 bc 0 google_breakpad::LinuxPtraceDumper::CopyFromProcess(void*, int, void const*, unsigned long)
FUNC 82d0 c8 0 google_breakpad::LinuxPtraceDumper::BuildProcPath(char*, int, char const*) const
FUNC 83a0 520 0 google_breakpad::LinuxPtraceDumper::GetThreadInfoByIndex(unsigned long, google_breakpad::ThreadInfo*)
FUNC 88c0 ba 0 google_breakpad::LinuxPtraceDumper::ThreadsResume()
FUNC 8980 27 0 google_breakpad::LinuxPtraceDumper::LinuxPtraceDumper(int)
FUNC 89b0 251 0 google_breakpad::LinuxPtraceDumper::ThreadsSuspend()
FUNC 8c10 340 0 google_breakpad::LinuxPtraceDumper::EnumerateThreads()
FUNC 8f50 13 0 google_breakpad::LinuxPtraceDumper::~LinuxPtraceDumper()
FUNC 8f70 20 0 google_breakpad::LinuxPtraceDumper::~LinuxPtraceDumper()
FUNC 8f90 2a2 0 std::vector<int, google_breakpad::PageStdAllocator<int> >::_M_default_append(unsigned long)
FUNC 9240 21a 0 void std::vector<int, google_breakpad::PageStdAllocator<int> >::_M_emplace_back_aux<int const&>(int const&)
FUNC 9460 3a 0 MinidumpWriter::~MinidumpWriter
FUNC 94a0 de4 0 MinidumpWriter::WriteThreadListStream
FUNC a290 21a5 0 MinidumpWriter::Dump
FUNC c440 550 0 WriteMinidumpImpl
FUNC c990 f9 0 google_breakpad::WriteMinidump(char const*, int, void const*, unsigned long, bool, unsigned long, bool)
FUNC ca90 f9 0 google_breakpad::WriteMinidump(int, int, void const*, unsigned long, bool, unsigned long, bool)
FUNC cb90 47 0 google_breakpad::WriteMinidump(char const*, int, void const*, unsigned long, std::list<google_breakpad::MappingEntry, std::allocator<google_breakpad::MappingEntry> > const&, std::list<google_breakpad::AppMemory, std::allocator<google_breakpad::AppMemory> > const&, bool, unsigned long, bool)
FUNC cbe0 46 0 google_breakpad::WriteMinidump(int, int, void const*, unsigned long, std::list<google_breakpad::MappingEntry, std::allocator<google_breakpad::MappingEntry> > const&, std::list<google_breakpad::AppMemory, std::allocator<google_breakpad::AppMemory> > const&, bool, unsigned long, bool)
FUNC cc30 48 0 google_breakpad::WriteMinidump(char const*, long, int, void const*, unsigned long, std::list<google_breakpad::MappingEntry, std::allocator<google_breakpad::MappingEntry> > const&, std::list<google_breakpad::AppMemory, std::allocator<google_breakpad::AppMemory> > const&, bool, unsigned long, bool)
FUNC cc80 47 0 google_breakpad::WriteMinidump(int, long, int, void const*, unsigned long, std::list<google_breakpad::MappingEntry, std::allocator<google_breakpad::MappingEntry> > const&, std::list<google_breakpad::AppMemory, std::allocator<google_breakpad::AppMemory> > const&, bool, unsigned long, bool)
FUNC ccd0 68c 0 google_breakpad::WriteMinidump(char const*, int, int)
FUNC d360 45e 0 google_breakpad::WriteMinidump(char const*, std::list<google_breakpad::MappingEntry, std::allocator<google_breakpad::MappingEntry> > const&, std::list<google_breakpad::AppMemory, std::allocator<google_breakpad::AppMemory> > const&, google_breakpad::LinuxDumper*)
FUNC d7c0 147 0 google_breakpad::PageAllocator::Alloc(unsigned long)
FUNC d910 22 0 google_breakpad::TypedMDRVA<unsigned int>::~TypedMDRVA()
FUNC d940 22 0 google_breakpad::TypedMDRVA<MDRawContextAMD64>::~TypedMDRVA()
FUNC d970 22 0 google_breakpad::TypedMDRVA<MDRawLinkMap64>::~TypedMDRVA()
FUNC d9a0 22 0 google_breakpad::TypedMDRVA<MDRawDebug64>::~TypedMDRVA()
FUNC d9d0 231 0 void std::vector<MDMemoryDescriptor, google_breakpad::PageStdAllocator<MDMemoryDescriptor> >::_M_emplace_back_aux<MDMemoryDescriptor const&>(MDMemoryDescriptor const&)
FUNC dc10 1df 0 std::vector<char, google_breakpad::PageStdAllocator<char> >::reserve(unsigned long)
FUNC ddf0 244 0 std::vector<char, google_breakpad::PageStdAllocator<char> >::_M_default_append(unsigned long)
FUNC e040 1a 0 google_breakpad::MinidumpFileWriter::MinidumpFileWriter()
FUNC e060 78 0 google_breakpad::MinidumpFileWriter::Open(char const*)
FUNC e0e0 2c 0 google_breakpad::MinidumpFileWriter::SetFile(int)
FUNC e110 5d 0 google_breakpad::MinidumpFileWriter::Close()
FUNC e170 15 0 google_breakpad::MinidumpFileWriter::~MinidumpFileWriter()
FUNC e190 b6 0 google_breakpad::MinidumpFileWriter::Allocate(unsigned long)
FUNC e250 ff 0 google_breakpad::MinidumpFileWriter::Copy(unsigned int, void const*, long)
FUNC e350 b4 0 google_breakpad::MinidumpFileWriter::CopyStringToMDString(char const*, unsigned int, google_breakpad::TypedMDRVA<MDString>*)
FUNC e410 b5 0 google_breakpad::MinidumpFileWriter::CopyStringToMDString(wchar_t const*, unsigned int, google_breakpad::TypedMDRVA<MDString>*)
FUNC e4d0 41 0 google_breakpad::UntypedMDRVA::Allocate(unsigned long)
FUNC e520 88 0 google_breakpad::UntypedMDRVA::Copy(unsigned int, void const*, unsigned long)
FUNC e5b0 c1 0 google_breakpad::MinidumpFileWriter::WriteMemory(void const*, unsigned long, MDMemoryDescriptor*)
FUNC e680 5 0 google_breakpad::MinidumpFileWriter::WriteString(wchar_t const*, unsigned int, MDLocationDescriptor*)
FUNC e690 5 0 google_breakpad::MinidumpFileWriter::WriteString(char const*, unsigned int, MDLocationDescriptor*)
FUNC e6a0 22 0 google_breakpad::TypedMDRVA<MDString>::~TypedMDRVA()
FUNC e6d0 1d9 0 bool google_breakpad::MinidumpFileWriter::WriteStringCore<wchar_t>(wchar_t const*, unsigned int, MDLocationDescriptor*)
FUNC e8b0 1d7 0 bool google_breakpad::MinidumpFileWriter::WriteStringCore<char>(char const*, unsigned int, MDLocationDescriptor*)
FUNC ea90 91 0 google_breakpad::UTF8ToUTF16Char(char const*, int, unsigned short*)
FUNC eb30 56 0 google_breakpad::UTF32ToUTF16Char(wchar_t, unsigned short*)
FUNC eb90 15b 0 google_breakpad::UTF16ToUTF8(std::vector<unsigned short, std::allocator<unsigned short> > const&, bool)
FUNC ecf0 d3 0 google_breakpad::UTF32ToUTF16(wchar_t const*, std::vector<unsigned short, std::allocator<unsigned short> >*)
FUNC edd0 cb 0 google_breakpad::UTF8ToUTF16(char const*, std::vector<unsigned short, std::allocator<unsigned short> >*)
FUNC eea0 283 0 std::vector<unsigned short, std::allocator<unsigned short> >::_M_fill_insert(__gnu_cxx::__normal_iterator<unsigned short*, std::vector<unsigned short, std::allocator<unsigned short> > >, unsigned long, unsigned short const&)
FUNC f130 151 0 std::vector<unsigned short, std::allocator<unsigned short> >::_M_default_append(unsigned long)
FUNC f290 1f 0 google_breakpad::IsValidElf(void const*)
FUNC f2b0 5 0 google_breakpad::ElfClass(void const*)
FUNC f2c0 44f 0 google_breakpad::FindElfSection(void const*, char const*, unsigned int, void const**, unsigned long*, int*)
FUNC f710 26f 0 google_breakpad::FindElfSegment(void const*, unsigned int, void const**, unsigned long*, int*)
FUNC f980 c5 0 google_breakpad::bytes_to_hex_string
FUNC fa50 13 0 google_breakpad::FileID::FileID(char const*)
FUNC fa70 9d 0 google_breakpad::FileID::ConvertIdentifierToUUIDString(google_breakpad::wasteful_vector<unsigned char> const&)
FUNC fb10 1c 0 google_breakpad::FileID::ConvertIdentifierToString(google_breakpad::wasteful_vector<unsigned char> const&)
FUNC fb30 22c 0 google_breakpad::FileID::ElfFileIdentifierFromMappedFile(void const*, google_breakpad::wasteful_vector<unsigned char>&)
FUNC fd60 5f 0 google_breakpad::FileID::ElfFileIdentifier(google_breakpad::wasteful_vector<unsigned char>&)
FUNC fdc0 256 0 std::vector<unsigned char, google_breakpad::PageStdAllocator<unsigned char> >::_M_default_append(unsigned long)
FUNC 10020 73 0 CreateGUID(MDGUID*)
FUNC 100a0 ad 0 GUIDToString(MDGUID const*, char*, int)
FUNC 10150 16 0 GUIDGenerator::InitOnceImpl()
FUNC 10170 1e 0 my_strlen
FUNC 10190 33 0 my_strcmp
FUNC 101d0 56 0 my_strncmp
FUNC 10230 4c 0 my_strtoui
FUNC 10280 36 0 my_uint_len
FUNC 102c0 3a 0 my_uitos
FUNC 10300 2b 0 my_strchr
FUNC 10330 26 0 my_strrchr
FUNC 10360 2b 0 my_memchr
FUNC 10390 64 0 my_read_hex_ptr
FUNC 10400 3a 0 my_read_decimal_ptr
FUNC 10440 1f 0 my_memset
FUNC 10460 38 0 my_strlcpy
FUNC 104a0 45 0 my_strlcat
FUNC 104f0 46 0 my_isspace
FUNC 10540 10 0 google_breakpad::MemoryMappedFile::MemoryMappedFile()
FUNC 10550 4b 0 google_breakpad::MemoryMappedFile::Unmap()
FUNC 105a0 5 0 google_breakpad::MemoryMappedFile::~MemoryMappedFile()
FUNC 105b0 17f 0 google_breakpad::MemoryMappedFile::Map(char const*, unsigned long)
FUNC 10730 14 0 google_breakpad::MemoryMappedFile::MemoryMappedFile(char const*, unsigned long)
FUNC 10750 40 0 google_breakpad::SafeReadLink(char const*, char*, unsigned long)
FUNC 10790 f 0 CrashGenerationClientImpl::~CrashGenerationClientImpl
FUNC 107a0 13 0 CrashGenerationClientImpl::~CrashGenerationClientImpl
FUNC 107c0 1c5 0 CrashGenerationClientImpl::RequestDump
FUNC 10990 24 0 google_breakpad::CrashGenerationClient::TryCreate(int)
FUNC 109c0 f 0 google_breakpad::CrashGenerationClient::~CrashGenerationClient()
FUNC 109d0 13 0 google_breakpad::CrashGenerationClient::~CrashGenerationClient()
FUNC 109f0 8 0 google_breakpad::ThreadInfo::GetInstructionPointer() const
FUNC 10a00 386 0 google_breakpad::ThreadInfo::FillCPUContext(MDRawContextAMD64*) const
FUNC 10d90 43 0 google_breakpad::ThreadInfo::GetGeneralPurposeRegisters(void**, unsigned long*)
FUNC 10de0 46 0 google_breakpad::ThreadInfo::GetFloatingPointRegisters(void**, unsigned long*)
FUNC 10e30 8 0 google_breakpad::UContextReader::GetStackPointer(ucontext const*)
FUNC 10e40 8 0 google_breakpad::UContextReader::GetInstructionPointer(ucontext const*)
FUNC 10e50 2e6 0 google_breakpad::UContextReader::FillCPUContext(MDRawContextAMD64*, ucontext const*, _libc_fpstate const*)
FUNC 11140 d7 0 isLegalUTF8
FUNC 11220 105 0 ConvertUTF32toUTF16
FUNC 11330 e6 0 ConvertUTF16toUTF32
FUNC 11420 1fa 0 ConvertUTF16toUTF8
FUNC 11620 2b 0 isLegalUTF8Sequence
FUNC 11650 27f 0 ConvertUTF8toUTF16
FUNC 118d0 1c3 0 ConvertUTF32toUTF8
FUNC 11aa0 2a7 0 ConvertUTF8toUTF32
PUBLIC 1598 0 _init
PUBLIC 19b0 0 google_breakpad::LineReader::PopLine(unsigned int) [clone .part.4]
PUBLIC 19d0 0 google_breakpad::TypedMDRVA<MDRawDirectory>::CopyIndex(unsigned int, MDRawDirectory*) [clone .isra.33] [clone .part.34]
PUBLIC 19f0 0 google_breakpad::TypedMDRVA<MDRawDirectory>::CopyIndex(unsigned int, MDRawDirectory*) [clone .isra.33]
PUBLIC 1a0e 0 google_breakpad::TypedMDRVA<unsigned int>::AllocateObjectAndArray(unsigned long, unsigned long) [clone .part.35]
PUBLIC 1a2e 0 google_breakpad::TypedMDRVA<unsigned int>::CopyIndexAfterObject(unsigned int, void const*, unsigned long) [clone .isra.36] [clone .part.37]
PUBLIC 1a4e 0 (anonymous namespace)::MinidumpWriter::WriteFile(MDLocationDescriptor*, char const*)
PUBLIC 1c1a 0 (anonymous namespace)::MinidumpWriter::WriteProcFile(MDLocationDescriptor*, int, char const*)
PUBLIC 1c58 0 google_breakpad::TypedMDRVA<MDString>::CopyIndexAfterObject(unsigned int, void const*, unsigned long) [clone .isra.4] [clone .part.5]
PUBLIC 1c78 0 google_breakpad::TypedMDRVA<MDString>::AllocateObjectAndArray(unsigned long, unsigned long) [clone .part.6]
PUBLIC 1c98 0 _start
PUBLIC 1cd0 0 deregister_tm_clones
PUBLIC 1d00 0 register_tm_clones
PUBLIC 1d40 0 __do_global_dtors_aux
PUBLIC 1d60 0 frame_dummy
PUBLIC 1d8d 0 dumpCallback(google_breakpad::MinidumpDescriptor const&, void*, bool)
PUBLIC 1dc6 0 crash()
PUBLIC 1dde 0 main
PUBLIC 1ef7 0 __static_initialization_and_destruction_0(int, int)
PUBLIC 1f34 0 _GLOBAL__sub_I__Z5crashv
PUBLIC 1f4a 0 google_breakpad::MicrodumpExtraInfo::MicrodumpExtraInfo()
PUBLIC 1f84 0 google_breakpad::MinidumpDescriptor::MinidumpDescriptor(std::string const&)
PUBLIC 2064 0 google_breakpad::MinidumpDescriptor::path() const
PUBLIC 2076 0 google_breakpad::MinidumpDescriptor::~MinidumpDescriptor()
PUBLIC 20b0 0 google_breakpad::ExceptionHandler::InstallHandlersLocked()
PUBLIC 21b0 0 google_breakpad::ExceptionHandler::RestoreHandlersLocked()
PUBLIC 2230 0 google_breakpad::ExceptionHandler::~ExceptionHandler()
PUBLIC 25a0 0 google_breakpad::ExceptionHandler::SendContinueSignalToChild()
PUBLIC 2670 0 google_breakpad::ExceptionHandler::GenerateDump(google_breakpad::ExceptionHandler::CrashContext*)
PUBLIC 2b00 0 google_breakpad::ExceptionHandler::HandleSignal(int, siginfo_t*, void*)
PUBLIC 2cd0 0 google_breakpad::ExceptionHandler::SignalHandler(int, siginfo_t*, void*)
PUBLIC 2e70 0 google_breakpad::ExceptionHandler::SimulateSignalDelivery(int)
PUBLIC 2ed0 0 google_breakpad::ExceptionHandler::WaitForContinueSignal()
PUBLIC 2fa0 0 google_breakpad::ExceptionHandler::DoDump(int, void const*, unsigned long)
PUBLIC 3070 0 google_breakpad::ExceptionHandler::ThreadEntry(void*)
PUBLIC 30a0 0 google_breakpad::ExceptionHandler::WriteMinidump()
PUBLIC 3210 0 google_breakpad::ExceptionHandler::AddMappingInfo(std::string const&, unsigned char const*, unsigned long, unsigned long, unsigned long)
PUBLIC 32d0 0 google_breakpad::ExceptionHandler::RegisterAppMemory(void*, unsigned long)
PUBLIC 3340 0 google_breakpad::ExceptionHandler::UnregisterAppMemory(void*)
PUBLIC 3390 0 google_breakpad::ExceptionHandler::WriteMinidumpForChild(int, int, std::string const&, bool (*)(google_breakpad::MinidumpDescriptor const&, void*, bool), void*)
PUBLIC 3550 0 google_breakpad::ExceptionHandler::ExceptionHandler(google_breakpad::MinidumpDescriptor const&, bool (*)(void*), bool (*)(google_breakpad::MinidumpDescriptor const&, void*, bool), void*, bool, int)
PUBLIC 38b0 0 google_breakpad::ExceptionHandler::WriteMinidump(std::string const&, bool (*)(google_breakpad::MinidumpDescriptor const&, void*, bool), void*)
PUBLIC 3a80 0 void std::vector<google_breakpad::ExceptionHandler*, std::allocator<google_breakpad::ExceptionHandler*> >::_M_emplace_back_aux<google_breakpad::ExceptionHandler* const&>(google_breakpad::ExceptionHandler* const&)
PUBLIC 3b80 0 google_breakpad::MinidumpDescriptor::MinidumpDescriptor(google_breakpad::MinidumpDescriptor const&)
PUBLIC 3c30 0 google_breakpad::MinidumpDescriptor::UpdatePath()
PUBLIC 3ef0 0 google_breakpad::MinidumpDescriptor::operator=(google_breakpad::MinidumpDescriptor const&)
PUBLIC 3fc0 0 logger::write(char const*, unsigned long)
PUBLIC 4000 0 google_breakpad::WriteMicrodump(int, void const*, unsigned long, std::list<google_breakpad::MappingEntry, std::allocator<google_breakpad::MappingEntry> > const&, bool, unsigned long, bool, google_breakpad::MicrodumpExtraInfo const&)
PUBLIC 5ba0 0 void std::vector<unsigned char, google_breakpad::PageStdAllocator<unsigned char> >::_M_range_insert<unsigned char const*>(__gnu_cxx::__normal_iterator<unsigned char*, std::vector<unsigned char, google_breakpad::PageStdAllocator<unsigned char> > >, unsigned char const*, unsigned char const*, std::forward_iterator_tag)
PUBLIC 5f90 0 google_breakpad::LinuxDumper::LateInit()
PUBLIC 5fa0 0 google_breakpad::LinuxDumper::~LinuxDumper()
PUBLIC 6010 0 google_breakpad::LinuxDumper::~LinuxDumper()
PUBLIC 6030 0 google_breakpad::LinuxDumper::GetMappingAbsolutePath(google_breakpad::MappingInfo const&, char*) const
PUBLIC 6080 0 google_breakpad::(anonymous namespace)::ElfFileSoName(google_breakpad::LinuxDumper const&, google_breakpad::MappingInfo const&, char*, unsigned long)
PUBLIC 61f0 0 google_breakpad::LinuxDumper::GetMappingEffectiveNameAndPath(google_breakpad::MappingInfo const&, char*, unsigned long, char*, unsigned long)
PUBLIC 62e0 0 google_breakpad::LinuxDumper::ReadAuxv()
PUBLIC 6400 0 google_breakpad::LinuxDumper::Init()
PUBLIC 6440 0 google_breakpad::LinuxDumper::StackHasPointerToMapping(unsigned char const*, unsigned long, unsigned long, google_breakpad::MappingInfo const&)
PUBLIC 6490 0 google_breakpad::LinuxDumper::FindMapping(void const*) const
PUBLIC 64e0 0 google_breakpad::LinuxDumper::GetStackInfo(void const**, unsigned long*, unsigned long)
PUBLIC 6560 0 google_breakpad::LinuxDumper::FindMappingNoBias(unsigned long) const
PUBLIC 65b0 0 google_breakpad::LinuxDumper::SanitizeStackCopy(unsigned char*, unsigned long, unsigned long, unsigned long)
PUBLIC 6780 0 google_breakpad::LinuxDumper::HandleDeletedFileInMapping(char*) const
PUBLIC 6980 0 google_breakpad::LinuxDumper::ElfFileIdentifierForMapping(google_breakpad::MappingInfo const&, bool, unsigned int, google_breakpad::wasteful_vector<unsigned char>&)
PUBLIC 6c80 0 google_breakpad::LinuxDumper::LinuxDumper(int, char const*)
PUBLIC 7280 0 google_breakpad::LinuxDumper::EnumerateMappings()
PUBLIC 7aa0 0 std::vector<unsigned long, google_breakpad::PageStdAllocator<unsigned long> >::_M_default_append(unsigned long)
PUBLIC 7d50 0 std::vector<google_breakpad::MappingInfo*, google_breakpad::PageStdAllocator<google_breakpad::MappingInfo*> >::_M_default_append(unsigned long)
PUBLIC 7fe0 0 void std::vector<google_breakpad::MappingInfo*, google_breakpad::PageStdAllocator<google_breakpad::MappingInfo*> >::_M_emplace_back_aux<google_breakpad::MappingInfo* const&>(google_breakpad::MappingInfo* const&)
PUBLIC 8200 0 google_breakpad::LinuxPtraceDumper::IsPostMortem() const
PUBLIC 8210 0 google_breakpad::LinuxPtraceDumper::CopyFromProcess(void*, int, void const*, unsigned long)
PUBLIC 82d0 0 google_breakpad::LinuxPtraceDumper::BuildProcPath(char*, int, char const*) const
PUBLIC 83a0 0 google_breakpad::LinuxPtraceDumper::GetThreadInfoByIndex(unsigned long, google_breakpad::ThreadInfo*)
PUBLIC 88c0 0 google_breakpad::LinuxPtraceDumper::ThreadsResume()
PUBLIC 8980 0 google_breakpad::LinuxPtraceDumper::LinuxPtraceDumper(int)
PUBLIC 89b0 0 google_breakpad::LinuxPtraceDumper::ThreadsSuspend()
PUBLIC 8c10 0 google_breakpad::LinuxPtraceDumper::EnumerateThreads()
PUBLIC 8f50 0 google_breakpad::LinuxPtraceDumper::~LinuxPtraceDumper()
PUBLIC 8f70 0 google_breakpad::LinuxPtraceDumper::~LinuxPtraceDumper()
PUBLIC 8f90 0 std::vector<int, google_breakpad::PageStdAllocator<int> >::_M_default_append(unsigned long)
PUBLIC 9240 0 void std::vector<int, google_breakpad::PageStdAllocator<int> >::_M_emplace_back_aux<int const&>(int const&)
PUBLIC 9460 0 (anonymous namespace)::MinidumpWriter::~MinidumpWriter()
PUBLIC 94a0 0 (anonymous namespace)::MinidumpWriter::WriteThreadListStream(MDRawDirectory*)
PUBLIC a290 0 (anonymous namespace)::MinidumpWriter::Dump()
PUBLIC c440 0 (anonymous namespace)::WriteMinidumpImpl(char const*, int, long, int, void const*, unsigned long, std::list<google_breakpad::MappingEntry, std::allocator<google_breakpad::MappingEntry> > const&, std::list<google_breakpad::AppMemory, std::allocator<google_breakpad::AppMemory> > const&, bool, unsigned long, bool)
PUBLIC c990 0 google_breakpad::WriteMinidump(char const*, int, void const*, unsigned long, bool, unsigned long, bool)
PUBLIC ca90 0 google_breakpad::WriteMinidump(int, int, void const*, unsigned long, bool, unsigned long, bool)
PUBLIC cb90 0 google_breakpad::WriteMinidump(char const*, int, void const*, unsigned long, std::list<google_breakpad::MappingEntry, std::allocator<google_breakpad::MappingEntry> > const&, std::list<google_breakpad::AppMemory, std::allocator<google_breakpad::AppMemory> > const&, bool, unsigned long, bool)
PUBLIC cbe0 0 google_breakpad::WriteMinidump(int, int, void const*, unsigned long, std::list<google_breakpad::MappingEntry, std::allocator<google_breakpad::MappingEntry> > const&, std::list<google_breakpad::AppMemory, std::allocator<google_breakpad::AppMemory> > const&, bool, unsigned long, bool)
PUBLIC cc30 0 google_breakpad::WriteMinidump(char const*, long, int, void const*, unsigned long, std::list<google_breakpad::MappingEntry, std::allocator<google_breakpad::MappingEntry> > const&, std::list<google_breakpad::AppMemory, std::allocator<google_breakpad::AppMemory> > const&, bool, unsigned long, bool)
PUBLIC cc80 0 google_breakpad::WriteMinidump(int, long, int, void const*, unsigned long, std::list<google_breakpad::MappingEntry, std::allocator<google_breakpad::MappingEntry> > const&, std::list<google_breakpad::AppMemory, std::allocator<google_breakpad::AppMemory> > const&, bool, unsigned long, bool)
PUBLIC ccd0 0 google_breakpad::WriteMinidump(char const*, int, int)
PUBLIC d360 0 google_breakpad::WriteMinidump(char const*, std::list<google_breakpad::MappingEntry, std::allocator<google_breakpad::MappingEntry> > const&, std::list<google_breakpad::AppMemory, std::allocator<google_breakpad::AppMemory> > const&, google_breakpad::LinuxDumper*)
PUBLIC d7c0 0 google_breakpad::PageAllocator::Alloc(unsigned long)
PUBLIC d910 0 google_breakpad::TypedMDRVA<unsigned int>::~TypedMDRVA()
PUBLIC d940 0 google_breakpad::TypedMDRVA<MDRawContextAMD64>::~TypedMDRVA()
PUBLIC d970 0 google_breakpad::TypedMDRVA<MDRawLinkMap64>::~TypedMDRVA()
PUBLIC d9a0 0 google_breakpad::TypedMDRVA<MDRawDebug64>::~TypedMDRVA()
PUBLIC d9d0 0 void std::vector<MDMemoryDescriptor, google_breakpad::PageStdAllocator<MDMemoryDescriptor> >::_M_emplace_back_aux<MDMemoryDescriptor const&>(MDMemoryDescriptor const&)
PUBLIC dc10 0 std::vector<char, google_breakpad::PageStdAllocator<char> >::reserve(unsigned long)
PUBLIC ddf0 0 std::vector<char, google_breakpad::PageStdAllocator<char> >::_M_default_append(unsigned long)
PUBLIC e040 0 google_breakpad::MinidumpFileWriter::MinidumpFileWriter()
PUBLIC e060 0 google_breakpad::MinidumpFileWriter::Open(char const*)
PUBLIC e0e0 0 google_breakpad::MinidumpFileWriter::SetFile(int)
PUBLIC e110 0 google_breakpad::MinidumpFileWriter::Close()
PUBLIC e170 0 google_breakpad::MinidumpFileWriter::~MinidumpFileWriter()
PUBLIC e190 0 google_breakpad::MinidumpFileWriter::Allocate(unsigned long)
PUBLIC e250 0 google_breakpad::MinidumpFileWriter::Copy(unsigned int, void const*, long)
PUBLIC e350 0 google_breakpad::MinidumpFileWriter::CopyStringToMDString(char const*, unsigned int, google_breakpad::TypedMDRVA<MDString>*)
PUBLIC e410 0 google_breakpad::MinidumpFileWriter::CopyStringToMDString(wchar_t const*, unsigned int, google_breakpad::TypedMDRVA<MDString>*)
PUBLIC e4d0 0 google_breakpad::UntypedMDRVA::Allocate(unsigned long)
PUBLIC e520 0 google_breakpad::UntypedMDRVA::Copy(unsigned int, void const*, unsigned long)
PUBLIC e5b0 0 google_breakpad::MinidumpFileWriter::WriteMemory(void const*, unsigned long, MDMemoryDescriptor*)
PUBLIC e680 0 google_breakpad::MinidumpFileWriter::WriteString(wchar_t const*, unsigned int, MDLocationDescriptor*)
PUBLIC e690 0 google_breakpad::MinidumpFileWriter::WriteString(char const*, unsigned int, MDLocationDescriptor*)
PUBLIC e6a0 0 google_breakpad::TypedMDRVA<MDString>::~TypedMDRVA()
PUBLIC e6d0 0 bool google_breakpad::MinidumpFileWriter::WriteStringCore<wchar_t>(wchar_t const*, unsigned int, MDLocationDescriptor*)
PUBLIC e8b0 0 bool google_breakpad::MinidumpFileWriter::WriteStringCore<char>(char const*, unsigned int, MDLocationDescriptor*)
PUBLIC ea90 0 google_breakpad::UTF8ToUTF16Char(char const*, int, unsigned short*)
PUBLIC eb30 0 google_breakpad::UTF32ToUTF16Char(wchar_t, unsigned short*)
PUBLIC eb90 0 google_breakpad::UTF16ToUTF8(std::vector<unsigned short, std::allocator<unsigned short> > const&, bool)
PUBLIC ecf0 0 google_breakpad::UTF32ToUTF16(wchar_t const*, std::vector<unsigned short, std::allocator<unsigned short> >*)
PUBLIC edd0 0 google_breakpad::UTF8ToUTF16(char const*, std::vector<unsigned short, std::allocator<unsigned short> >*)
PUBLIC eea0 0 std::vector<unsigned short, std::allocator<unsigned short> >::_M_fill_insert(__gnu_cxx::__normal_iterator<unsigned short*, std::vector<unsigned short, std::allocator<unsigned short> > >, unsigned long, unsigned short const&)
PUBLIC f130 0 std::vector<unsigned short, std::allocator<unsigned short> >::_M_default_append(unsigned long)
PUBLIC f290 0 google_breakpad::IsValidElf(void const*)
PUBLIC f2b0 0 google_breakpad::ElfClass(void const*)
PUBLIC f2c0 0 google_breakpad::FindElfSection(void const*, char const*, unsigned int, void const**, unsigned long*, int*)
PUBLIC f710 0 google_breakpad::FindElfSegment(void const*, unsigned int, void const**, unsigned long*, int*)
PUBLIC f980 0 google_breakpad::bytes_to_hex_string(unsigned char const*, unsigned long)
PUBLIC fa50 0 google_breakpad::FileID::FileID(char const*)
PUBLIC fa70 0 google_breakpad::FileID::ConvertIdentifierToUUIDString(google_breakpad::wasteful_vector<unsigned char> const&)
PUBLIC fb10 0 google_breakpad::FileID::ConvertIdentifierToString(google_breakpad::wasteful_vector<unsigned char> const&)
PUBLIC fb30 0 google_breakpad::FileID::ElfFileIdentifierFromMappedFile(void const*, google_breakpad::wasteful_vector<unsigned char>&)
PUBLIC fd60 0 google_breakpad::FileID::ElfFileIdentifier(google_breakpad::wasteful_vector<unsigned char>&)
PUBLIC fdc0 0 std::vector<unsigned char, google_breakpad::PageStdAllocator<unsigned char> >::_M_default_append(unsigned long)
PUBLIC 10020 0 CreateGUID(MDGUID*)
PUBLIC 100a0 0 GUIDToString(MDGUID const*, char*, int)
PUBLIC 10150 0 GUIDGenerator::InitOnceImpl()
PUBLIC 10170 0 my_strlen
PUBLIC 10190 0 my_strcmp
PUBLIC 101d0 0 my_strncmp
PUBLIC 10230 0 my_strtoui
PUBLIC 10280 0 my_uint_len
PUBLIC 102c0 0 my_uitos
PUBLIC 10300 0 my_strchr
PUBLIC 10330 0 my_strrchr
PUBLIC 10360 0 my_memchr
PUBLIC 10390 0 my_read_hex_ptr
PUBLIC 10400 0 my_read_decimal_ptr
PUBLIC 10440 0 my_memset
PUBLIC 10460 0 my_strlcpy
PUBLIC 104a0 0 my_strlcat
PUBLIC 104f0 0 my_isspace
PUBLIC 10540 0 google_breakpad::MemoryMappedFile::MemoryMappedFile()
PUBLIC 10550 0 google_breakpad::MemoryMappedFile::Unmap()
PUBLIC 105a0 0 google_breakpad::MemoryMappedFile::~MemoryMappedFile()
PUBLIC 105b0 0 google_breakpad::MemoryMappedFile::Map(char const*, unsigned long)
PUBLIC 10730 0 google_breakpad::MemoryMappedFile::MemoryMappedFile(char const*, unsigned long)
PUBLIC 10750 0 google_breakpad::SafeReadLink(char const*, char*, unsigned long)
PUBLIC 10790 0 google_breakpad::(anonymous namespace)::CrashGenerationClientImpl::~CrashGenerationClientImpl()
PUBLIC 107a0 0 google_breakpad::(anonymous namespace)::CrashGenerationClientImpl::~CrashGenerationClientImpl()
PUBLIC 107c0 0 google_breakpad::(anonymous namespace)::CrashGenerationClientImpl::RequestDump(void const*, unsigned long)
PUBLIC 10990 0 google_breakpad::CrashGenerationClient::TryCreate(int)
PUBLIC 109c0 0 google_breakpad::CrashGenerationClient::~CrashGenerationClient()
PUBLIC 109d0 0 google_breakpad::CrashGenerationClient::~CrashGenerationClient()
PUBLIC 109f0 0 google_breakpad::ThreadInfo::GetInstructionPointer() const
PUBLIC 10a00 0 google_breakpad::ThreadInfo::FillCPUContext(MDRawContextAMD64*) const
PUBLIC 10d90 0 google_breakpad::ThreadInfo::GetGeneralPurposeRegisters(void**, unsigned long*)
PUBLIC 10de0 0 google_breakpad::ThreadInfo::GetFloatingPointRegisters(void**, unsigned long*)
PUBLIC 10e30 0 google_breakpad::UContextReader::GetStackPointer(ucontext const*)
PUBLIC 10e40 0 google_breakpad::UContextReader::GetInstructionPointer(ucontext const*)
PUBLIC 10e50 0 google_breakpad::UContextReader::FillCPUContext(MDRawContextAMD64*, ucontext const*, _libc_fpstate const*)
PUBLIC 11140 0 isLegalUTF8
PUBLIC 11220 0 ConvertUTF32toUTF16
PUBLIC 11330 0 ConvertUTF16toUTF32
PUBLIC 11420 0 ConvertUTF16toUTF8
PUBLIC 11620 0 isLegalUTF8Sequence
PUBLIC 11650 0 ConvertUTF8toUTF16
PUBLIC 118d0 0 ConvertUTF32toUTF8
PUBLIC 11aa0 0 ConvertUTF8toUTF32
PUBLIC 11d50 0 __libc_csu_init
PUBLIC 11dc0 0 __libc_csu_fini
PUBLIC 11dc4 0 _fini
STACK CFI INIT 1c98 2a .cfa: $rsp 8 + .ra: .cfa -8 + ^
STACK CFI INIT 15c0 3f0 .cfa: $rsp 16 + .ra: .cfa -8 + ^
STACK CFI 15c6 .cfa: $rsp 24 +
STACK CFI INIT 1f4a 39 .cfa: $rsp 8 + .ra: .cfa -8 + ^
STACK CFI 1f4b $rbp: .cfa -16 + ^ .cfa: $rsp 16 +
STACK CFI 1f4e .cfa: $rbp 16 +
STACK CFI 1f82 .cfa: $rsp 8 +
STACK CFI INIT 1f84 df .cfa: $rsp 8 + .ra: .cfa -8 + ^
STACK CFI 1f85 $rbp: .cfa -16 + ^ .cfa: $rsp 16 +
STACK CFI 1f88 .cfa: $rbp 16 +
STACK CFI 1f8d $rbx: .cfa -24 + ^
STACK CFI 2062 .cfa: $rsp 8 +
STACK CFI INIT 2064 12 .cfa: $rsp 8 + .ra: .cfa -8 + ^
STACK CFI 2065 $rbp: .cfa -16 + ^ .cfa: $rsp 16 +
STACK CFI 2068 .cfa: $rbp 16 +
STACK CFI 2075 .cfa: $rsp 8 +
STACK CFI INIT 1d8d 39 .cfa: $rsp 8 + .ra: .cfa -8 + ^
STACK CFI 1d8e $rbp: .cfa -16 + ^ .cfa: $rsp 16 +
STACK CFI 1d91 .cfa: $rbp 16 +
STACK CFI 1dc5 .cfa: $rsp 8 +
STACK CFI INIT 1dc6 18 .cfa: $rsp 8 + .ra: .cfa -8 + ^
STACK CFI 1dc7 $rbp: .cfa -16 + ^ .cfa: $rsp 16 +
STACK CFI 1dca .cfa: $rbp 16 +
STACK CFI 1ddd .cfa: $rsp 8 +
STACK CFI INIT 2076 2e .cfa: $rsp 8 + .ra: .cfa -8 + ^
STACK CFI 2077 $rbp: .cfa -16 + ^ .cfa: $rsp 16 +
STACK CFI 207a .cfa: $rbp 16 +
STACK CFI 20a3 .cfa: $rsp 8 +
STACK CFI INIT 1dde 119 .cfa: $rsp 8 + .ra: .cfa -8 + ^
STACK CFI 1ddf $rbp: .cfa -16 + ^ .cfa: $rsp 16 +
STACK CFI 1de2 .cfa: $rbp 16 +
STACK CFI 1dea $rbx: .cfa -24 + ^
STACK CFI 1ef6 .cfa: $rsp 8 +
STACK CFI INIT 1ef7 3d .cfa: $rsp 8 + .ra: .cfa -8 + ^
STACK CFI 1ef8 $rbp: .cfa -16 + ^ .cfa: $rsp 16 +
STACK CFI 1efb .cfa: $rbp 16 +
STACK CFI 1f33 .cfa: $rsp 8 +
STACK CFI INIT 1f34 15 .cfa: $rsp 8 + .ra: .cfa -8 + ^
STACK CFI 1f35 $rbp: .cfa -16 + ^ .cfa: $rsp 16 +
STACK CFI 1f38 .cfa: $rbp 16 +
STACK CFI 1f48 .cfa: $rsp 8 +
STACK CFI INIT 20b0 f8 .cfa: $rsp 8 + .ra: .cfa -8 + ^
STACK CFI 20bf $r13: .cfa -16 + ^ .cfa: $rsp 16 +
STACK CFI 20c1 $r12: .cfa -24 + ^ .cfa: $rsp 24 +
STACK CFI 20c9 $rbp: .cfa -32 + ^ .cfa: $rsp 32 +
STACK CFI 20d1 $rbx: .cfa -40 + ^ .cfa: $rsp 40 +
STACK CFI 20df .cfa: $rsp 208 +
STACK CFI 2183 .cfa: $rsp 40 +
STACK CFI 2189 $rbx: $rbx .cfa: $rsp 32 +
STACK CFI 218a $rbp: $rbp .cfa: $rsp 24 +
STACK CFI 218c $r12: $r12 .cfa: $rsp 16 +
STACK CFI 218e $r13: $r13 .cfa: $rsp 8 +
STACK CFI 2198 $r12: .cfa -24 + ^ $r13: .cfa -16 + ^ $rbp: .cfa -32 + ^ $rbx: .cfa -40 + ^ .cfa: $rsp 208 +
STACK CFI 219f .cfa: $rsp 40 +
STACK CFI 21a2 $rbx: $rbx .cfa: $rsp 32 +
STACK CFI 21a3 $rbp: $rbp .cfa: $rsp 24 +
STACK CFI 21a5 $r12: $r12 .cfa: $rsp 16 +
STACK CFI 21a7 $r13: $r13 .cfa: $rsp 8 +
STACK CFI INIT 21b0 7c .cfa: $rsp 8 + .ra: .cfa -8 + ^
STACK CFI 21bb $r13: .cfa -16 + ^ .cfa: $rsp 16 +
STACK CFI 21c4 $r12: .cfa -24 + ^ .cfa: $rsp 24 +
STACK CFI 21c5 $rbp: .cfa -32 + ^ .cfa: $rsp 32 +
STACK CFI 21cd $rbx: .cfa -40 + ^ .cfa: $rsp 40 +
STACK CFI 21d8 .cfa: $rsp 48 +
STACK CFI 2210 .cfa: $rsp 40 +
STACK CFI 2211 $rbx: $rbx .cfa: $rsp 32 +
STACK CFI 2212 $rbp: $rbp .cfa: $rsp 24 +
STACK CFI 2214 $r12: $r12 .cfa: $rsp 16 +
STACK CFI 2216 $r13: $r13 .cfa: $rsp 8 +
STACK CFI 2220 $r12: .cfa -24 + ^ $r13: .cfa -16 + ^ $rbp: .cfa -32 + ^ $rbx: .cfa -40 + ^ .cfa: $rsp 48 +
STACK CFI INIT 2230 361 .cfa: $rsp 8 + .ra: .cfa -8 + ^
STACK CFI 2232 $r12: .cfa -16 + ^ .cfa: $rsp 16 +
STACK CFI 2233 $rbp: .cfa -24 + ^ .cfa: $rsp 24 +
STACK CFI 2234 $rbx: .cfa -32 + ^ .cfa: $rsp 32 +
STACK CFI 2242 .cfa: $rsp 96 +
STACK CFI 23e4 .cfa: $rsp 32 +
STACK CFI 23e5 .cfa: $rsp 24 +
STACK CFI 23e6 .cfa: $rsp 16 +
STACK CFI 23e8 .cfa: $rsp 8 +
STACK CFI 23f0 .cfa: $rsp 96 +
STACK CFI INIT 25a0 ce .cfa: $rsp 8 + .ra: .cfa -8 + ^
STACK CFI 25a2 $r15: .cfa -16 + ^ .cfa: $rsp 16 +
STACK CFI 25a4 $r14: .cfa -24 + ^ .cfa: $rsp 24 +
STACK CFI 25a9 $r13: .cfa -32 + ^ .cfa: $rsp 32 +
STACK CFI 25b2 $r12: .cfa -40 + ^ .cfa: $rsp 40 +
STACK CFI 25b9 $rbp: .cfa -48 + ^ .cfa: $rsp 48 +
STACK CFI 25bf $rbx: .cfa -56 + ^ .cfa: $rsp 56 +
STACK CFI 25c3 .cfa: $rsp 64 +
STACK CFI 2630 .cfa: $rsp 56 +
STACK CFI 263d .cfa: $rsp 48 +
STACK CFI 263e .cfa: $rsp 40 +
STACK CFI 2640 .cfa: $rsp 32 +
STACK CFI 2642 .cfa: $rsp 24 +
STACK CFI 2644 .cfa: $rsp 16 +
STACK CFI 2646 .cfa: $rsp 8 +
STACK CFI 2650 .cfa: $rsp 64 +
STACK CFI 2659 .cfa: $rsp 56 +
STACK CFI 265a .cfa: $rsp 48 +
STACK CFI 265b .cfa: $rsp 40 +
STACK CFI 265d .cfa: $rsp 32 +
STACK CFI 265f .cfa: $rsp 24 +
STACK CFI 2661 .cfa: $rsp 16 +
STACK CFI 2663 .cfa: $rsp 8 +
STACK CFI 2664 .cfa: $rsp 64 +
STACK CFI INIT 2670 48f .cfa: $rsp 8 + .ra: .cfa -8 + ^
STACK CFI 2672 $r15: .cfa -16 + ^ .cfa: $rsp 16 +
STACK CFI 2674 $r14: .cfa -24 + ^ .cfa: $rsp 24 +
STACK CFI 2676 $r13: .cfa -32 + ^ .cfa: $rsp 32 +
STACK CFI 2678 $r12: .cfa -40 + ^ .cfa: $rsp 40 +
STACK CFI 2679 $rbp: .cfa -48 + ^ .cfa: $rsp 48 +
STACK CFI 267d $rbx: .cfa -56 + ^ .cfa: $rsp 56 +
STACK CFI 2684 .cfa: $rsp 144 +
STACK CFI 269e .cfa: $rsp 56 +
STACK CFI 26a1 .cfa: $rsp 48 +
STACK CFI 26a2 .cfa: $rsp 40 +
STACK CFI 26a4 .cfa: $rsp 32 +
STACK CFI 26a6 .cfa: $rsp 24 +
STACK CFI 26a8 .cfa: $rsp 16 +
STACK CFI 26aa .cfa: $rsp 8 +
STACK CFI 26b0 .cfa: $rsp 144 +
STACK CFI INIT 2b00 1cc .cfa: $rsp 8 + .ra: .cfa -8 + ^
STACK CFI 2b02 $r13: .cfa -16 + ^ .cfa: $rsp 16 +
STACK CFI 2b04 $r12: .cfa -24 + ^ .cfa: $rsp 24 +
STACK CFI 2b08 $rbp: .cfa -32 + ^ .cfa: $rsp 32 +
STACK CFI 2b0c $rbx: .cfa -40 + ^ .cfa: $rsp 40 +
STACK CFI 2b13 .cfa: $rsp 48 +
STACK CFI 2b29 .cfa: $rsp 40 +
STACK CFI 2b2a .cfa: $rsp 32 +
STACK CFI 2b2b .cfa: $rsp 24 +
STACK CFI 2b2d .cfa: $rsp 16 +
STACK CFI 2b2f .cfa: $rsp 8 +
STACK CFI 2b30 .cfa: $rsp 48 +
STACK CFI 2c90 .cfa: $rsp 40 +
STACK CFI 2c9b .cfa: $rsp 32 +
STACK CFI 2c9c .cfa: $rsp 24 +
STACK CFI 2c9e .cfa: $rsp 16 +
STACK CFI 2ca0 .cfa: $rsp 8 +
STACK CFI 2ca8 .cfa: $rsp 48 +
STACK CFI INIT 2cd0 19c .cfa: $rsp 8 + .ra: .cfa -8 + ^
STACK CFI 2cd2 $r14: .cfa -16 + ^ .cfa: $rsp 16 +
STACK CFI 2cd7 $r13: .cfa -24 + ^ .cfa: $rsp 24 +
STACK CFI 2cdc $r12: .cfa -32 + ^ .cfa: $rsp 32 +
STACK CFI 2ce7 $rbp: .cfa -40 + ^ .cfa: $rsp 40 +
STACK CFI 2ce8 $rbx: .cfa -48 + ^ .cfa: $rsp 48 +
STACK CFI 2cef .cfa: $rsp 208 +
STACK CFI 2da2 .cfa: $rsp 48 +
STACK CFI 2da3 .cfa: $rsp 40 +
STACK CFI 2da4 .cfa: $rsp 32 +
STACK CFI 2da6 .cfa: $rsp 24 +
STACK CFI 2da8 .cfa: $rsp 16 +
STACK CFI 2daa .cfa: $rsp 8 +
STACK CFI 2db0 .cfa: $rsp 208 +
STACK CFI 2e13 .cfa: $rsp 48 +
STACK CFI 2e14 .cfa: $rsp 40 +
STACK CFI 2e15 .cfa: $rsp 32 +
STACK CFI 2e17 .cfa: $rsp 24 +
STACK CFI 2e19 .cfa: $rsp 16 +
STACK CFI 2e1b .cfa: $rsp 8 +
STACK CFI 2e20 .cfa: $rsp 208 +
STACK CFI INIT 2e70 56 .cfa: $rsp 8 + .ra: .cfa -8 + ^
STACK CFI 2e77 .cfa: $rsp 1104 +
STACK CFI 2ec5 .cfa: $rsp 8 +
STACK CFI INIT 2ed0 c6 .cfa: $rsp 8 + .ra: .cfa -8 + ^
STACK CFI 2ed2 $r15: .cfa -16 + ^ .cfa: $rsp 16 +
STACK CFI 2ed4 $r14: .cfa -24 + ^ .cfa: $rsp 24 +
STACK CFI 2ed9 $r13: .cfa -32 + ^ .cfa: $rsp 32 +
STACK CFI 2edb $r12: .cfa -40 + ^ .cfa: $rsp 40 +
STACK CFI 2ee2 $rbp: .cfa -48 + ^ .cfa: $rsp 48 +
STACK CFI 2ee5 $rbx: .cfa -56 + ^ .cfa: $rsp 56 +
STACK CFI 2ee9 .cfa: $rsp 80 +
STACK CFI 2f69 .cfa: $rsp 56 +
STACK CFI 2f6a .cfa: $rsp 48 +
STACK CFI 2f6b .cfa: $rsp 40 +
STACK CFI 2f6d .cfa: $rsp 32 +
STACK CFI 2f6f .cfa: $rsp 24 +
STACK CFI 2f71 .cfa: $rsp 16 +
STACK CFI 2f73 .cfa: $rsp 8 +
STACK CFI 2f78 .cfa: $rsp 80 +
STACK CFI 2f81 .cfa: $rsp 56 +
STACK CFI 2f82 .cfa: $rsp 48 +
STACK CFI 2f83 .cfa: $rsp 40 +
STACK CFI 2f85 .cfa: $rsp 32 +
STACK CFI 2f87 .cfa: $rsp 24 +
STACK CFI 2f89 .cfa: $rsp 16 +
STACK CFI 2f8b .cfa: $rsp 8 +
STACK CFI 2f8c .cfa: $rsp 80 +
STACK CFI INIT 2fa0 d0 .cfa: $rsp 8 + .ra: .cfa -8 + ^
STACK CFI 2fa1 $rbp: .cfa -16 + ^ .cfa: $rsp 16 +
STACK CFI 2fa8 $rbx: .cfa -24 + ^ .cfa: $rsp 24 +
STACK CFI 2fb2 .cfa: $rsp 64 +
STACK CFI 3009 .cfa: $rsp 24 +
STACK CFI 300a .cfa: $rsp 16 +
STACK CFI 300b .cfa: $rsp 8 +
STACK CFI 3010 .cfa: $rsp 64 +
STACK CFI 3032 .cfa: $rsp 24 +
STACK CFI 3033 .cfa: $rsp 16 +
STACK CFI 3034 .cfa: $rsp 8 +
STACK CFI 3038 .cfa: $rsp 64 +
STACK CFI 306d .cfa: $rsp 24 +
STACK CFI 306e .cfa: $rsp 16 +
STACK CFI 306f .cfa: $rsp 8 +
STACK CFI INIT 3070 28 .cfa: $rsp 8 + .ra: .cfa -8 + ^
STACK CFI 3071 $rbx: .cfa -16 + ^ .cfa: $rsp 16 +
STACK CFI 3097 .cfa: $rsp 8 +
STACK CFI INIT 30a0 168 .cfa: $rsp 8 + .ra: .cfa -8 + ^
STACK CFI 30a1 $rbx: .cfa -16 + ^ .cfa: $rsp 16 +
STACK CFI 30a8 .cfa: $rsp 1616 +
STACK CFI 3112 .cfa: $rsp 16 +
STACK CFI 3113 .cfa: $rsp 8 +
STACK CFI 3118 .cfa: $rsp 1616 +
STACK CFI 31af .cfa: $rsp 16 +
STACK CFI 31b0 .cfa: $rsp 8 +
STACK CFI 31b8 .cfa: $rsp 1616 +
STACK CFI INIT 3210 b6 .cfa: $rsp 8 + .ra: .cfa -8 + ^
STACK CFI 3212 $r13: .cfa -16 + ^ .cfa: $rsp 16 +
STACK CFI 321c $r12: .cfa -24 + ^ .cfa: $rsp 24 +
STACK CFI 3220 $rbp: .cfa -32 + ^ .cfa: $rsp 32 +
STACK CFI 3229 $rbx: .cfa -40 + ^ .cfa: $rsp 40 +
STACK CFI 3230 .cfa: $rsp 672 +
STACK CFI 32b5 .cfa: $rsp 40 +
STACK CFI 32bc .cfa: $rsp 32 +
STACK CFI 32bd .cfa: $rsp 24 +
STACK CFI 32bf .cfa: $rsp 16 +
STACK CFI 32c1 .cfa: $rsp 8 +
STACK CFI INIT 32d0 6d .cfa: $rsp 8 + .ra: .cfa -8 + ^
STACK CFI 32d2 $r12: .cfa -16 + ^ .cfa: $rsp 16 +
STACK CFI 32d6 $rbp: .cfa -24 + ^ .cfa: $rsp 24 +
STACK CFI 32de $rbx: .cfa -32 + ^ .cfa: $rsp 32 +
STACK CFI 3325 .cfa: $rsp 24 +
STACK CFI 332c .cfa: $rsp 16 +
STACK CFI 332e .cfa: $rsp 8 +
STACK CFI 3338 .cfa: $rsp 32 +
STACK CFI 3339 .cfa: $rsp 24 +
STACK CFI 333a .cfa: $rsp 16 +
STACK CFI 333c .cfa: $rsp 8 +
STACK CFI INIT 3340 41 .cfa: $rsp 8 + .ra: .cfa -8 + ^
STACK CFI 3341 $rbx: .cfa -16 + ^ .cfa: $rsp 16 +
STACK CFI 3367 .cfa: $rsp 8 +
STACK CFI 3370 .cfa: $rsp 16 +
STACK CFI 337c .cfa: $rsp 8 +
STACK CFI INIT 3390 1b5 .cfa: $rsp 8 + .ra: .cfa -8 + ^
STACK CFI 3392 $r15: .cfa -16 + ^ .cfa: $rsp 16 +
STACK CFI 339a $r14: .cfa -24 + ^ .cfa: $rsp 24 +
STACK CFI 339f $r13: .cfa -32 + ^ .cfa: $rsp 32 +
STACK CFI 33a4 $r12: .cfa -40 + ^ .cfa: $rsp 40 +
STACK CFI 33a8 $rbp: .cfa -48 + ^ .cfa: $rsp 48 +
STACK CFI 33a9 $rbx: .cfa -56 + ^ .cfa: $rsp 56 +
STACK CFI 33b0 .cfa: $rsp 192 +
STACK CFI 348d .cfa: $rsp 56 +
STACK CFI 348e .cfa: $rsp 48 +
STACK CFI 348f .cfa: $rsp 40 +
STACK CFI 3491 .cfa: $rsp 32 +
STACK CFI 3493 .cfa: $rsp 24 +
STACK CFI 3495 .cfa: $rsp 16 +
STACK CFI 3497 .cfa: $rsp 8 +
STACK CFI 3498 .cfa: $rsp 192 +
STACK CFI INIT 3a80 f9 .cfa: $rsp 8 + .ra: .cfa -8 + ^
STACK CFI 3a82 $r13: .cfa -16 + ^ .cfa: $rsp 16 +
STACK CFI 3a84 $r12: .cfa -24 + ^ .cfa: $rsp 24 +
STACK CFI 3a8b $rbp: .cfa -32 + ^ .cfa: $rsp 32 +
STACK CFI 3a8c $rbx: .cfa -40 + ^ .cfa: $rsp 40 +
STACK CFI 3a93 .cfa: $rsp 64 +
STACK CFI 3b2b .cfa: $rsp 40 +
STACK CFI 3b2c .cfa: $rsp 32 +
STACK CFI 3b2d .cfa: $rsp 24 +
STACK CFI 3b2f .cfa: $rsp 16 +
STACK CFI 3b31 .cfa: $rsp 8 +
STACK CFI 3b38 .cfa: $rsp 64 +
STACK CFI INIT 3550 35f .cfa: $rsp 8 + .ra: .cfa -8 + ^
STACK CFI 3552 $r15: .cfa -16 + ^ .cfa: $rsp 16 +
STACK CFI 3554 $r14: .cfa -24 + ^ .cfa: $rsp 24 +
STACK CFI 3559 $r13: .cfa -32 + ^ .cfa: $rsp 32 +
STACK CFI 355f $r12: .cfa -40 + ^ .cfa: $rsp 40 +
STACK CFI 3560 $rbp: .cfa -48 + ^ .cfa: $rsp 48 +
STACK CFI 3561 $rbx: .cfa -56 + ^ .cfa: $rsp 56 +
STACK CFI 3568 .cfa: $rsp 80 +
STACK CFI 3676 .cfa: $rsp 56 +
STACK CFI 3677 .cfa: $rsp 48 +
STACK CFI 3678 .cfa: $rsp 40 +
STACK CFI 367a .cfa: $rsp 32 +
STACK CFI 367c .cfa: $rsp 24 +
STACK CFI 367e .cfa: $rsp 16 +
STACK CFI 3680 .cfa: $rsp 8 +
STACK CFI 3688 .cfa: $rsp 80 +
STACK CFI INIT 38b0 1c1 .cfa: $rsp 8 + .ra: .cfa -8 + ^
STACK CFI 38b2 $r14: .cfa -16 + ^ .cfa: $rsp 16 +
STACK CFI 38b7 $r13: .cfa -24 + ^ .cfa: $rsp 24 +
STACK CFI 38bc $r12: .cfa -32 + ^ .cfa: $rsp 32 +
STACK CFI 38bd $rbp: .cfa -40 + ^ .cfa: $rsp 40 +
STACK CFI 38c4 $rbx: .cfa -48 + ^ .cfa: $rsp 48 +
STACK CFI 38cb .cfa: $rsp 352 +
STACK CFI 39ae .cfa: $rsp 48 +
STACK CFI 39af .cfa: $rsp 40 +
STACK CFI 39b0 .cfa: $rsp 32 +
STACK CFI 39b2 .cfa: $rsp 24 +
STACK CFI 39b4 .cfa: $rsp 16 +
STACK CFI 39b6 .cfa: $rsp 8 +
STACK CFI 39b7 .cfa: $rsp 352 +
STACK CFI INIT 3b80 ab .cfa: $rsp 8 + .ra: .cfa -8 + ^
STACK CFI 3b81 $rbp: .cfa -16 + ^ .cfa: $rsp 16 +
STACK CFI 3b89 $rbx: .cfa -24 + ^ .cfa: $rsp 24 +
STACK CFI 3b94 .cfa: $rsp 32 +
STACK CFI 3c09 .cfa: $rsp 24 +
STACK CFI 3c0a .cfa: $rsp 16 +
STACK CFI 3c0b .cfa: $rsp 8 +
STACK CFI 3c0c .cfa: $rsp 32 +
STACK CFI INIT 3c30 2b5 .cfa: $rsp 8 + .ra: .cfa -8 + ^
STACK CFI 3c32 $r13: .cfa -16 + ^ .cfa: $rsp 16 +
STACK CFI 3c34 $r12: .cfa -24 + ^ .cfa: $rsp 24 +
STACK CFI 3c35 $rbp: .cfa -32 + ^ .cfa: $rsp 32 +
STACK CFI 3c36 $rbx: .cfa -40 + ^ .cfa: $rsp 40 +
STACK CFI 3c40 .cfa: $rsp 176 +
STACK CFI 3db1 .cfa: $rsp 40 +
STACK CFI 3db2 .cfa: $rsp 32 +
STACK CFI 3db3 .cfa: $rsp 24 +
STACK CFI 3db5 .cfa: $rsp 16 +
STACK CFI 3db7 .cfa: $rsp 8 +
STACK CFI 3db8 .cfa: $rsp 176 +
STACK CFI INIT 3ef0 c6 .cfa: $rsp 8 + .ra: .cfa -8 + ^
STACK CFI 3ef1 $rbp: .cfa -16 + ^ .cfa: $rsp 16 +
STACK CFI 3ef5 $rbx: .cfa -24 + ^ .cfa: $rsp 24 +
STACK CFI 3ef9 .cfa: $rsp 32 +
STACK CFI 3f91 .cfa: $rsp 24 +
STACK CFI 3f95 .cfa: $rsp 16 +
STACK CFI 3f96 .cfa: $rsp 8 +
STACK CFI 3f97 .cfa: $rsp 32 +
STACK CFI INIT 3fc0 34 .cfa: $rsp 8 + .ra: .cfa -8 + ^
STACK CFI 3fcc $rbx: .cfa -16 + ^ .cfa: $rsp 16 +
STACK CFI 3ff3 .cfa: $rsp 8 +
STACK CFI INIT 5ba0 3f0 .cfa: $rsp 8 + .ra: .cfa -8 + ^
STACK CFI 5ba2 $r15: .cfa -16 + ^ .cfa: $rsp 16 +
STACK CFI 5ba7 $r14: .cfa -24 + ^ .cfa: $rsp 24 +
STACK CFI 5ba9 $r13: .cfa -32 + ^ .cfa: $rsp 32 +
STACK CFI 5bab $r12: .cfa -40 + ^ .cfa: $rsp 40 +
STACK CFI 5bac $rbp: .cfa -48 + ^ .cfa: $rsp 48 +
STACK CFI 5bad $rbx: .cfa -56 + ^ .cfa: $rsp 56 +
STACK CFI 5bb4 .cfa: $rsp 96 +
STACK CFI 5c3c .cfa: $rsp 56 +
STACK CFI 5c3d .cfa: $rsp 48 +
STACK CFI 5c3e .cfa: $rsp 40 +
STACK CFI 5c40 .cfa: $rsp 32 +
STACK CFI 5c42 .cfa: $rsp 24 +
STACK CFI 5c44 .cfa: $rsp 16 +
STACK CFI 5c46 .cfa: $rsp 8 +
STACK CFI 5c50 .cfa: $rsp 96 +
STACK CFI 5cc0 .cfa: $rsp 56 +
STACK CFI 5cc7 .cfa: $rsp 48 +
STACK CFI 5cc8 .cfa: $rsp 40 +
STACK CFI 5cca .cfa: $rsp 32 +
STACK CFI 5ccc .cfa: $rsp 24 +
STACK CFI 5cce .cfa: $rsp 16 +
STACK CFI 5cd0 .cfa: $rsp 8 +
STACK CFI 5cd8 .cfa: $rsp 96 +
STACK CFI 5dd8 .cfa: $rsp 56 +
STACK CFI 5dd9 .cfa: $rsp 48 +
STACK CFI 5dda .cfa: $rsp 40 +
STACK CFI 5ddc .cfa: $rsp 32 +
STACK CFI 5dde .cfa: $rsp 24 +
STACK CFI 5de0 .cfa: $rsp 16 +
STACK CFI 5de2 .cfa: $rsp 8 +
STACK CFI 5de8 .cfa: $rsp 96 +
STACK CFI INIT 4000 1b98 .cfa: $rsp 8 + .ra: .cfa -8 + ^
STACK CFI 4002 $r15: .cfa -16 + ^ .cfa: $rsp 16 +
STACK CFI 4007 $r14: .cfa -24 + ^ .cfa: $rsp 24 +
STACK CFI 400c $r13: .cfa -32 + ^ .cfa: $rsp 32 +
STACK CFI 4011 $r12: .cfa -40 + ^ .cfa: $rsp 40 +
STACK CFI 4015 $rbp: .cfa -48 + ^ .cfa: $rsp 48 +
STACK CFI 4016 $rbx: .cfa -56 + ^ .cfa: $rsp 56 +
STACK CFI 4022 .cfa: $rsp 4080 +
STACK CFI 408a .cfa: $rsp 56 +
STACK CFI 408b .cfa: $rsp 48 +
STACK CFI 408c .cfa: $rsp 40 +
STACK CFI 408e .cfa: $rsp 32 +
STACK CFI 4090 .cfa: $rsp 24 +
STACK CFI 4092 .cfa: $rsp 16 +
STACK CFI 4094 .cfa: $rsp 8 +
STACK CFI 4098 .cfa: $rsp 4080 +
STACK CFI INIT 5f90 6 .cfa: $rsp 8 + .ra: .cfa -8 + ^
STACK CFI INIT 19b0 20 .cfa: $rsp 8 + .ra: .cfa -8 + ^
STACK CFI 19b8 .cfa: $rsp 16 +
STACK CFI INIT 5fa0 69 .cfa: $rsp 8 + .ra: .cfa -8 + ^
STACK CFI 5fa2 $r13: .cfa -16 + ^ .cfa: $rsp 16 +
STACK CFI 5faa $r12: .cfa -24 + ^ .cfa: $rsp 24 +
STACK CFI 5fae $rbp: .cfa -32 + ^ .cfa: $rsp 32 +
STACK CFI 5faf $rbx: .cfa -40 + ^ .cfa: $rsp 40 +
STACK CFI 5fb3 .cfa: $rsp 48 +
STACK CFI 6002 .cfa: $rsp 40 +
STACK CFI 6003 .cfa: $rsp 32 +
STACK CFI 6004 .cfa: $rsp 24 +
STACK CFI 6006 .cfa: $rsp 16 +
STACK CFI 6008 .cfa: $rsp 8 +
STACK CFI INIT 6010 12 .cfa: $rsp 8 + .ra: .cfa -8 + ^
STACK CFI 6011 $rbx: .cfa -16 + ^ .cfa: $rsp 16 +
STACK CFI 601d .cfa: $rsp 8 +
STACK CFI INIT 6030 4a .cfa: $rsp 8 + .ra: .cfa -8 + ^
STACK CFI 6031 $rbp: .cfa -16 + ^ .cfa: $rsp 16 +
STACK CFI 6035 $rbx: .cfa -24 + ^ .cfa: $rsp 24 +
STACK CFI 6041 .cfa: $rsp 32 +
STACK CFI 6075 .cfa: $rsp 24 +
STACK CFI 6078 .cfa: $rsp 16 +
STACK CFI 6079 .cfa: $rsp 8 +
STACK CFI INIT 6080 170 .cfa: $rsp 8 + .ra: .cfa -8 + ^
STACK CFI 6082 $r14: .cfa -16 + ^ .cfa: $rsp 16 +
STACK CFI 6084 $r13: .cfa -24 + ^ .cfa: $rsp 24 +
STACK CFI 608d $r12: .cfa -32 + ^ .cfa: $rsp 32 +
STACK CFI 6096 $rbp: .cfa -40 + ^ .cfa: $rsp 40 +
STACK CFI 609a $rbx: .cfa -48 + ^ .cfa: $rsp 48 +
STACK CFI 60ab .cfa: $rsp 4208 +
STACK CFI 60bd .cfa: $rsp 48 +
STACK CFI 60c0 .cfa: $rsp 40 +
STACK CFI 60c1 .cfa: $rsp 32 +
STACK CFI 60c3 .cfa: $rsp 24 +
STACK CFI 60c5 .cfa: $rsp 16 +
STACK CFI 60c7 .cfa: $rsp 8 +
STACK CFI 60d0 .cfa: $rsp 4208 +
STACK CFI INIT 61f0 e6 .cfa: $rsp 8 + .ra: .cfa -8 + ^
STACK CFI 61f2 $r15: .cfa -16 + ^ .cfa: $rsp 16 +
STACK CFI 61f7 $r14: .cfa -24 + ^ .cfa: $rsp 24 +
STACK CFI 61fc $r13: .cfa -32 + ^ .cfa: $rsp 32 +
STACK CFI 6201 $r12: .cfa -40 + ^ .cfa: $rsp 40 +
STACK CFI 6205 $rbp: .cfa -48 + ^ .cfa: $rsp 48 +
STACK CFI 620d $rbx: .cfa -56 + ^ .cfa: $rsp 56 +
STACK CFI 621a .cfa: $rsp 64 +
STACK CFI 624b .cfa: $rsp 56 +
STACK CFI 6252 .cfa: $rsp 48 +
STACK CFI 6253 .cfa: $rsp 40 +
STACK CFI 6255 .cfa: $rsp 32 +
STACK CFI 6257 .cfa: $rsp 24 +
STACK CFI 6259 .cfa: $rsp 16 +
STACK CFI 625b .cfa: $rsp 8 +
STACK CFI 6260 .cfa: $rsp 64 +
STACK CFI 6296 .cfa: $rsp 56 +
STACK CFI 6297 .cfa: $rsp 48 +
STACK CFI 6298 .cfa: $rsp 40 +
STACK CFI 629a .cfa: $rsp 32 +
STACK CFI 629c .cfa: $rsp 24 +
STACK CFI 629e .cfa: $rsp 16 +
STACK CFI 62a0 .cfa: $rsp 8 +
STACK CFI 62a8 .cfa: $rsp 64 +
STACK CFI 62be .cfa: $rsp 56 +
STACK CFI 62c5 .cfa: $rsp 48 +
STACK CFI 62c6 .cfa: $rsp 40 +
STACK CFI 62c8 .cfa: $rsp 32 +
STACK CFI 62cd .cfa: $rsp 24 +
STACK CFI 62cf .cfa: $rsp 16 +
STACK CFI 62d1 .cfa: $rsp 8 +
STACK CFI INIT 62e0 114 .cfa: $rsp 8 + .ra: .cfa -8 + ^
STACK CFI 62e2 $r13: .cfa -16 + ^ .cfa: $rsp 16 +
STACK CFI 62ee $r12: .cfa -24 + ^ .cfa: $rsp 24 +
STACK CFI 62ef $rbp: .cfa -32 + ^ .cfa: $rsp 32 +
STACK CFI 62f0 $rbx: .cfa -40 + ^ .cfa: $rsp 40 +
STACK CFI 62f7 .cfa: $rsp 320 +
STACK CFI 638f .cfa: $rsp 40 +
STACK CFI 6393 .cfa: $rsp 32 +
STACK CFI 6394 .cfa: $rsp 24 +
STACK CFI 6396 .cfa: $rsp 16 +
STACK CFI 6398 .cfa: $rsp 8 +
STACK CFI 63a0 .cfa: $rsp 320 +
STACK CFI 63b7 .cfa: $rsp 40 +
STACK CFI 63b8 .cfa: $rsp 32 +
STACK CFI 63b9 .cfa: $rsp 24 +
STACK CFI 63bb .cfa: $rsp 16 +
STACK CFI 63bd .cfa: $rsp 8 +
STACK CFI 63c0 .cfa: $rsp 320 +
STACK CFI INIT 6400 32 .cfa: $rsp 8 + .ra: .cfa -8 + ^
STACK CFI 6401 $rbx: .cfa -16 + ^ .cfa: $rsp 16 +
STACK CFI 6410 .cfa: $rsp 8 +
STACK CFI 6418 .cfa: $rsp 16 +
STACK CFI 642c .cfa: $rsp 8 +
STACK CFI INIT 6440 46 .cfa: $rsp 8 + .ra: .cfa -8 + ^
STACK CFI INIT 6490 4b .cfa: $rsp 8 + .ra: .cfa -8 + ^
STACK CFI INIT 64e0 73 .cfa: $rsp 8 + .ra: .cfa -8 + ^
STACK CFI 64e2 $r14: .cfa -16 + ^ .cfa: $rsp 16 +
STACK CFI 64e7 $r13: .cfa -24 + ^ .cfa: $rsp 24 +
STACK CFI 64ec $r12: .cfa -32 + ^ .cfa: $rsp 32 +
STACK CFI 64f0 $rbp: .cfa -40 + ^ .cfa: $rsp 40 +
STACK CFI 64f4 $rbx: .cfa -48 + ^ .cfa: $rsp 48 +
STACK CFI 653c .cfa: $rsp 40 +
STACK CFI 653d .cfa: $rsp 32 +
STACK CFI 653f .cfa: $rsp 24 +
STACK CFI 6541 .cfa: $rsp 16 +
STACK CFI 6543 .cfa: $rsp 8 +
STACK CFI 6548 .cfa: $rsp 48 +
STACK CFI 6549 .cfa: $rsp 40 +
STACK CFI 654a .cfa: $rsp 32 +
STACK CFI 654c .cfa: $rsp 24 +
STACK CFI 654e .cfa: $rsp 16 +
STACK CFI 6552 .cfa: $rsp 8 +
STACK CFI INIT 6560 43 .cfa: $rsp 8 + .ra: .cfa -8 + ^
STACK CFI INIT 65b0 1c4 .cfa: $rsp 8 + .ra: .cfa -8 + ^
STACK CFI 65b2 $r15: .cfa -16 + ^ .cfa: $rsp 16 +
STACK CFI 65b4 $r14: .cfa -24 + ^ .cfa: $rsp 24 +
STACK CFI 65b6 $r13: .cfa -32 + ^ .cfa: $rsp 32 +
STACK CFI 65be $r12: .cfa -40 + ^ .cfa: $rsp 40 +
STACK CFI 65c2 $rbp: .cfa -48 + ^ .cfa: $rsp 48 +
STACK CFI 65c6 $rbx: .cfa -56 + ^ .cfa: $rsp 56 +
STACK CFI 65d0 .cfa: $rsp 336 +
STACK CFI 6729 .cfa: $rsp 56 +
STACK CFI 672a .cfa: $rsp 48 +
STACK CFI 672b .cfa: $rsp 40 +
STACK CFI 672d .cfa: $rsp 32 +
STACK CFI 672f .cfa: $rsp 24 +
STACK CFI 6731 .cfa: $rsp 16 +
STACK CFI 6733 .cfa: $rsp 8 +
STACK CFI 6738 .cfa: $rsp 336 +
STACK CFI INIT 6780 1f8 .cfa: $rsp 8 + .ra: .cfa -8 + ^
STACK CFI 6782 $r14: .cfa -16 + ^ .cfa: $rsp 16 +
STACK CFI 6784 $r13: .cfa -24 + ^ .cfa: $rsp 24 +
STACK CFI 6786 $r12: .cfa -32 + ^ .cfa: $rsp 32 +
STACK CFI 6787 $rbp: .cfa -40 + ^ .cfa: $rsp 40 +
STACK CFI 678b $rbx: .cfa -48 + ^ .cfa: $rsp 48 +
STACK CFI 6798 .cfa: $rsp 4992 +
STACK CFI 67ac .cfa: $rsp 48 +
STACK CFI 67af .cfa: $rsp 40 +
STACK CFI 67b0 .cfa: $rsp 32 +
STACK CFI 67b2 .cfa: $rsp 24 +
STACK CFI 67b4 .cfa: $rsp 16 +
STACK CFI 67b6 .cfa: $rsp 8 +
STACK CFI 67c0 .cfa: $rsp 4992 +
STACK CFI INIT 6980 2fe .cfa: $rsp 8 + .ra: .cfa -8 + ^
STACK CFI 6982 $r15: .cfa -16 + ^ .cfa: $rsp 16 +
STACK CFI 6987 $r14: .cfa -24 + ^ .cfa: $rsp 24 +
STACK CFI 698c $r13: .cfa -32 + ^ .cfa: $rsp 32 +
STACK CFI 6991 $r12: .cfa -40 + ^ .cfa: $rsp 40 +
STACK CFI 6992 $rbp: .cfa -48 + ^ .cfa: $rsp 48 +
STACK CFI 6996 $rbx: .cfa -56 + ^ .cfa: $rsp 56 +
STACK CFI 69a0 .cfa: $rsp 4192 +
STACK CFI 69e8 .cfa: $rsp 56 +
STACK CFI 69ec .cfa: $rsp 48 +
STACK CFI 69ed .cfa: $rsp 40 +
STACK CFI 69ef .cfa: $rsp 32 +
STACK CFI 69f1 .cfa: $rsp 24 +
STACK CFI 69f3 .cfa: $rsp 16 +
STACK CFI 69f5 .cfa: $rsp 8 +
STACK CFI 6a00 .cfa: $rsp 4192 +
STACK CFI INIT 7aa0 2a2 .cfa: $rsp 8 + .ra: .cfa -8 + ^
STACK CFI 7aa2 $r15: .cfa -16 + ^ .cfa: $rsp 16 +
STACK CFI 7aa4 $r14: .cfa -24 + ^ .cfa: $rsp 24 +
STACK CFI 7aa6 $r13: .cfa -32 + ^ .cfa: $rsp 32 +
STACK CFI 7aa8 $r12: .cfa -40 + ^ .cfa: $rsp 40 +
STACK CFI 7aa9 $rbp: .cfa -48 + ^ .cfa: $rsp 48 +
STACK CFI 7aaa $rbx: .cfa -56 + ^ .cfa: $rsp 56 +
STACK CFI 7ab1 .cfa: $rsp 80 +
STACK CFI 7afa .cfa: $rsp 56 +
STACK CFI 7afb .cfa: $rsp 48 +
STACK CFI 7afc .cfa: $rsp 40 +
STACK CFI 7afe .cfa: $rsp 32 +
STACK CFI 7b00 .cfa: $rsp 24 +
STACK CFI 7b02 .cfa: $rsp 16 +
STACK CFI 7b04 .cfa: $rsp 8 +
STACK CFI 7b08 .cfa: $rsp 80 +
STACK CFI 7bcd .cfa: $rsp 56 +
STACK CFI 7bce .cfa: $rsp 48 +
STACK CFI 7bcf .cfa: $rsp 40 +
STACK CFI 7bd1 .cfa: $rsp 32 +
STACK CFI 7bd3 .cfa: $rsp 24 +
STACK CFI 7bd5 .cfa: $rsp 16 +
STACK CFI 7bd7 .cfa: $rsp 8 +
STACK CFI 7be0 .cfa: $rsp 80 +
STACK CFI INIT 6c80 5f1 .cfa: $rsp 8 + .ra: .cfa -8 + ^
STACK CFI 6c82 $r15: .cfa -16 + ^ .cfa: $rsp 16 +
STACK CFI 6c8b $r14: .cfa -24 + ^ .cfa: $rsp 24 +
STACK CFI 6c93 $r13: .cfa -32 + ^ .cfa: $rsp 32 +
STACK CFI 6c95 $r12: .cfa -40 + ^ .cfa: $rsp 40 +
STACK CFI 6c96 $rbp: .cfa -48 + ^ .cfa: $rsp 48 +
STACK CFI 6c97 $rbx: .cfa -56 + ^ .cfa: $rsp 56 +
STACK CFI 6ca2 .cfa: $rsp 64 +
STACK CFI 6eed .cfa: $rsp 56 +
STACK CFI 6eee .cfa: $rsp 48 +
STACK CFI 6eef .cfa: $rsp 40 +
STACK CFI 6ef1 .cfa: $rsp 32 +
STACK CFI 6ef3 .cfa: $rsp 24 +
STACK CFI 6ef5 .cfa: $rsp 16 +
STACK CFI 6ef7 .cfa: $rsp 8 +
STACK CFI 6f00 .cfa: $rsp 64 +
STACK CFI 6f14 .cfa: $rsp 56 +
STACK CFI 6f15 .cfa: $rsp 48 +
STACK CFI 6f16 .cfa: $rsp 40 +
STACK CFI 6f18 .cfa: $rsp 32 +
STACK CFI 6f1a .cfa: $rsp 24 +
STACK CFI 6f1c .cfa: $rsp 16 +
STACK CFI 6f1e .cfa: $rsp 8 +
STACK CFI 6f20 .cfa: $rsp 64 +
STACK CFI INIT 7d50 284 .cfa: $rsp 8 + .ra: .cfa -8 + ^
STACK CFI 7d52 $r15: .cfa -16 + ^ .cfa: $rsp 16 +
STACK CFI 7d54 $r14: .cfa -24 + ^ .cfa: $rsp 24 +
STACK CFI 7d56 $r13: .cfa -32 + ^ .cfa: $rsp 32 +
STACK CFI 7d58 $r12: .cfa -40 + ^ .cfa: $rsp 40 +
STACK CFI 7d59 $rbp: .cfa -48 + ^ .cfa: $rsp 48 +
STACK CFI 7d5a $rbx: .cfa -56 + ^ .cfa: $rsp 56 +
STACK CFI 7d61 .cfa: $rsp 80 +
STACK CFI 7da2 .cfa: $rsp 56 +
STACK CFI 7da3 .cfa: $rsp 48 +
STACK CFI 7da4 .cfa: $rsp 40 +
STACK CFI 7da6 .cfa: $rsp 32 +
STACK CFI 7da8 .cfa: $rsp 24 +
STACK CFI 7daa .cfa: $rsp 16 +
STACK CFI 7dac .cfa: $rsp 8 +
STACK CFI 7db0 .cfa: $rsp 80 +
STACK CFI 7e6d .cfa: $rsp 56 +
STACK CFI 7e6e .cfa: $rsp 48 +
STACK CFI 7e6f .cfa: $rsp 40 +
STACK CFI 7e71 .cfa: $rsp 32 +
STACK CFI 7e73 .cfa: $rsp 24 +
STACK CFI 7e75 .cfa: $rsp 16 +
STACK CFI 7e77 .cfa: $rsp 8 +
STACK CFI 7e80 .cfa: $rsp 80 +
STACK CFI INIT 7fe0 219 .cfa: $rsp 8 + .ra: .cfa -8 + ^
STACK CFI 7fe2 $r15: .cfa -16 + ^ .cfa: $rsp 16 +
STACK CFI 7fe4 $r14: .cfa -24 + ^ .cfa: $rsp 24 +
STACK CFI 7fe6 $r13: .cfa -32 + ^ .cfa: $rsp 32 +
STACK CFI 7fe8 $r12: .cfa -40 + ^ .cfa: $rsp 40 +
STACK CFI 7fec $rbp: .cfa -48 + ^ .cfa: $rsp 48 +
STACK CFI 7ff2 $rbx: .cfa -56 + ^ .cfa: $rsp 56 +
STACK CFI 7ff9 .cfa: $rsp 80 +
STACK CFI 8093 .cfa: $rsp 56 +
STACK CFI 8094 .cfa: $rsp 48 +
STACK CFI 8095 .cfa: $rsp 40 +
STACK CFI 8097 .cfa: $rsp 32 +
STACK CFI 8099 .cfa: $rsp 24 +
STACK CFI 809b .cfa: $rsp 16 +
STACK CFI 809d .cfa: $rsp 8 +
STACK CFI 80a0 .cfa: $rsp 80 +
STACK CFI INIT 7280 820 .cfa: $rsp 8 + .ra: .cfa -8 + ^
STACK CFI 7282 $r15: .cfa -16 + ^ .cfa: $rsp 16 +
STACK CFI 728e $r14: .cfa -24 + ^ .cfa: $rsp 24 +
STACK CFI 7290 $r13: .cfa -32 + ^ .cfa: $rsp 32 +
STACK CFI 7292 $r12: .cfa -40 + ^ .cfa: $rsp 40 +
STACK CFI 7293 $rbp: .cfa -48 + ^ .cfa: $rsp 48 +
STACK CFI 7294 $rbx: .cfa -56 + ^ .cfa: $rsp 56 +
STACK CFI 729b .cfa: $rsp 448 +
STACK CFI 7417 .cfa: $rsp 56 +
STACK CFI 7418 .cfa: $rsp 48 +
STACK CFI 7419 .cfa: $rsp 40 +
STACK CFI 741b .cfa: $rsp 32 +
STACK CFI 741d .cfa: $rsp 24 +
STACK CFI 741f .cfa: $rsp 16 +
STACK CFI 7421 .cfa: $rsp 8 +
STACK CFI 7422 .cfa: $rsp 448 +
STACK CFI INIT 8200 3 .cfa: $rsp 8 + .ra: .cfa -8 + ^
STACK CFI INIT 8210 bc .cfa: $rsp 8 + .ra: .cfa -8 + ^
STACK CFI 8212 $r15: .cfa -16 + ^ .cfa: $rsp 16 +
STACK CFI 8214 $r14: .cfa -24 + ^ .cfa: $rsp 24 +
STACK CFI 8216 $r13: .cfa -32 + ^ .cfa: $rsp 32 +
STACK CFI 8218 $r12: .cfa -40 + ^ .cfa: $rsp 40 +
STACK CFI 8219 $rbp: .cfa -48 + ^ .cfa: $rsp 48 +
STACK CFI 821a $rbx: .cfa -56 + ^ .cfa: $rsp 56 +
STACK CFI 8221 .cfa: $rsp 96 +
STACK CFI 82bc .cfa: $rsp 56 +
STACK CFI 82c2 .cfa: $rsp 48 +
STACK CFI 82c3 .cfa: $rsp 40 +
STACK CFI 82c5 .cfa: $rsp 32 +
STACK CFI 82c7 .cfa: $rsp 24 +
STACK CFI 82c9 .cfa: $rsp 16 +
STACK CFI 82cb .cfa: $rsp 8 +
STACK CFI INIT 8f50 13 .cfa: $rsp 8 + .ra: .cfa -8 + ^
STACK CFI INIT 8f70 20 .cfa: $rsp 8 + .ra: .cfa -8 + ^
STACK CFI 8f78 $rbx: .cfa -16 + ^ .cfa: $rsp 16 +
STACK CFI 8f8b .cfa: $rsp 8 +
STACK CFI INIT 82d0 c8 .cfa: $rsp 8 + .ra: .cfa -8 + ^
STACK CFI 82d2 $r15: .cfa -16 + ^ .cfa: $rsp 16 +
STACK CFI 82d4 $r14: .cfa -24 + ^ .cfa: $rsp 24 +
STACK CFI 82d6 $r13: .cfa -32 + ^ .cfa: $rsp 32 +
STACK CFI 82d8 $r12: .cfa -40 + ^ .cfa: $rsp 40 +
STACK CFI 82dc $rbp: .cfa -48 + ^ .cfa: $rsp 48 +
STACK CFI 82e0 $rbx: .cfa -56 + ^ .cfa: $rsp 56 +
STACK CFI 82e4 .cfa: $rsp 80 +
STACK CFI 8313 .cfa: $rsp 56 +
STACK CFI 8316 .cfa: $rsp 48 +
STACK CFI 8317 .cfa: $rsp 40 +
STACK CFI 8319 .cfa: $rsp 32 +
STACK CFI 831b .cfa: $rsp 24 +
STACK CFI 831d .cfa: $rsp 16 +
STACK CFI 831f .cfa: $rsp 8 +
STACK CFI 8320 .cfa: $rsp 80 +
STACK CFI INIT 83a0 520 .cfa: $rsp 8 + .ra: .cfa -8 + ^
STACK CFI 83a2 $r15: .cfa -16 + ^ .cfa: $rsp 16 +
STACK CFI 83a4 $r14: .cfa -24 + ^ .cfa: $rsp 24 +
STACK CFI 83a6 $r13: .cfa -32 + ^ .cfa: $rsp 32 +
STACK CFI 83a8 $r12: .cfa -40 + ^ .cfa: $rsp 40 +
STACK CFI 83a9 $rbp: .cfa -48 + ^ .cfa: $rsp 48 +
STACK CFI 83ad $rbx: .cfa -56 + ^ .cfa: $rsp 56 +
STACK CFI 83b7 .cfa: $rsp 384 +
STACK CFI 85f7 .cfa: $rsp 56 +
STACK CFI 85f8 .cfa: $rsp 48 +
STACK CFI 85f9 .cfa: $rsp 40 +
STACK CFI 85fb .cfa: $rsp 32 +
STACK CFI 85fd .cfa: $rsp 24 +
STACK CFI 85ff .cfa: $rsp 16 +
STACK CFI 8601 .cfa: $rsp 8 +
STACK CFI 8602 .cfa: $rsp 384 +
STACK CFI INIT 88c0 ba .cfa: $rsp 8 + .ra: .cfa -8 + ^
STACK CFI 88c2 $r15: .cfa -16 + ^ .cfa: $rsp 16 +
STACK CFI 88c4 $r14: .cfa -24 + ^ .cfa: $rsp 24 +
STACK CFI 88c9 $r13: .cfa -32 + ^ .cfa: $rsp 32 +
STACK CFI 88cb $r12: .cfa -40 + ^ .cfa: $rsp 40 +
STACK CFI 88cc $rbp: .cfa -48 + ^ .cfa: $rsp 48 +
STACK CFI 88cd $rbx: .cfa -56 + ^ .cfa: $rsp 56 +
STACK CFI 88d1 .cfa: $rsp 64 +
STACK CFI 896f .cfa: $rsp 56 +
STACK CFI 8970 .cfa: $rsp 48 +
STACK CFI 8971 .cfa: $rsp 40 +
STACK CFI 8973 .cfa: $rsp 32 +
STACK CFI 8975 .cfa: $rsp 24 +
STACK CFI 8977 .cfa: $rsp 16 +
STACK CFI 8979 .cfa: $rsp 8 +
STACK CFI INIT 8980 27 .cfa: $rsp 8 + .ra: .cfa -8 + ^
STACK CFI 8981 $rbx: .cfa -16 + ^ .cfa: $rsp 16 +
STACK CFI 89a6 .cfa: $rsp 8 +
STACK CFI INIT 8f90 2a2 .cfa: $rsp 8 + .ra: .cfa -8 + ^
STACK CFI 8f92 $r15: .cfa -16 + ^ .cfa: $rsp 16 +
STACK CFI 8f94 $r14: .cfa -24 + ^ .cfa: $rsp 24 +
STACK CFI 8f96 $r13: .cfa -32 + ^ .cfa: $rsp 32 +
STACK CFI 8f98 $r12: .cfa -40 + ^ .cfa: $rsp 40 +
STACK CFI 8f99 $rbp: .cfa -48 + ^ .cfa: $rsp 48 +
STACK CFI 8f9a $rbx: .cfa -56 + ^ .cfa: $rsp 56 +
STACK CFI 8fa1 .cfa: $rsp 80 +
STACK CFI 8fe9 .cfa: $rsp 56 +
STACK CFI 8fea .cfa: $rsp 48 +
STACK CFI 8feb .cfa: $rsp 40 +
STACK CFI 8fed .cfa: $rsp 32 +
STACK CFI 8fef .cfa: $rsp 24 +
STACK CFI 8ff1 .cfa: $rsp 16 +
STACK CFI 8ff3 .cfa: $rsp 8 +
STACK CFI 8ff8 .cfa: $rsp 80 +
STACK CFI 90bc .cfa: $rsp 56 +
STACK CFI 90bd .cfa: $rsp 48 +
STACK CFI 90be .cfa: $rsp 40 +
STACK CFI 90c0 .cfa: $rsp 32 +
STACK CFI 90c2 .cfa: $rsp 24 +
STACK CFI 90c4 .cfa: $rsp 16 +
STACK CFI 90c6 .cfa: $rsp 8 +
STACK CFI 90d0 .cfa: $rsp 80 +
STACK CFI INIT 89b0 251 .cfa: $rsp 8 + .ra: .cfa -8 + ^
STACK CFI 89b2 $r15: .cfa -16 + ^ .cfa: $rsp 16 +
STACK CFI 89b4 $r14: .cfa -24 + ^ .cfa: $rsp 24 +
STACK CFI 89b9 $r13: .cfa -32 + ^ .cfa: $rsp 32 +
STACK CFI 89bb $r12: .cfa -40 + ^ .cfa: $rsp 40 +
STACK CFI 89bc $rbp: .cfa -48 + ^ .cfa: $rsp 48 +
STACK CFI 89bd $rbx: .cfa -56 + ^ .cfa: $rsp 56 +
STACK CFI 89c4 .cfa: $rsp 304 +
STACK CFI 8b25 .cfa: $rsp 56 +
STACK CFI 8b26 .cfa: $rsp 48 +
STACK CFI 8b27 .cfa: $rsp 40 +
STACK CFI 8b29 .cfa: $rsp 32 +
STACK CFI 8b2b .cfa: $rsp 24 +
STACK CFI 8b2d .cfa: $rsp 16 +
STACK CFI 8b2f .cfa: $rsp 8 +
STACK CFI 8b30 .cfa: $rsp 304 +
STACK CFI INIT 9240 21a .cfa: $rsp 8 + .ra: .cfa -8 + ^
STACK CFI 9242 $r15: .cfa -16 + ^ .cfa: $rsp 16 +
STACK CFI 9244 $r14: .cfa -24 + ^ .cfa: $rsp 24 +
STACK CFI 9246 $r13: .cfa -32 + ^ .cfa: $rsp 32 +
STACK CFI 9248 $r12: .cfa -40 + ^ .cfa: $rsp 40 +
STACK CFI 924c $rbp: .cfa -48 + ^ .cfa: $rsp 48 +
STACK CFI 9252 $rbx: .cfa -56 + ^ .cfa: $rsp 56 +
STACK CFI 9259 .cfa: $rsp 80 +
STACK CFI 92e9 .cfa: $rsp 56 +
STACK CFI 92ea .cfa: $rsp 48 +
STACK CFI 92eb .cfa: $rsp 40 +
STACK CFI 92ed .cfa: $rsp 32 +
STACK CFI 92ef .cfa: $rsp 24 +
STACK CFI 92f1 .cfa: $rsp 16 +
STACK CFI 92f3 .cfa: $rsp 8 +
STACK CFI 92f8 .cfa: $rsp 80 +
STACK CFI INIT 8c10 340 .cfa: $rsp 8 + .ra: .cfa -8 + ^
STACK CFI 8c12 $r15: .cfa -16 + ^ .cfa: $rsp 16 +
STACK CFI 8c1b $r14: .cfa -24 + ^ .cfa: $rsp 24 +
STACK CFI 8c1d $r13: .cfa -32 + ^ .cfa: $rsp 32 +
STACK CFI 8c1f $r12: .cfa -40 + ^ .cfa: $rsp 40 +
STACK CFI 8c20 $rbp: .cfa -48 + ^ .cfa: $rsp 48 +
STACK CFI 8c21 $rbx: .cfa -56 + ^ .cfa: $rsp 56 +
STACK CFI 8c2b .cfa: $rsp 368 +
STACK CFI 8d54 .cfa: $rsp 56 +
STACK CFI 8d57 .cfa: $rsp 48 +
STACK CFI 8d58 .cfa: $rsp 40 +
STACK CFI 8d5a .cfa: $rsp 32 +
STACK CFI 8d5c .cfa: $rsp 24 +
STACK CFI 8d5e .cfa: $rsp 16 +
STACK CFI 8d60 .cfa: $rsp 8 +
STACK CFI 8d68 .cfa: $rsp 368 +
STACK CFI INIT 9460 3a .cfa: $rsp 8 + .ra: .cfa -8 + ^
STACK CFI 9461 $rbp: .cfa -16 + ^ .cfa: $rsp 16 +
STACK CFI 9466 $rbx: .cfa -24 + ^ .cfa: $rsp 24 +
STACK CFI 946d .cfa: $rsp 32 +
STACK CFI 9480 .cfa: $rsp 24 +
STACK CFI 9484 .cfa: $rsp 16 +
STACK CFI 9485 .cfa: $rsp 8 +
STACK CFI 9490 .cfa: $rsp 32 +
STACK CFI INIT 19d0 20 .cfa: $rsp 8 + .ra: .cfa -8 + ^
STACK CFI 19d8 .cfa: $rsp 16 +
STACK CFI INIT 19f0 1d .cfa: $rsp 8 + .ra: .cfa -8 + ^
STACK CFI 19f6 .cfa: $rsp 16 +
STACK CFI 19fb .cfa: $rsp 8 +
STACK CFI INIT 1a0e 20 .cfa: $rsp 8 + .ra: .cfa -8 + ^
STACK CFI 1a16 .cfa: $rsp 16 +
STACK CFI INIT 1a2e 20 .cfa: $rsp 8 + .ra: .cfa -8 + ^
STACK CFI 1a36 .cfa: $rsp 16 +
STACK CFI INIT d7c0 147 .cfa: $rsp 8 + .ra: .cfa -8 + ^
STACK CFI d7c2 $r15: .cfa -16 + ^ .cfa: $rsp 16 +
STACK CFI d7c4 $r14: .cfa -24 + ^ .cfa: $rsp 24 +
STACK CFI d7c6 $r13: .cfa -32 + ^ .cfa: $rsp 32 +
STACK CFI d7c8 $r12: .cfa -40 + ^ .cfa: $rsp 40 +
STACK CFI d7c9 $rbp: .cfa -48 + ^ .cfa: $rsp 48 +
STACK CFI d7cd $rbx: .cfa -56 + ^ .cfa: $rsp 56 +
STACK CFI d7d1 .cfa: $rsp 64 +
STACK CFI d80f .cfa: $rsp 56 +
STACK CFI d810 .cfa: $rsp 48 +
STACK CFI d811 .cfa: $rsp 40 +
STACK CFI d813 .cfa: $rsp 32 +
STACK CFI d815 .cfa: $rsp 24 +
STACK CFI d817 .cfa: $rsp 16 +
STACK CFI d819 .cfa: $rsp 8 +
STACK CFI d820 .cfa: $rsp 64 +
STACK CFI d871 .cfa: $rsp 56 +
STACK CFI d874 .cfa: $rsp 48 +
STACK CFI d875 .cfa: $rsp 40 +
STACK CFI d877 .cfa: $rsp 32 +
STACK CFI d879 .cfa: $rsp 24 +
STACK CFI d87b .cfa: $rsp 16 +
STACK CFI d87d .cfa: $rsp 8 +
STACK CFI d880 .cfa: $rsp 64 +
STACK CFI d8d1 .cfa: $rsp 56 +
STACK CFI d8d7 .cfa: $rsp 48 +
STACK CFI d8d8 .cfa: $rsp 40 +
STACK CFI d8da .cfa: $rsp 32 +
STACK CFI d8dc .cfa: $rsp 24 +
STACK CFI d8de .cfa: $rsp 16 +
STACK CFI d8e0 .cfa: $rsp 8 +
STACK CFI d8e8 .cfa: $rsp 64 +
STACK CFI d8fc .cfa: $rsp 56 +
STACK CFI d8fd .cfa: $rsp 48 +
STACK CFI d8fe .cfa: $rsp 40 +
STACK CFI d900 .cfa: $rsp 32 +
STACK CFI d902 .cfa: $rsp 24 +
STACK CFI d904 .cfa: $rsp 16 +
STACK CFI d906 .cfa: $rsp 8 +
STACK CFI INIT 1a4e 1cb .cfa: $rsp 8 + .ra: .cfa -8 + ^
STACK CFI 1a50 $r15: .cfa -16 + ^ .cfa: $rsp 16 +
STACK CFI 1a52 $r14: .cfa -24 + ^ .cfa: $rsp 24 +
STACK CFI 1a54 $r13: .cfa -32 + ^ .cfa: $rsp 32 +
STACK CFI 1a61 $r12: .cfa -40 + ^ .cfa: $rsp 40 +
STACK CFI 1a64 $rbp: .cfa -48 + ^ .cfa: $rsp 48 +
STACK CFI 1a65 $rbx: .cfa -56 + ^ .cfa: $rsp 56 +
STACK CFI 1a69 .cfa: $rsp 112 +
STACK CFI 1c0c .cfa: $rsp 56 +
STACK CFI 1c0f .cfa: $rsp 48 +
STACK CFI 1c10 .cfa: $rsp 40 +
STACK CFI 1c12 .cfa: $rsp 32 +
STACK CFI 1c14 .cfa: $rsp 24 +
STACK CFI 1c16 .cfa: $rsp 16 +
STACK CFI 1c18 .cfa: $rsp 8 +
STACK CFI INIT 1c1a 3d .cfa: $rsp 8 + .ra: .cfa -8 + ^
STACK CFI 1c1c $r12: .cfa -16 + ^ .cfa: $rsp 16 +
STACK CFI 1c20 $rbp: .cfa -24 + ^ .cfa: $rsp 24 +
STACK CFI 1c21 $rbx: .cfa -32 + ^ .cfa: $rsp 32 +
STACK CFI 1c2b .cfa: $rsp 288 +
STACK CFI 1c52 .cfa: $rsp 32 +
STACK CFI 1c53 .cfa: $rsp 24 +
STACK CFI 1c54 .cfa: $rsp 16 +
STACK CFI 1c56 .cfa: $rsp 8 +
STACK CFI INIT d910 22 .cfa: $rsp 8 + .ra: .cfa -8 + ^
STACK CFI INIT d940 22 .cfa: $rsp 8 + .ra: .cfa -8 + ^
STACK CFI INIT d970 22 .cfa: $rsp 8 + .ra: .cfa -8 + ^
STACK CFI INIT d9a0 22 .cfa: $rsp 8 + .ra: .cfa -8 + ^
STACK CFI INIT d9d0 231 .cfa: $rsp 8 + .ra: .cfa -8 + ^
STACK CFI d9d2 $r15: .cfa -16 + ^ .cfa: $rsp 16 +
STACK CFI d9d4 $r14: .cfa -24 + ^ .cfa: $rsp 24 +
STACK CFI d9d6 $r13: .cfa -32 + ^ .cfa: $rsp 32 +
STACK CFI d9db $r12: .cfa -40 + ^ .cfa: $rsp 40 +
STACK CFI d9dc $rbp: .cfa -48 + ^ .cfa: $rsp 48 +
STACK CFI d9e2 $rbx: .cfa -56 + ^ .cfa: $rsp 56 +
STACK CFI d9e9 .cfa: $rsp 80 +
STACK CFI da93 .cfa: $rsp 56 +
STACK CFI da94 .cfa: $rsp 48 +
STACK CFI da95 .cfa: $rsp 40 +
STACK CFI da97 .cfa: $rsp 32 +
STACK CFI da99 .cfa: $rsp 24 +
STACK CFI da9b .cfa: $rsp 16 +
STACK CFI da9d .cfa: $rsp 8 +
STACK CFI daa0 .cfa: $rsp 80 +
STACK CFI INIT 94a0 de4 .cfa: $rsp 8 + .ra: .cfa -8 + ^
STACK CFI 94a2 $r15: .cfa -16 + ^ .cfa: $rsp 16 +
STACK CFI 94a4 $r14: .cfa -24 + ^ .cfa: $rsp 24 +
STACK CFI 94a6 $r13: .cfa -32 + ^ .cfa: $rsp 32 +
STACK CFI 94ab $r12: .cfa -40 + ^ .cfa: $rsp 40 +
STACK CFI 94ac $rbp: .cfa -48 + ^ .cfa: $rsp 48 +
STACK CFI 94ad $rbx: .cfa -56 + ^ .cfa: $rsp 56 +
STACK CFI 94b4 .cfa: $rsp 2368 +
STACK CFI 982e .cfa: $rsp 56 +
STACK CFI 982f .cfa: $rsp 48 +
STACK CFI 9830 .cfa: $rsp 40 +
STACK CFI 9832 .cfa: $rsp 32 +
STACK CFI 9834 .cfa: $rsp 24 +
STACK CFI 9836 .cfa: $rsp 16 +
STACK CFI 9838 .cfa: $rsp 8 +
STACK CFI 9840 .cfa: $rsp 2368 +
STACK CFI INIT dc10 1df .cfa: $rsp 8 + .ra: .cfa -8 + ^
STACK CFI dc12 $r15: .cfa -16 + ^ .cfa: $rsp 16 +
STACK CFI dc14 $r14: .cfa -24 + ^ .cfa: $rsp 24 +
STACK CFI dc16 $r13: .cfa -32 + ^ .cfa: $rsp 32 +
STACK CFI dc18 $r12: .cfa -40 + ^ .cfa: $rsp 40 +
STACK CFI dc1c $rbp: .cfa -48 + ^ .cfa: $rsp 48 +
STACK CFI dc1d $rbx: .cfa -56 + ^ .cfa: $rsp 56 +
STACK CFI dc24 .cfa: $rsp 96 +
STACK CFI dc38 .cfa: $rsp 56 +
STACK CFI dc39 .cfa: $rsp 48 +
STACK CFI dc3a .cfa: $rsp 40 +
STACK CFI dc3c .cfa: $rsp 32 +
STACK CFI dc3e .cfa: $rsp 24 +
STACK CFI dc40 .cfa: $rsp 16 +
STACK CFI dc42 .cfa: $rsp 8 +
STACK CFI dc48 .cfa: $rsp 96 +
STACK CFI dca9 .cfa: $rsp 56 +
STACK CFI dcaa .cfa: $rsp 48 +
STACK CFI dcab .cfa: $rsp 40 +
STACK CFI dcad .cfa: $rsp 32 +
STACK CFI dcaf .cfa: $rsp 24 +
STACK CFI dcb1 .cfa: $rsp 16 +
STACK CFI dcb3 .cfa: $rsp 8 +
STACK CFI dcb8 .cfa: $rsp 96 +
STACK CFI INIT ddf0 244 .cfa: $rsp 8 + .ra: .cfa -8 + ^
STACK CFI ddf2 $r15: .cfa -16 + ^ .cfa: $rsp 16 +
STACK CFI ddf4 $r14: .cfa -24 + ^ .cfa: $rsp 24 +
STACK CFI ddf6 $r13: .cfa -32 + ^ .cfa: $rsp 32 +
STACK CFI ddf8 $r12: .cfa -40 + ^ .cfa: $rsp 40 +
STACK CFI ddf9 $rbp: .cfa -48 + ^ .cfa: $rsp 48 +
STACK CFI ddfa $rbx: .cfa -56 + ^ .cfa: $rsp 56 +
STACK CFI de01 .cfa: $rsp 80 +
STACK CFI de39 .cfa: $rsp 56 +
STACK CFI de3a .cfa: $rsp 48 +
STACK CFI de3b .cfa: $rsp 40 +
STACK CFI de3d .cfa: $rsp 32 +
STACK CFI de3f .cfa: $rsp 24 +
STACK CFI de41 .cfa: $rsp 16 +
STACK CFI de43 .cfa: $rsp 8 +
STACK CFI de48 .cfa: $rsp 80 +
STACK CFI dee4 .cfa: $rsp 56 +
STACK CFI dee5 .cfa: $rsp 48 +
STACK CFI dee6 .cfa: $rsp 40 +
STACK CFI dee8 .cfa: $rsp 32 +
STACK CFI deea .cfa: $rsp 24 +
STACK CFI deec .cfa: $rsp 16 +
STACK CFI deee .cfa: $rsp 8 +
STACK CFI def0 .cfa: $rsp 80 +
STACK CFI INIT a290 21a5 .cfa: $rsp 8 + .ra: .cfa -8 + ^
STACK CFI a292 $r15: .cfa -16 + ^ .cfa: $rsp 16 +
STACK CFI a2a0 $r14: .cfa -24 + ^ .cfa: $rsp 24 +
STACK CFI a2a5 $r13: .cfa -32 + ^ .cfa: $rsp 32 +
STACK CFI a2a7 $r12: .cfa -40 + ^ .cfa: $rsp 40 +
STACK CFI a2a8 $rbp: .cfa -48 + ^ .cfa: $rsp 48 +
STACK CFI a2a9 $rbx: .cfa -56 + ^ .cfa: $rsp 56 +
STACK CFI a2b0 .cfa: $rsp 3344 +
STACK CFI a3f8 .cfa: $rsp 56 +
STACK CFI a3f9 .cfa: $rsp 48 +
STACK CFI a3fa .cfa: $rsp 40 +
STACK CFI a3fc .cfa: $rsp 32 +
STACK CFI a3fe .cfa: $rsp 24 +
STACK CFI a400 .cfa: $rsp 16 +
STACK CFI a402 .cfa: $rsp 8 +
STACK CFI a408 .cfa: $rsp 3344 +
STACK CFI INIT c440 550 .cfa: $rsp 8 + .ra: .cfa -8 + ^
STACK CFI c442 $r15: .cfa -16 + ^ .cfa: $rsp 16 +
STACK CFI c447 $r14: .cfa -24 + ^ .cfa: $rsp 24 +
STACK CFI c44e $r13: .cfa -32 + ^ .cfa: $rsp 32 +
STACK CFI c450 $r12: .cfa -40 + ^ .cfa: $rsp 40 +
STACK CFI c451 $rbp: .cfa -48 + ^ .cfa: $rsp 48 +
STACK CFI c455 $rbx: .cfa -56 + ^ .cfa: $rsp 56 +
STACK CFI c45c .cfa: $rsp 528 +
STACK CFI c4c8 .cfa: $rsp 56 +
STACK CFI c4cc .cfa: $rsp 48 +
STACK CFI c4cd .cfa: $rsp 40 +
STACK CFI c4cf .cfa: $rsp 32 +
STACK CFI c4d1 .cfa: $rsp 24 +
STACK CFI c4d3 .cfa: $rsp 16 +
STACK CFI c4d5 .cfa: $rsp 8 +
STACK CFI c4e0 .cfa: $rsp 528 +
STACK CFI INIT c990 f9 .cfa: $rsp 8 + .ra: .cfa -8 + ^
STACK CFI c992 $r13: .cfa -16 + ^ .cfa: $rsp 16 +
STACK CFI c998 $r12: .cfa -24 + ^ .cfa: $rsp 24 +
STACK CFI c999 $rbp: .cfa -32 + ^ .cfa: $rsp 32 +
STACK CFI c99a $rbx: .cfa -40 + ^ .cfa: $rsp 40 +
STACK CFI c99e .cfa: $rsp 128 +
STACK CFI ca3c .cfa: $rsp 40 +
STACK CFI ca40 .cfa: $rsp 32 +
STACK CFI ca41 .cfa: $rsp 24 +
STACK CFI ca43 .cfa: $rsp 16 +
STACK CFI ca45 .cfa: $rsp 8 +
STACK CFI ca46 .cfa: $rsp 128 +
STACK CFI INIT ca90 f9 .cfa: $rsp 8 + .ra: .cfa -8 + ^
STACK CFI ca92 $r13: .cfa -16 + ^ .cfa: $rsp 16 +
STACK CFI ca98 $r12: .cfa -24 + ^ .cfa: $rsp 24 +
STACK CFI ca99 $rbp: .cfa -32 + ^ .cfa: $rsp 32 +
STACK CFI ca9a $rbx: .cfa -40 + ^ .cfa: $rsp 40 +
STACK CFI ca9e .cfa: $rsp 128 +
STACK CFI cb3c .cfa: $rsp 40 +
STACK CFI cb40 .cfa: $rsp 32 +
STACK CFI cb41 .cfa: $rsp 24 +
STACK CFI cb43 .cfa: $rsp 16 +
STACK CFI cb45 .cfa: $rsp 8 +
STACK CFI cb46 .cfa: $rsp 128 +
STACK CFI INIT cb90 47 .cfa: $rsp 8 + .ra: .cfa -8 + ^
STACK CFI cb94 .cfa: $rsp 64 +
STACK CFI cbd6 .cfa: $rsp 8 +
STACK CFI INIT cbe0 46 .cfa: $rsp 8 + .ra: .cfa -8 + ^
STACK CFI cbe4 .cfa: $rsp 64 +
STACK CFI cc25 .cfa: $rsp 8 +
STACK CFI INIT cc30 48 .cfa: $rsp 8 + .ra: .cfa -8 + ^
STACK CFI cc34 .cfa: $rsp 64 +
STACK CFI cc77 .cfa: $rsp 8 +
STACK CFI INIT cc80 47 .cfa: $rsp 8 + .ra: .cfa -8 + ^
STACK CFI cc84 .cfa: $rsp 64 +
STACK CFI ccc6 .cfa: $rsp 8 +
STACK CFI INIT ccd0 68c .cfa: $rsp 8 + .ra: .cfa -8 + ^
STACK CFI ccd2 $r15: .cfa -16 + ^ .cfa: $rsp 16 +
STACK CFI ccd7 $r14: .cfa -24 + ^ .cfa: $rsp 24 +
STACK CFI ccd9 $r13: .cfa -32 + ^ .cfa: $rsp 32 +
STACK CFI ccdb $r12: .cfa -40 + ^ .cfa: $rsp 40 +
STACK CFI ccdc $rbp: .cfa -48 + ^ .cfa: $rsp 48 +
STACK CFI ccdd $rbx: .cfa -56 + ^ .cfa: $rsp 56 +
STACK CFI cce6 .cfa: $rsp 544 +
STACK CFI cf06 .cfa: $rsp 56 +
STACK CFI cf09 .cfa: $rsp 48 +
STACK CFI cf0a .cfa: $rsp 40 +
STACK CFI cf0c .cfa: $rsp 32 +
STACK CFI cf0e .cfa: $rsp 24 +
STACK CFI cf10 .cfa: $rsp 16 +
STACK CFI cf12 .cfa: $rsp 8 +
STACK CFI cf13 .cfa: $rsp 544 +
STACK CFI INIT d360 45e .cfa: $rsp 8 + .ra: .cfa -8 + ^
STACK CFI d362 $r15: .cfa -16 + ^ .cfa: $rsp 16 +
STACK CFI d367 $r14: .cfa -24 + ^ .cfa: $rsp 24 +
STACK CFI d369 $r13: .cfa -32 + ^ .cfa: $rsp 32 +
STACK CFI d36b $r12: .cfa -40 + ^ .cfa: $rsp 40 +
STACK CFI d36f $rbp: .cfa -48 + ^ .cfa: $rsp 48 +
STACK CFI d370 $rbx: .cfa -56 + ^ .cfa: $rsp 56 +
STACK CFI d377 .cfa: $rsp 272 +
STACK CFI d4e6 .cfa: $rsp 56 +
STACK CFI d4e9 .cfa: $rsp 48 +
STACK CFI d4ea .cfa: $rsp 40 +
STACK CFI d4ec .cfa: $rsp 32 +
STACK CFI d4ee .cfa: $rsp 24 +
STACK CFI d4f0 .cfa: $rsp 16 +
STACK CFI d4f2 .cfa: $rsp 8 +
STACK CFI d4f8 .cfa: $rsp 272 +
STACK CFI INIT 1c58 20 .cfa: $rsp 8 + .ra: .cfa -8 + ^
STACK CFI 1c60 .cfa: $rsp 16 +
STACK CFI INIT 1c78 20 .cfa: $rsp 8 + .ra: .cfa -8 + ^
STACK CFI 1c80 .cfa: $rsp 16 +
STACK CFI INIT e040 1a .cfa: $rsp 8 + .ra: .cfa -8 + ^
STACK CFI INIT e060 78 .cfa: $rsp 8 + .ra: .cfa -8 + ^
STACK CFI e062 $r12: .cfa -16 + ^ .cfa: $rsp 16 +
STACK CFI e066 $rbp: .cfa -24 + ^ .cfa: $rsp 24 +
STACK CFI e067 $rbx: .cfa -32 + ^ .cfa: $rsp 32 +
STACK CFI e09f .cfa: $rsp 24 +
STACK CFI e0a0 .cfa: $rsp 16 +
STACK CFI e0a2 .cfa: $rsp 8 +
STACK CFI e0a8 .cfa: $rsp 32 +
STACK CFI e0b5 .cfa: $rsp 24 +
STACK CFI e0b6 .cfa: $rsp 16 +
STACK CFI e0b8 .cfa: $rsp 8 +
STACK CFI e0b9 .cfa: $rsp 32 +
STACK CFI INIT e0e0 2c .cfa: $rsp 8 + .ra: .cfa -8 + ^
STACK CFI e0f4 .cfa: $rsp 16 +
STACK CFI INIT e110 5d .cfa: $rsp 8 + .ra: .cfa -8 + ^
STACK CFI e112 $r12: .cfa -16 + ^ .cfa: $rsp 16 +
STACK CFI e113 $rbp: .cfa -24 + ^ .cfa: $rsp 24 +
STACK CFI e119 $rbx: .cfa -32 + ^ .cfa: $rsp 32 +
STACK CFI e155 .cfa: $rsp 24 +
STACK CFI e158 .cfa: $rsp 16 +
STACK CFI e15a .cfa: $rsp 8 +
STACK CFI e160 .cfa: $rsp 32 +
STACK CFI INIT e170 15 .cfa: $rsp 8 + .ra: .cfa -8 + ^
STACK CFI INIT e190 b6 .cfa: $rsp 8 + .ra: .cfa -8 + ^
STACK CFI e192 $r13: .cfa -16 + ^ .cfa: $rsp 16 +
STACK CFI e194 $r12: .cfa -24 + ^ .cfa: $rsp 24 +
STACK CFI e195 $rbp: .cfa -32 + ^ .cfa: $rsp 32 +
STACK CFI e196 $rbx: .cfa -40 + ^ .cfa: $rsp 40 +
STACK CFI e19a .cfa: $rsp 48 +
STACK CFI e1cd .cfa: $rsp 40 +
STACK CFI e1ce .cfa: $rsp 32 +
STACK CFI e1cf .cfa: $rsp 24 +
STACK CFI e1d1 .cfa: $rsp 16 +
STACK CFI e1d3 .cfa: $rsp 8 +
STACK CFI e1d8 .cfa: $rsp 48 +
STACK CFI INIT e250 ff .cfa: $rsp 8 + .ra: .cfa -8 + ^
STACK CFI e251 $rbp: .cfa -16 + ^ .cfa: $rsp 16 +
STACK CFI e255 $rbx: .cfa -24 + ^ .cfa: $rsp 24 +
STACK CFI e259 .cfa: $rsp 32 +
STACK CFI e2db .cfa: $rsp 24 +
STACK CFI e2dc .cfa: $rsp 16 +
STACK CFI e2dd .cfa: $rsp 8 +
STACK CFI e2e0 .cfa: $rsp 32 +
STACK CFI e2ed .cfa: $rsp 24 +
STACK CFI e2f0 .cfa: $rsp 16 +
STACK CFI e2f1 .cfa: $rsp 8 +
STACK CFI e2f2 .cfa: $rsp 32 +
STACK CFI INIT e350 b4 .cfa: $rsp 8 + .ra: .cfa -8 + ^
STACK CFI e352 $r15: .cfa -16 + ^ .cfa: $rsp 16 +
STACK CFI e354 $r14: .cfa -24 + ^ .cfa: $rsp 24 +
STACK CFI e356 $r13: .cfa -32 + ^ .cfa: $rsp 32 +
STACK CFI e358 $r12: .cfa -40 + ^ .cfa: $rsp 40 +
STACK CFI e359 $rbp: .cfa -48 + ^ .cfa: $rsp 48 +
STACK CFI e35a $rbx: .cfa -56 + ^ .cfa: $rsp 56 +
STACK CFI e360 .cfa: $rsp 80 +
STACK CFI e3ed .cfa: $rsp 56 +
STACK CFI e3ee .cfa: $rsp 48 +
STACK CFI e3ef .cfa: $rsp 40 +
STACK CFI e3f1 .cfa: $rsp 32 +
STACK CFI e3f3 .cfa: $rsp 24 +
STACK CFI e3f5 .cfa: $rsp 16 +
STACK CFI e3f7 .cfa: $rsp 8 +
STACK CFI e3f8 .cfa: $rsp 80 +
STACK CFI INIT e410 b5 .cfa: $rsp 8 + .ra: .cfa -8 + ^
STACK CFI e412 $r15: .cfa -16 + ^ .cfa: $rsp 16 +
STACK CFI e414 $r14: .cfa -24 + ^ .cfa: $rsp 24 +
STACK CFI e416 $r13: .cfa -32 + ^ .cfa: $rsp 32 +
STACK CFI e418 $r12: .cfa -40 + ^ .cfa: $rsp 40 +
STACK CFI e419 $rbp: .cfa -48 + ^ .cfa: $rsp 48 +
STACK CFI e41a $rbx: .cfa -56 + ^ .cfa: $rsp 56 +
STACK CFI e420 .cfa: $rsp 80 +
STACK CFI e4ae .cfa: $rsp 56 +
STACK CFI e4af .cfa: $rsp 48 +
STACK CFI e4b0 .cfa: $rsp 40 +
STACK CFI e4b2 .cfa: $rsp 32 +
STACK CFI e4b4 .cfa: $rsp 24 +
STACK CFI e4b6 .cfa: $rsp 16 +
STACK CFI e4b8 .cfa: $rsp 8 +
STACK CFI e4b9 .cfa: $rsp 80 +
STACK CFI INIT e4d0 41 .cfa: $rsp 8 + .ra: .cfa -8 + ^
STACK CFI e4d1 $rbx: .cfa -16 + ^ .cfa: $rsp 16 +
STACK CFI e4f1 .cfa: $rsp 8 +
STACK CFI e4f2 .cfa: $rsp 16 +
STACK CFI INIT e520 88 .cfa: $rsp 8 + .ra: .cfa -8 + ^
STACK CFI e524 .cfa: $rsp 16 +
STACK CFI e547 .cfa: $rsp 8 +
STACK CFI e54c .cfa: $rsp 16 +
STACK CFI INIT e5b0 c1 .cfa: $rsp 8 + .ra: .cfa -8 + ^
STACK CFI e5b2 $r12: .cfa -16 + ^ .cfa: $rsp 16 +
STACK CFI e5b3 $rbp: .cfa -24 + ^ .cfa: $rsp 24 +
STACK CFI e5b7 $rbx: .cfa -32 + ^ .cfa: $rsp 32 +
STACK CFI e5bb .cfa: $rsp 64 +
STACK CFI e5f3 .cfa: $rsp 32 +
STACK CFI e5f6 .cfa: $rsp 24 +
STACK CFI e5f7 .cfa: $rsp 16 +
STACK CFI e5f9 .cfa: $rsp 8 +
STACK CFI e600 .cfa: $rsp 64 +
STACK CFI e62e .cfa: $rsp 32 +
STACK CFI e62f .cfa: $rsp 24 +
STACK CFI e630 .cfa: $rsp 16 +
STACK CFI e632 .cfa: $rsp 8 +
STACK CFI e633 .cfa: $rsp 64 +
STACK CFI INIT e6a0 22 .cfa: $rsp 8 + .ra: .cfa -8 + ^
STACK CFI INIT e6d0 1d9 .cfa: $rsp 8 + .ra: .cfa -8 + ^
STACK CFI e6d2 $r15: .cfa -16 + ^ .cfa: $rsp 16 +
STACK CFI e6d4 $r14: .cfa -24 + ^ .cfa: $rsp 24 +
STACK CFI e6d6 $r13: .cfa -32 + ^ .cfa: $rsp 32 +
STACK CFI e6d8 $r12: .cfa -40 + ^ .cfa: $rsp 40 +
STACK CFI e6d9 $rbp: .cfa -48 + ^ .cfa: $rsp 48 +
STACK CFI e6dd $rbx: .cfa -56 + ^ .cfa: $rsp 56 +
STACK CFI e6e1 .cfa: $rsp 128 +
STACK CFI e7c8 .cfa: $rsp 56 +
STACK CFI e7cb .cfa: $rsp 48 +
STACK CFI e7cc .cfa: $rsp 40 +
STACK CFI e7ce .cfa: $rsp 32 +
STACK CFI e7d0 .cfa: $rsp 24 +
STACK CFI e7d2 .cfa: $rsp 16 +
STACK CFI e7d4 .cfa: $rsp 8 +
STACK CFI e7d8 .cfa: $rsp 128 +
STACK CFI INIT e680 5 .cfa: $rsp 8 + .ra: .cfa -8 + ^
STACK CFI INIT e8b0 1d7 .cfa: $rsp 8 + .ra: .cfa -8 + ^
STACK CFI e8b2 $r15: .cfa -16 + ^ .cfa: $rsp 16 +
STACK CFI e8b4 $r14: .cfa -24 + ^ .cfa: $rsp 24 +
STACK CFI e8b6 $r13: .cfa -32 + ^ .cfa: $rsp 32 +
STACK CFI e8b8 $r12: .cfa -40 + ^ .cfa: $rsp 40 +
STACK CFI e8b9 $rbp: .cfa -48 + ^ .cfa: $rsp 48 +
STACK CFI e8bd $rbx: .cfa -56 + ^ .cfa: $rsp 56 +
STACK CFI e8c1 .cfa: $rsp 128 +
STACK CFI e9a7 .cfa: $rsp 56 +
STACK CFI e9aa .cfa: $rsp 48 +
STACK CFI e9ab .cfa: $rsp 40 +
STACK CFI e9ad .cfa: $rsp 32 +
STACK CFI e9af .cfa: $rsp 24 +
STACK CFI e9b1 .cfa: $rsp 16 +
STACK CFI e9b3 .cfa: $rsp 8 +
STACK CFI e9b8 .cfa: $rsp 128 +
STACK CFI INIT e690 5 .cfa: $rsp 8 + .ra: .cfa -8 + ^
STACK CFI INIT ea90 91 .cfa: $rsp 8 + .ra: .cfa -8 + ^
STACK CFI ea92 $r15: .cfa -16 + ^ .cfa: $rsp 16 +
STACK CFI ea9b $r14: .cfa -24 + ^ .cfa: $rsp 24 +
STACK CFI eaa4 $r13: .cfa -32 + ^ .cfa: $rsp 32 +
STACK CFI eaa6 $r12: .cfa -40 + ^ .cfa: $rsp 40 +
STACK CFI eaa7 $rbp: .cfa -48 + ^ .cfa: $rsp 48 +
STACK CFI eaab $rbx: .cfa -56 + ^ .cfa: $rsp 56 +
STACK CFI eab3 .cfa: $rsp 80 +
STACK CFI eafc .cfa: $rsp 56 +
STACK CFI eafd .cfa: $rsp 48 +
STACK CFI eb00 .cfa: $rsp 40 +
STACK CFI eb02 .cfa: $rsp 32 +
STACK CFI eb04 .cfa: $rsp 24 +
STACK CFI eb06 .cfa: $rsp 16 +
STACK CFI eb08 .cfa: $rsp 8 +
STACK CFI eb10 .cfa: $rsp 80 +
STACK CFI eb14 .cfa: $rsp 56 +
STACK CFI eb17 .cfa: $rsp 48 +
STACK CFI eb18 .cfa: $rsp 40 +
STACK CFI eb1a .cfa: $rsp 32 +
STACK CFI eb1c .cfa: $rsp 24 +
STACK CFI eb1e .cfa: $rsp 16 +
STACK CFI eb20 .cfa: $rsp 8 +
STACK CFI INIT eb30 56 .cfa: $rsp 8 + .ra: .cfa -8 + ^
STACK CFI eb31 $rbx: .cfa -16 + ^ .cfa: $rsp 16 +
STACK CFI eb3d .cfa: $rsp 48 +
STACK CFI eb84 .cfa: $rsp 16 +
STACK CFI eb85 .cfa: $rsp 8 +
STACK CFI INIT eb90 15b .cfa: $rsp 8 + .ra: .cfa -8 + ^
STACK CFI eb92 $r14: .cfa -16 + ^ .cfa: $rsp 16 +
STACK CFI eb94 $r13: .cfa -24 + ^ .cfa: $rsp 24 +
STACK CFI eb96 $r12: .cfa -32 + ^ .cfa: $rsp 32 +
STACK CFI eb9a $rbp: .cfa -40 + ^ .cfa: $rsp 40 +
STACK CFI eb9e $rbx: .cfa -48 + ^ .cfa: $rsp 48 +
STACK CFI eba2 .cfa: $rsp 80 +
STACK CFI ec89 .cfa: $rsp 48 +
STACK CFI ec8d .cfa: $rsp 40 +
STACK CFI ec8e .cfa: $rsp 32 +
STACK CFI ec90 .cfa: $rsp 24 +
STACK CFI ec92 .cfa: $rsp 16 +
STACK CFI ec94 .cfa: $rsp 8 +
STACK CFI ec98 .cfa: $rsp 80 +
STACK CFI INIT eea0 283 .cfa: $rsp 8 + .ra: .cfa -8 + ^
STACK CFI eea2 $r15: .cfa -16 + ^ .cfa: $rsp 16 +
STACK CFI eea4 $r14: .cfa -24 + ^ .cfa: $rsp 24 +
STACK CFI eea6 $r13: .cfa -32 + ^ .cfa: $rsp 32 +
STACK CFI eea8 $r12: .cfa -40 + ^ .cfa: $rsp 40 +
STACK CFI eeac $rbp: .cfa -48 + ^ .cfa: $rsp 48 +
STACK CFI eead $rbx: .cfa -56 + ^ .cfa: $rsp 56 +
STACK CFI eeb1 .cfa: $rsp 80 +
STACK CFI ef48 .cfa: $rsp 56 +
STACK CFI ef49 .cfa: $rsp 48 +
STACK CFI ef4a .cfa: $rsp 40 +
STACK CFI ef4c .cfa: $rsp 32 +
STACK CFI ef4e .cfa: $rsp 24 +
STACK CFI ef50 .cfa: $rsp 16 +
STACK CFI ef52 .cfa: $rsp 8 +
STACK CFI ef58 .cfa: $rsp 80 +
STACK CFI f041 .cfa: $rsp 56 +
STACK CFI f042 .cfa: $rsp 48 +
STACK CFI f043 .cfa: $rsp 40 +
STACK CFI f045 .cfa: $rsp 32 +
STACK CFI f047 .cfa: $rsp 24 +
STACK CFI f049 .cfa: $rsp 16 +
STACK CFI f04b .cfa: $rsp 8 +
STACK CFI f050 .cfa: $rsp 80 +
STACK CFI f0e0 .cfa: $rsp 56 +
STACK CFI f0e1 .cfa: $rsp 48 +
STACK CFI f0e2 .cfa: $rsp 40 +
STACK CFI f0e4 .cfa: $rsp 32 +
STACK CFI f0e6 .cfa: $rsp 24 +
STACK CFI f0e8 .cfa: $rsp 16 +
STACK CFI f0ea .cfa: $rsp 8 +
STACK CFI f0f0 .cfa: $rsp 80 +
STACK CFI INIT f130 151 .cfa: $rsp 8 + .ra: .cfa -8 + ^
STACK CFI f132 $r14: .cfa -16 + ^ .cfa: $rsp 16 +
STACK CFI f137 $r13: .cfa -24 + ^ .cfa: $rsp 24 +
STACK CFI f139 $r12: .cfa -32 + ^ .cfa: $rsp 32 +
STACK CFI f13a $rbp: .cfa -40 + ^ .cfa: $rsp 40 +
STACK CFI f13b $rbx: .cfa -48 + ^ .cfa: $rsp 48 +
STACK CFI f179 .cfa: $rsp 40 +
STACK CFI f17a .cfa: $rsp 32 +
STACK CFI f17c .cfa: $rsp 24 +
STACK CFI f17e .cfa: $rsp 16 +
STACK CFI f180 .cfa: $rsp 8 +
STACK CFI f188 .cfa: $rsp 48 +
STACK CFI f23e .cfa: $rsp 40 +
STACK CFI f23f .cfa: $rsp 32 +
STACK CFI f241 .cfa: $rsp 24 +
STACK CFI f243 .cfa: $rsp 16 +
STACK CFI f245 .cfa: $rsp 8 +
STACK CFI f250 .cfa: $rsp 48 +
STACK CFI INIT ecf0 d3 .cfa: $rsp 8 + .ra: .cfa -8 + ^
STACK CFI ecf2 $r12: .cfa -16 + ^ .cfa: $rsp 16 +
STACK CFI ecf3 $rbp: .cfa -24 + ^ .cfa: $rsp 24 +
STACK CFI ecf7 $rbx: .cfa -32 + ^ .cfa: $rsp 32 +
STACK CFI ecfe .cfa: $rsp 48 +
STACK CFI ed8d .cfa: $rsp 32 +
STACK CFI ed8e .cfa: $rsp 24 +
STACK CFI ed8f .cfa: $rsp 16 +
STACK CFI ed91 .cfa: $rsp 8 +
STACK CFI ed98 .cfa: $rsp 48 +
STACK CFI eda7 .cfa: $rsp 32 +
STACK CFI eda8 .cfa: $rsp 24 +
STACK CFI eda9 .cfa: $rsp 16 +
STACK CFI edab .cfa: $rsp 8 +
STACK CFI edb0 .cfa: $rsp 48 +
STACK CFI INIT edd0 cb .cfa: $rsp 8 + .ra: .cfa -8 + ^
STACK CFI edd2 $r12: .cfa -16 + ^ .cfa: $rsp 16 +
STACK CFI edd3 $rbp: .cfa -24 + ^ .cfa: $rsp 24 +
STACK CFI edd7 $rbx: .cfa -32 + ^ .cfa: $rsp 32 +
STACK CFI edde .cfa: $rsp 48 +
STACK CFI ee6b .cfa: $rsp 32 +
STACK CFI ee6c .cfa: $rsp 24 +
STACK CFI ee6d .cfa: $rsp 16 +
STACK CFI ee6f .cfa: $rsp 8 +
STACK CFI ee70 .cfa: $rsp 48 +
STACK CFI ee7f .cfa: $rsp 32 +
STACK CFI ee80 .cfa: $rsp 24 +
STACK CFI ee81 .cfa: $rsp 16 +
STACK CFI ee83 .cfa: $rsp 8 +
STACK CFI ee88 .cfa: $rsp 48 +
STACK CFI INIT f290 1f .cfa: $rsp 8 + .ra: .cfa -8 + ^
STACK CFI f29b .cfa: $rsp 16 +
STACK CFI f2ae .cfa: $rsp 8 +
STACK CFI INIT f2b0 5 .cfa: $rsp 8 + .ra: .cfa -8 + ^
STACK CFI INIT f2c0 44f .cfa: $rsp 8 + .ra: .cfa -8 + ^
STACK CFI f2c2 $r15: .cfa -16 + ^ .cfa: $rsp 16 +
STACK CFI f2c4 $r14: .cfa -24 + ^ .cfa: $rsp 24 +
STACK CFI f2c6 $r13: .cfa -32 + ^ .cfa: $rsp 32 +
STACK CFI f2c8 $r12: .cfa -40 + ^ .cfa: $rsp 40 +
STACK CFI f2c9 $rbp: .cfa -48 + ^ .cfa: $rsp 48 +
STACK CFI f2ca $rbx: .cfa -56 + ^ .cfa: $rsp 56 +
STACK CFI f2d1 .cfa: $rsp 96 +
STACK CFI f317 .cfa: $rsp 56 +
STACK CFI f31a .cfa: $rsp 48 +
STACK CFI f31b .cfa: $rsp 40 +
STACK CFI f31d .cfa: $rsp 32 +
STACK CFI f31f .cfa: $rsp 24 +
STACK CFI f321 .cfa: $rsp 16 +
STACK CFI f323 .cfa: $rsp 8 +
STACK CFI f328 .cfa: $rsp 96 +
STACK CFI f45e .cfa: $rsp 56 +
STACK CFI f45f .cfa: $rsp 48 +
STACK CFI f460 .cfa: $rsp 40 +
STACK CFI f462 .cfa: $rsp 32 +
STACK CFI f464 .cfa: $rsp 24 +
STACK CFI f466 .cfa: $rsp 16 +
STACK CFI f468 .cfa: $rsp 8 +
STACK CFI f469 .cfa: $rsp 96 +
STACK CFI INIT f710 26f .cfa: $rsp 8 + .ra: .cfa -8 + ^
STACK CFI f712 $r14: .cfa -16 + ^ .cfa: $rsp 16 +
STACK CFI f717 $r13: .cfa -24 + ^ .cfa: $rsp 24 +
STACK CFI f719 $r12: .cfa -32 + ^ .cfa: $rsp 32 +
STACK CFI f71a $rbp: .cfa -40 + ^ .cfa: $rsp 40 +
STACK CFI f71b $rbx: .cfa -48 + ^ .cfa: $rsp 48 +
STACK CFI f75a .cfa: $rsp 40 +
STACK CFI f75b .cfa: $rsp 32 +
STACK CFI f75d .cfa: $rsp 24 +
STACK CFI f75f .cfa: $rsp 16 +
STACK CFI f763 .cfa: $rsp 8 +
STACK CFI f768 .cfa: $rsp 48 +
STACK CFI f806 .cfa: $rsp 40 +
STACK CFI f807 .cfa: $rsp 32 +
STACK CFI f809 .cfa: $rsp 24 +
STACK CFI f80b .cfa: $rsp 16 +
STACK CFI f810 .cfa: $rsp 8 +
STACK CFI f811 .cfa: $rsp 48 +
STACK CFI INIT f980 c5 .cfa: $rsp 8 + .ra: .cfa -8 + ^
STACK CFI f982 $r14: .cfa -16 + ^ .cfa: $rsp 16 +
STACK CFI f987 $r13: .cfa -24 + ^ .cfa: $rsp 24 +
STACK CFI f989 $r12: .cfa -32 + ^ .cfa: $rsp 32 +
STACK CFI f98d $rbp: .cfa -40 + ^ .cfa: $rsp 40 +
STACK CFI f98e $rbx: .cfa -48 + ^ .cfa: $rsp 48 +
STACK CFI f992 .cfa: $rsp 64 +
STACK CFI fa1f .cfa: $rsp 48 +
STACK CFI fa23 .cfa: $rsp 40 +
STACK CFI fa24 .cfa: $rsp 32 +
STACK CFI fa26 .cfa: $rsp 24 +
STACK CFI fa28 .cfa: $rsp 16 +
STACK CFI fa2a .cfa: $rsp 8 +
STACK CFI fa2b .cfa: $rsp 64 +
STACK CFI INIT fa50 13 .cfa: $rsp 8 + .ra: .cfa -8 + ^
STACK CFI fa54 .cfa: $rsp 32 +
STACK CFI fa62 .cfa: $rsp 8 +
STACK CFI INIT fa70 9d .cfa: $rsp 8 + .ra: .cfa -8 + ^
STACK CFI fa71 $rbx: .cfa -16 + ^ .cfa: $rsp 16 +
STACK CFI fa78 .cfa: $rsp 32 +
STACK CFI fae4 .cfa: $rsp 16 +
STACK CFI fae8 .cfa: $rsp 8 +
STACK CFI faf0 .cfa: $rsp 32 +
STACK CFI INIT fb10 1c .cfa: $rsp 8 + .ra: .cfa -8 + ^
STACK CFI fb11 $rbx: .cfa -16 + ^ .cfa: $rsp 16 +
STACK CFI fb2b .cfa: $rsp 8 +
STACK CFI INIT fdc0 256 .cfa: $rsp 8 + .ra: .cfa -8 + ^
STACK CFI fdc2 $r15: .cfa -16 + ^ .cfa: $rsp 16 +
STACK CFI fdc4 $r14: .cfa -24 + ^ .cfa: $rsp 24 +
STACK CFI fdc6 $r13: .cfa -32 + ^ .cfa: $rsp 32 +
STACK CFI fdc8 $r12: .cfa -40 + ^ .cfa: $rsp 40 +
STACK CFI fdc9 $rbp: .cfa -48 + ^ .cfa: $rsp 48 +
STACK CFI fdca $rbx: .cfa -56 + ^ .cfa: $rsp 56 +
STACK CFI fdd1 .cfa: $rsp 80 +
STACK CFI fe09 .cfa: $rsp 56 +
STACK CFI fe0a .cfa: $rsp 48 +
STACK CFI fe0b .cfa: $rsp 40 +
STACK CFI fe0d .cfa: $rsp 32 +
STACK CFI fe0f .cfa: $rsp 24 +
STACK CFI fe11 .cfa: $rsp 16 +
STACK CFI fe13 .cfa: $rsp 8 +
STACK CFI fe18 .cfa: $rsp 80 +
STACK CFI feb4 .cfa: $rsp 56 +
STACK CFI feb5 .cfa: $rsp 48 +
STACK CFI feb6 .cfa: $rsp 40 +
STACK CFI feb8 .cfa: $rsp 32 +
STACK CFI feba .cfa: $rsp 24 +
STACK CFI febc .cfa: $rsp 16 +
STACK CFI febe .cfa: $rsp 8 +
STACK CFI fec0 .cfa: $rsp 80 +
STACK CFI INIT fb30 22c .cfa: $rsp 8 + .ra: .cfa -8 + ^
STACK CFI fb32 $r14: .cfa -16 + ^ .cfa: $rsp 16 +
STACK CFI fb34 $r13: .cfa -24 + ^ .cfa: $rsp 24 +
STACK CFI fb36 $r12: .cfa -32 + ^ .cfa: $rsp 32 +
STACK CFI fb37 $rbp: .cfa -40 + ^ .cfa: $rsp 40 +
STACK CFI fb3b $rbx: .cfa -48 + ^ .cfa: $rsp 48 +
STACK CFI fb47 .cfa: $rsp 96 +
STACK CFI fbeb .cfa: $rsp 48 +
STACK CFI fbec .cfa: $rsp 40 +
STACK CFI fbed .cfa: $rsp 32 +
STACK CFI fbef .cfa: $rsp 24 +
STACK CFI fbf1 .cfa: $rsp 16 +
STACK CFI fbf3 .cfa: $rsp 8 +
STACK CFI fbf8 .cfa: $rsp 96 +
STACK CFI fd3e .cfa: $rsp 48 +
STACK CFI fd3f .cfa: $rsp 40 +
STACK CFI fd40 .cfa: $rsp 32 +
STACK CFI fd42 .cfa: $rsp 24 +
STACK CFI fd44 .cfa: $rsp 16 +
STACK CFI fd46 .cfa: $rsp 8 +
STACK CFI fd47 .cfa: $rsp 96 +
STACK CFI INIT fd60 5f .cfa: $rsp 8 + .ra: .cfa -8 + ^
STACK CFI fd61 $rbp: .cfa -16 + ^ .cfa: $rsp 16 +
STACK CFI fd67 $rbx: .cfa -24 + ^ .cfa: $rsp 24 +
STACK CFI fd6b .cfa: $rsp 64 +
STACK CFI fda1 .cfa: $rsp 24 +
STACK CFI fda2 .cfa: $rsp 16 +
STACK CFI fda3 .cfa: $rsp 8 +
STACK CFI fda8 .cfa: $rsp 64 +
STACK CFI INIT 10150 16 .cfa: $rsp 8 + .ra: .cfa -8 + ^
STACK CFI 10154 .cfa: $rsp 16 +
STACK CFI 1015f .cfa: $rsp 8 +
STACK CFI INIT 10020 73 .cfa: $rsp 8 + .ra: .cfa -8 + ^
STACK CFI 10021 $rbx: .cfa -16 + ^ .cfa: $rsp 16 +
STACK CFI 10092 .cfa: $rsp 8 +
STACK CFI INIT 100a0 ad .cfa: $rsp 8 + .ra: .cfa -8 + ^
STACK CFI 100a1 $rbx: .cfa -16 + ^ .cfa: $rsp 16 +
STACK CFI 100a5 .cfa: $rsp 32 +
STACK CFI 1012a .cfa: $rsp 16 +
STACK CFI 1012d .cfa: $rsp 8 +
STACK CFI 1012e .cfa: $rsp 32 +
STACK CFI INIT 10170 1e .cfa: $rsp 8 + .ra: .cfa -8 + ^
STACK CFI INIT 10190 33 .cfa: $rsp 8 + .ra: .cfa -8 + ^
STACK CFI INIT 101d0 56 .cfa: $rsp 8 + .ra: .cfa -8 + ^
STACK CFI INIT 10230 4c .cfa: $rsp 8 + .ra: .cfa -8 + ^
STACK CFI INIT 10280 36 .cfa: $rsp 8 + .ra: .cfa -8 + ^
STACK CFI INIT 102c0 3a .cfa: $rsp 8 + .ra: .cfa -8 + ^
STACK CFI INIT 10300 2b .cfa: $rsp 8 + .ra: .cfa -8 + ^
STACK CFI INIT 10330 26 .cfa: $rsp 8 + .ra: .cfa -8 + ^
STACK CFI INIT 10360 2b .cfa: $rsp 8 + .ra: .cfa -8 + ^
STACK CFI INIT 10390 64 .cfa: $rsp 8 + .ra: .cfa -8 + ^
STACK CFI INIT 10400 3a .cfa: $rsp 8 + .ra: .cfa -8 + ^
STACK CFI INIT 10440 1f .cfa: $rsp 8 + .ra: .cfa -8 + ^
STACK CFI INIT 10460 38 .cfa: $rsp 8 + .ra: .cfa -8 + ^
STACK CFI INIT 104a0 45 .cfa: $rsp 8 + .ra: .cfa -8 + ^
STACK CFI 104a6 $rbx: .cfa -16 + ^ .cfa: $rsp 16 +
STACK CFI 104c3 $rbx: $rbx .cfa: $rsp 8 +
STACK CFI 104c8 $rbx: .cfa -16 + ^ .cfa: $rsp 16 +
STACK CFI 104dc $rbx: $rbx .cfa: $rsp 8 +
STACK CFI 104e0 $rbx: .cfa -16 + ^ .cfa: $rsp 16 +
STACK CFI 104e4 $rbx: $rbx .cfa: $rsp 8 +
STACK CFI INIT 104f0 46 .cfa: $rsp 8 + .ra: .cfa -8 + ^
STACK CFI INIT 10540 10 .cfa: $rsp 8 + .ra: .cfa -8 + ^
STACK CFI INIT 10550 4b .cfa: $rsp 8 + .ra: .cfa -8 + ^
STACK CFI 10551 $rbp: .cfa -16 + ^ .cfa: $rsp 16 +
STACK CFI 10552 $rbx: .cfa -24 + ^ .cfa: $rsp 24 +
STACK CFI 10559 .cfa: $rsp 32 +
STACK CFI 1058c .cfa: $rsp 24 +
STACK CFI 1058d .cfa: $rsp 16 +
STACK CFI 1058e .cfa: $rsp 8 +
STACK CFI 10590 .cfa: $rsp 32 +
STACK CFI INIT 105a0 5 .cfa: $rsp 8 + .ra: .cfa -8 + ^
STACK CFI INIT 105b0 17f .cfa: $rsp 8 + .ra: .cfa -8 + ^
STACK CFI 105b2 $r15: .cfa -16 + ^ .cfa: $rsp 16 +
STACK CFI 105b4 $r14: .cfa -24 + ^ .cfa: $rsp 24 +
STACK CFI 105b9 $r13: .cfa -32 + ^ .cfa: $rsp 32 +
STACK CFI 105be $r12: .cfa -40 + ^ .cfa: $rsp 40 +
STACK CFI 105c2 $rbp: .cfa -48 + ^ .cfa: $rsp 48 +
STACK CFI 105c5 $rbx: .cfa -56 + ^ .cfa: $rsp 56 +
STACK CFI 105cc .cfa: $rsp 208 +
STACK CFI 106f4 .cfa: $rsp 56 +
STACK CFI 106f7 .cfa: $rsp 48 +
STACK CFI 106f8 .cfa: $rsp 40 +
STACK CFI 106fa .cfa: $rsp 32 +
STACK CFI 106fc .cfa: $rsp 24 +
STACK CFI 106fe .cfa: $rsp 16 +
STACK CFI 10700 .cfa: $rsp 8 +
STACK CFI 10708 .cfa: $rsp 208 +
STACK CFI INIT 10730 14 .cfa: $rsp 8 + .ra: .cfa -8 + ^
STACK CFI INIT 10750 40 .cfa: $rsp 8 + .ra: .cfa -8 + ^
STACK CFI 10756 $rbx: .cfa -16 + ^ .cfa: $rsp 16 +
STACK CFI 10771 .cfa: $rsp 8 +
STACK CFI 10778 .cfa: $rsp 16 +
STACK CFI 1078f .cfa: $rsp 8 +
STACK CFI INIT 109c0 f .cfa: $rsp 8 + .ra: .cfa -8 + ^
STACK CFI INIT 10790 f .cfa: $rsp 8 + .ra: .cfa -8 + ^
STACK CFI INIT 109d0 13 .cfa: $rsp 8 + .ra: .cfa -8 + ^
STACK CFI INIT 107a0 13 .cfa: $rsp 8 + .ra: .cfa -8 + ^
STACK CFI INIT 107c0 1c5 .cfa: $rsp 8 + .ra: .cfa -8 + ^
STACK CFI 107c2 $r15: .cfa -16 + ^ .cfa: $rsp 16 +
STACK CFI 107cb $r14: .cfa -24 + ^ .cfa: $rsp 24 +
STACK CFI 107cd $r13: .cfa -32 + ^ .cfa: $rsp 32 +
STACK CFI 107cf $r12: .cfa -40 + ^ .cfa: $rsp 40 +
STACK CFI 107d0 $rbp: .cfa -48 + ^ .cfa: $rsp 48 +
STACK CFI 107d4 $rbx: .cfa -56 + ^ .cfa: $rsp 56 +
STACK CFI 107db .cfa: $rsp 208 +
STACK CFI 10938 .cfa: $rsp 56 +
STACK CFI 10939 .cfa: $rsp 48 +
STACK CFI 1093a .cfa: $rsp 40 +
STACK CFI 1093c .cfa: $rsp 32 +
STACK CFI 1093e .cfa: $rsp 24 +
STACK CFI 10940 .cfa: $rsp 16 +
STACK CFI 10942 .cfa: $rsp 8 +
STACK CFI 10948 .cfa: $rsp 208 +
STACK CFI INIT 10990 24 .cfa: $rsp 8 + .ra: .cfa -8 + ^
STACK CFI 10993 $rbx: .cfa -16 + ^ .cfa: $rsp 16 +
STACK CFI 109af .cfa: $rsp 8 +
STACK CFI 109b0 .cfa: $rsp 16 +
STACK CFI 109b3 .cfa: $rsp 8 +
STACK CFI INIT 109f0 8 .cfa: $rsp 8 + .ra: .cfa -8 + ^
STACK CFI INIT 10a00 386 .cfa: $rsp 8 + .ra: .cfa -8 + ^
STACK CFI INIT 10d90 43 .cfa: $rsp 8 + .ra: .cfa -8 + ^
STACK CFI 10dbc .cfa: $rsp 16 +
STACK CFI INIT 10de0 46 .cfa: $rsp 8 + .ra: .cfa -8 + ^
STACK CFI 10e0f .cfa: $rsp 16 +
STACK CFI INIT 10e30 8 .cfa: $rsp 8 + .ra: .cfa -8 + ^
STACK CFI INIT 10e40 8 .cfa: $rsp 8 + .ra: .cfa -8 + ^
STACK CFI INIT 10e50 2e6 .cfa: $rsp 8 + .ra: .cfa -8 + ^
STACK CFI INIT 11140 d7 .cfa: $rsp 8 + .ra: .cfa -8 + ^
STACK CFI INIT 11220 105 .cfa: $rsp 8 + .ra: .cfa -8 + ^
STACK CFI 11221 $rbp: .cfa -16 + ^ .cfa: $rsp 16 +
STACK CFI 11225 $rbx: .cfa -24 + ^ .cfa: $rsp 24 +
STACK CFI 112a9 .cfa: $rsp 16 +
STACK CFI 112b0 .cfa: $rsp 8 +
STACK CFI 112b8 .cfa: $rsp 24 +
STACK CFI 11307 .cfa: $rsp 16 +
STACK CFI 11313 .cfa: $rsp 8 +
STACK CFI 11314 .cfa: $rsp 24 +
STACK CFI INIT 11330 e6 .cfa: $rsp 8 + .ra: .cfa -8 + ^
STACK CFI 11341 $r12: .cfa -16 + ^ .cfa: $rsp 16 +
STACK CFI 11342 $rbp: .cfa -24 + ^ .cfa: $rsp 24 +
STACK CFI 11343 $rbx: .cfa -32 + ^ .cfa: $rsp 32 +
STACK CFI 113b9 $rbx: $rbx .cfa: $rsp 24 +
STACK CFI 113ba $rbp: $rbp .cfa: $rsp 16 +
STACK CFI 113c7 $r12: $r12 .cfa: $rsp 8 +
STACK CFI 113d0 $r12: .cfa -16 + ^ $rbp: .cfa -24 + ^ $rbx: .cfa -32 + ^ .cfa: $rsp 32 +
STACK CFI 113db $rbx: $rbx .cfa: $rsp 24 +
STACK CFI 113dc $rbp: $rbp .cfa: $rsp 16 +
STACK CFI 113e9 $r12: $r12 .cfa: $rsp 8 +
STACK CFI 113f0 $r12: .cfa -16 + ^ $rbp: .cfa -24 + ^ $rbx: .cfa -32 + ^ .cfa: $rsp 32 +
STACK CFI 113f1 $rbx: $rbx .cfa: $rsp 24 +
STACK CFI 113f2 $rbp: $rbp .cfa: $rsp 16 +
STACK CFI 113fc $r12: $r12 .cfa: $rsp 8 +
STACK CFI 113fd $r12: .cfa -16 + ^ $rbp: .cfa -24 + ^ $rbx: .cfa -32 + ^ .cfa: $rsp 32 +
STACK CFI 113fe $rbx: $rbx .cfa: $rsp 24 +
STACK CFI 113ff $rbp: $rbp .cfa: $rsp 16 +
STACK CFI 1140c $r12: $r12 .cfa: $rsp 8 +
STACK CFI INIT 11420 1fa .cfa: $rsp 8 + .ra: .cfa -8 + ^
STACK CFI 11422 $r13: .cfa -16 + ^ .cfa: $rsp 16 +
STACK CFI 11427 $r12: .cfa -24 + ^ .cfa: $rsp 24 +
STACK CFI 1142b $rbp: .cfa -32 + ^ .cfa: $rsp 32 +
STACK CFI 1142f $rbx: .cfa -40 + ^ .cfa: $rsp 40 +
STACK CFI 114fe .cfa: $rsp 32 +
STACK CFI 11507 .cfa: $rsp 24 +
STACK CFI 11509 .cfa: $rsp 16 +
STACK CFI 1150b .cfa: $rsp 8 +
STACK CFI 11510 .cfa: $rsp 40 +
STACK CFI 1155a .cfa: $rsp 32 +
STACK CFI 11566 .cfa: $rsp 24 +
STACK CFI 11568 .cfa: $rsp 16 +
STACK CFI 1156a .cfa: $rsp 8 +
STACK CFI 1156b .cfa: $rsp 40 +
STACK CFI 1156c .cfa: $rsp 32 +
STACK CFI 11578 .cfa: $rsp 24 +
STACK CFI 1157a .cfa: $rsp 16 +
STACK CFI 1157c .cfa: $rsp 8 +
STACK CFI 1157d .cfa: $rsp 40 +
STACK CFI 115b1 .cfa: $rsp 32 +
STACK CFI 115c0 .cfa: $rsp 24 +
STACK CFI 115c2 .cfa: $rsp 16 +
STACK CFI 115c4 .cfa: $rsp 8 +
STACK CFI 115c5 .cfa: $rsp 40 +
STACK CFI INIT 11620 2b .cfa: $rsp 8 + .ra: .cfa -8 + ^
STACK CFI INIT 11650 27f .cfa: $rsp 8 + .ra: .cfa -8 + ^
STACK CFI 11652 $r15: .cfa -16 + ^ .cfa: $rsp 16 +
STACK CFI 11654 $r14: .cfa -24 + ^ .cfa: $rsp 24 +
STACK CFI 11656 $r13: .cfa -32 + ^ .cfa: $rsp 32 +
STACK CFI 11658 $r12: .cfa -40 + ^ .cfa: $rsp 40 +
STACK CFI 11659 $rbp: .cfa -48 + ^ .cfa: $rsp 48 +
STACK CFI 1165a $rbx: .cfa -56 + ^ .cfa: $rsp 56 +
STACK CFI 1165e .cfa: $rsp 96 +
STACK CFI 117c4 .cfa: $rsp 56 +
STACK CFI 117c5 .cfa: $rsp 48 +
STACK CFI 117c6 .cfa: $rsp 40 +
STACK CFI 117c8 .cfa: $rsp 32 +
STACK CFI 117ca .cfa: $rsp 24 +
STACK CFI 117cc .cfa: $rsp 16 +
STACK CFI 117ce .cfa: $rsp 8 +
STACK CFI 117d0 .cfa: $rsp 96 +
STACK CFI INIT 118d0 1c3 .cfa: $rsp 8 + .ra: .cfa -8 + ^
STACK CFI 118d2 $r14: .cfa -16 + ^ .cfa: $rsp 16 +
STACK CFI 118d9 $r13: .cfa -24 + ^ .cfa: $rsp 24 +
STACK CFI 118de $r12: .cfa -32 + ^ .cfa: $rsp 32 +
STACK CFI 118df $rbp: .cfa -40 + ^ .cfa: $rsp 40 +
STACK CFI 118e0 $rbx: .cfa -48 + ^ .cfa: $rsp 48 +
STACK CFI 11a1c .cfa: $rsp 40 +
STACK CFI 11a1d .cfa: $rsp 32 +
STACK CFI 11a1f .cfa: $rsp 24 +
STACK CFI 11a21 .cfa: $rsp 16 +
STACK CFI 11a23 .cfa: $rsp 8 +
STACK CFI 11a28 .cfa: $rsp 48 +
STACK CFI 11a4c .cfa: $rsp 40 +
STACK CFI 11a4d .cfa: $rsp 32 +
STACK CFI 11a4f .cfa: $rsp 24 +
STACK CFI 11a51 .cfa: $rsp 16 +
STACK CFI 11a53 .cfa: $rsp 8 +
STACK CFI 11a54 .cfa: $rsp 48 +
STACK CFI 11a6a .cfa: $rsp 40 +
STACK CFI 11a6b .cfa: $rsp 32 +
STACK CFI 11a6d .cfa: $rsp 24 +
STACK CFI 11a6f .cfa: $rsp 16 +
STACK CFI 11a71 .cfa: $rsp 8 +
STACK CFI 11a72 .cfa: $rsp 48 +
STACK CFI INIT 11aa0 2a7 .cfa: $rsp 8 + .ra: .cfa -8 + ^
STACK CFI 11aa2 $r15: .cfa -16 + ^ .cfa: $rsp 16 +
STACK CFI 11aa4 $r14: .cfa -24 + ^ .cfa: $rsp 24 +
STACK CFI 11aa6 $r13: .cfa -32 + ^ .cfa: $rsp 32 +
STACK CFI 11aa8 $r12: .cfa -40 + ^ .cfa: $rsp 40 +
STACK CFI 11aa9 $rbp: .cfa -48 + ^ .cfa: $rsp 48 +
STACK CFI 11aaa $rbx: .cfa -56 + ^ .cfa: $rsp 56 +
STACK CFI 11aae .cfa: $rsp 104 +
STACK CFI 11c4c .cfa: $rsp 56 +
STACK CFI 11c4d .cfa: $rsp 48 +
STACK CFI 11c4e .cfa: $rsp 40 +
STACK CFI 11c50 .cfa: $rsp 32 +
STACK CFI 11c52 .cfa: $rsp 24 +
STACK CFI 11c54 .cfa: $rsp 16 +
STACK CFI 11c56 .cfa: $rsp 8 +
STACK CFI 11c60 .cfa: $rsp 104 +
STACK CFI INIT 11d50 65 .cfa: $rsp 8 + .ra: .cfa -8 + ^
STACK CFI 11d52 $r15: .cfa -16 + ^ .cfa: $rsp 16 +
STACK CFI 11d57 $r14: .cfa -24 + ^ .cfa: $rsp 24 +
STACK CFI 11d5c $r13: .cfa -32 + ^ .cfa: $rsp 32 +
STACK CFI 11d61 $r12: .cfa -40 + ^ .cfa: $rsp 40 +
STACK CFI 11d69 $rbp: .cfa -48 + ^ .cfa: $rsp 48 +
STACK CFI 11d71 $rbx: .cfa -56 + ^ .cfa: $rsp 56 +
STACK CFI 11d7e .cfa: $rsp 64 +
STACK CFI 11daa .cfa: $rsp 56 +
STACK CFI 11dab .cfa: $rsp 48 +
STACK CFI 11dac .cfa: $rsp 40 +
STACK CFI 11dae .cfa: $rsp 32 +
STACK CFI 11db0 .cfa: $rsp 24 +
STACK CFI 11db2 .cfa: $rsp 16 +
STACK CFI 11db4 .cfa: $rsp 8 +
STACK CFI INIT 11dc0 2 .cfa: $rsp 8 + .ra: .cfa -8 + ^
