MODULE windows x86 E7638109039C47A28FAA206CE43475F5a qt_example.pdb
INFO CODE_ID 59456DB833000 qt_example.exe
PUBLIC 1005 0 @ILT+0(??$_Debug_range2@V?$_List_iterator@V?$_List_val@U?$_List_simple_types@UAppMemory@google_breakpad@@@std@@@std@@@std@@@std@@YAXV?$_List_iterator@V?$_List_val@U?$_List_simple_types@UAppMemory@google_breakpad@@@std@@@std@@@0@0PB_WIUinput_iterator_tag@0@@Z)
PUBLIC 100a 0 @ILT+5(?_Myproxy@?$_List_alloc@U?$_List_base_types@UAppMemory@google_breakpad@@V?$allocator@UAppMemory@google_breakpad@@@std@@@std@@@std@@QAEAAPAU_Container_proxy@2@XZ)
PUBLIC 100f 0 @ILT+10(??$_Uninitialized_move@PAPAVExceptionHandler@google_breakpad@@PAPAV12@V?$allocator@PAVExceptionHandler@google_breakpad@@@std@@@std@@YAPAPAVExceptionHandler@google_breakpad@@PAPAV12@00AAU?$_Wrap_alloc@V?$allocator@PAVExceptionHandler@google_breakpad@@@std@@@0@@Z)
PUBLIC 1014 0 @ILT+15(__RTC_NumErrors)
PUBLIC 1019 0 @ILT+20(??$_Debug_pointer@$$CB_W@std@@YAXPB_W0I@Z)
PUBLIC 101e 0 @ILT+25(??0ExceptionHandler@google_breakpad@@QAE@ABV?$basic_string@_WU?$char_traits@_W@std@@V?$allocator@_W@2@@std@@P6A_NPAXPAU_EXCEPTION_POINTERS@@PAUMDRawAssertionInfo@@@ZP6A_NPB_W5123_N@Z1H@Z)
PUBLIC 1023 0 @ILT+30(?allocate@?$allocator@D@std@@QAEPADI@Z)
PUBLIC 1028 0 @ILT+35(?deref@RefCount@QtPrivate@@QAE_NXZ)
PUBLIC 102d 0 @ILT+40(??1bad_alloc@std@@UAE@XZ)
PUBLIC 1032 0 @ILT+45(??8AppMemory@google_breakpad@@QBE_NPBX@Z)
PUBLIC 1037 0 @ILT+50(?_Myfirst@?$_Vector_alloc@U?$_Vec_base_types@_WV?$allocator@_W@std@@@std@@@std@@QBEABQA_WXZ)
PUBLIC 103c 0 @ILT+55(??$_Debug_pointer_if@$$CB_W@std@@YAX_NPB_W1I@Z)
PUBLIC 1041 0 @ILT+60(??$forward@V?$basic_string@_WU?$char_traits@_W@std@@V?$allocator@_W@2@@std@@@std@@YA$$QAV?$basic_string@_WU?$char_traits@_W@std@@V?$allocator@_W@2@@0@AAV10@@Z)
PUBLIC 1046 0 @ILT+65(?deallocate@?$allocator@U_Container_proxy@std@@@std@@QAEXPAU_Container_proxy@2@I@Z)
PUBLIC 104b 0 @ILT+70(?_Orphan_all@?$_Vector_alloc@U?$_Vec_base_types@PAVExceptionHandler@google_breakpad@@V?$allocator@PAVExceptionHandler@google_breakpad@@@std@@@std@@@std@@QAEXXZ)
PUBLIC 1050 0 @ILT+75(__get_startup_argv_mode)
PUBLIC 1055 0 @ILT+80(??0CrashHandler@Breakpad@@AAE@XZ)
PUBLIC 105a 0 @ILT+85(??Y?$_Vector_const_iterator@V?$_Vector_val@U?$_Simple_types@PAVExceptionHandler@google_breakpad@@@std@@@std@@@std@@QAEAAV01@H@Z)
PUBLIC 105f 0 @ILT+90(@_RTC_AllocaHelper@12)
PUBLIC 1064 0 @ILT+95(??$_Umove@PAPAVExceptionHandler@google_breakpad@@@?$vector@PAVExceptionHandler@google_breakpad@@V?$allocator@PAVExceptionHandler@google_breakpad@@@std@@@std@@IAEPAPAVExceptionHandler@google_breakpad@@PAPAV23@00@Z)
PUBLIC 1069 0 @ILT+100(??A?$vector@DV?$allocator@D@std@@@std@@QAEAADI@Z)
PUBLIC 106e 0 @ILT+105(?UnregisterAppMemory@ExceptionHandler@google_breakpad@@QAEXPAX@Z)
PUBLIC 1073 0 @ILT+110(??1?$_Vector_const_iterator@V?$_Vector_val@U?$_Simple_types@PAVExceptionHandler@google_breakpad@@@std@@@std@@@std@@QAE@XZ)
PUBLIC 1078 0 @ILT+115(___acrt_uninitialize)
PUBLIC 107d 0 @ILT+120(?_Nextnode@?$_List_alloc@U?$_List_base_types@UAppMemory@google_breakpad@@V?$allocator@UAppMemory@google_breakpad@@@std@@@std@@@std@@SAAAPAU?$_List_node@UAppMemory@google_breakpad@@PAX@2@PAU32@@Z)
PUBLIC 1082 0 @ILT+125(??0?$_Vector_alloc@U?$_Vec_base_types@_WV?$allocator@_W@std@@@std@@@std@@QAE@XZ)
PUBLIC 1087 0 @ILT+130(?_Getal@?$_Vector_alloc@U?$_Vec_base_types@DV?$allocator@D@std@@@std@@@std@@QAEAAU?$_Wrap_alloc@V?$allocator@D@std@@@2@XZ)
PUBLIC 108c 0 @ILT+135(??1MinidumpCallbackContext@google_breakpad@@QAE@XZ)
PUBLIC 1091 0 @ILT+140(?_Get_second@?$_Compressed_pair@U?$_Wrap_alloc@V?$allocator@U?$_List_node@UAppMemory@google_breakpad@@PAX@std@@@std@@@std@@V?$_List_val@U?$_List_simple_types@UAppMemory@google_breakpad@@@std@@@2@$00@std@@QAEAAV?$_List_val@U?$_List_simple_types@UAppMemory@google_breakpad@@@std@@@2@XZ)
PUBLIC 1096 0 @ILT+145(?_Xlen@?$basic_string@_WU?$char_traits@_W@std@@V?$allocator@_W@2@@std@@QBEXXZ)
PUBLIC 109b 0 @ILT+150(??D?$_Vector_const_iterator@V?$_Vector_val@U?$_Simple_types@PAVExceptionHandler@google_breakpad@@@std@@@std@@@std@@QBEABQAVExceptionHandler@google_breakpad@@XZ)
PUBLIC 10a0 0 @ILT+155(?GetBaseName@WindowsStringUtils@google_breakpad@@SA?AV?$basic_string@_WU?$char_traits@_W@std@@V?$allocator@_W@2@@std@@ABV34@@Z)
PUBLIC 10a5 0 @ILT+160(___acrt_initialize)
PUBLIC 10aa 0 @ILT+165(??0?$vector@PAVExceptionHandler@google_breakpad@@V?$allocator@PAVExceptionHandler@google_breakpad@@@std@@@std@@QAE@XZ)
PUBLIC 10af 0 @ILT+170(___acrt_uninitialize_critical)
PUBLIC 10b4 0 @ILT+175(??$construct@U_Container_proxy@std@@U12@@?$_Wrap_alloc@V?$allocator@U_Container_proxy@std@@@std@@@std@@QAEXPAU_Container_proxy@1@$$QAU21@@Z)
PUBLIC 10b9 0 @ILT+180(??$move@AAU?$_Wrap_alloc@V?$allocator@_W@std@@@std@@@std@@YA$$QAU?$_Wrap_alloc@V?$allocator@_W@std@@@0@AAU10@@Z)
PUBLIC 10be 0 @ILT+185(??3@YAXPAX@Z)
PUBLIC 10c3 0 @ILT+190(?_Get_first@?$_Compressed_pair@U?$_Wrap_alloc@V?$allocator@_W@std@@@std@@V?$_Vector_val@U?$_Simple_types@_W@std@@@2@$00@std@@QAEAAU?$_Wrap_alloc@V?$allocator@_W@std@@@2@XZ)
PUBLIC 10c8 0 @ILT+195(??0?$_Wrap_alloc@V?$allocator@D@std@@@std@@QAE@XZ)
PUBLIC 10cd 0 @ILT+200(??4_Iterator_base12@std@@QAEAAU01@ABU01@@Z)
PUBLIC 10d2 0 @ILT+205(??$_Unchecked@PAPAVExceptionHandler@google_breakpad@@@std@@YAPAPAVExceptionHandler@google_breakpad@@PAPAV12@@Z)
PUBLIC 10d7 0 @ILT+210(??_Ebad_alloc@std@@UAEPAXI@Z)
PUBLIC 10dc 0 @ILT+215(??1_Bxty@?$_String_val@U?$_Simple_types@_W@std@@@std@@QAE@XZ)
PUBLIC 10e1 0 @ILT+220(??0CrashGenerationClient@google_breakpad@@QAE@PAXW4_MINIDUMP_TYPE@@PBUCustomClientInfo@1@@Z)
PUBLIC 10e6 0 @ILT+225(??_GCrashGenerationClient@google_breakpad@@QAEPAXI@Z)
PUBLIC 10eb 0 @ILT+230(??$construct@PADAAPAD@?$_Wrap_alloc@V?$allocator@D@std@@@std@@QAEXPAPADAAPAD@Z)
PUBLIC 10f0 0 @ILT+235(??$addressof@PA_W@std@@YAPAPA_WAAPA_W@Z)
PUBLIC 10f5 0 @ILT+240(?_Inside@?$vector@PAVExceptionHandler@google_breakpad@@V?$allocator@PAVExceptionHandler@google_breakpad@@@std@@@std@@IBE_NPBQAVExceptionHandler@google_breakpad@@@Z)
PUBLIC 10fa 0 @ILT+245(??1?$_Compressed_pair@U?$_Wrap_alloc@V?$allocator@_W@std@@@std@@V?$_String_val@U?$_Simple_types@_W@std@@@2@$00@std@@QAE@XZ)
PUBLIC 10ff 0 @ILT+250(?_Reserve@?$vector@PAVExceptionHandler@google_breakpad@@V?$allocator@PAVExceptionHandler@google_breakpad@@@std@@@std@@IAEXI@Z)
PUBLIC 1104 0 @ILT+255(?_Grow@?$basic_string@DU?$char_traits@D@std@@V?$allocator@D@2@@std@@QAE_NI_N@Z)
PUBLIC 1109 0 @ILT+260(?allocate@?$_Wrap_alloc@V?$allocator@D@std@@@std@@QAEPADI@Z)
PUBLIC 110e 0 @ILT+265(?_Get_data@?$_String_alloc@U?$_String_base_types@_WV?$allocator@_W@std@@@std@@@std@@QBEABV?$_String_val@U?$_Simple_types@_W@std@@@2@XZ)
PUBLIC 1113 0 @ILT+270(??$destroy@PA_W@?$allocator@_W@std@@QAEXPAPA_W@Z)
PUBLIC 1118 0 @ILT+275(?copy@?$char_traits@_W@std@@SAPA_WPA_WPB_WI@Z)
PUBLIC 111d 0 @ILT+280(??0?$_Iterator012@Urandom_access_iterator_tag@std@@PAVExceptionHandler@google_breakpad@@HPBQAV34@ABQAV34@U_Iterator_base12@2@@std@@QAE@ABU01@@Z)
PUBLIC 1122 0 @ILT+285(?deallocate@?$_Wrap_alloc@V?$allocator@U_Container_proxy@std@@@std@@@std@@QAEXPAU_Container_proxy@2@I@Z)
PUBLIC 1127 0 @ILT+290(?_Get_second@?$_Compressed_pair@U?$_Wrap_alloc@V?$allocator@_W@std@@@std@@V?$_String_val@U?$_Simple_types@_W@std@@@2@$00@std@@QBEABV?$_String_val@U?$_Simple_types@_W@std@@@2@XZ)
PUBLIC 112c 0 @ILT+295(?set_dump_path@ExceptionHandler@google_breakpad@@QAEXABV?$basic_string@_WU?$char_traits@_W@std@@V?$allocator@_W@2@@std@@@Z)
PUBLIC 1131 0 @ILT+300(??0?$_Vector_const_iterator@V?$_Vector_val@U?$_Simple_types@PAVExceptionHandler@google_breakpad@@@std@@@std@@@std@@QAE@PAPAVExceptionHandler@google_breakpad@@PBU_Container_base12@1@@Z)
PUBLIC 1136 0 @ILT+305(__crt_debugger_hook)
PUBLIC 113b 0 @ILT+310(??$__crt_fast_encode_pointer@P6GXPAU_RTL_CONDITION_VARIABLE@@@Z@@YAP6GXPAU_RTL_CONDITION_VARIABLE@@@ZQ6GX0@Z@Z)
PUBLIC 1140 0 @ILT+315(?_Get_first@?$_Compressed_pair@U?$_Wrap_alloc@V?$allocator@D@std@@@std@@V?$_String_val@U?$_Simple_types@D@std@@@2@$00@std@@QAEAAU?$_Wrap_alloc@V?$allocator@D@std@@@2@XZ)
PUBLIC 1145 0 @ILT+320(??_GCrashHandlerPrivate@Breakpad@@QAEPAXI@Z)
PUBLIC 114a 0 @ILT+325(??4?$basic_string@_WU?$char_traits@_W@std@@V?$allocator@_W@2@@std@@QAEAAV01@PB_W@Z)
PUBLIC 114f 0 @ILT+330(??0?$_String_const_iterator@V?$_String_val@U?$_Simple_types@_W@std@@@std@@@std@@QAE@ABV01@@Z)
PUBLIC 1154 0 @ILT+335(?back@?$vector@PAVExceptionHandler@google_breakpad@@V?$allocator@PAVExceptionHandler@google_breakpad@@@std@@@std@@QAEAAPAVExceptionHandler@google_breakpad@@XZ)
PUBLIC 1159 0 @ILT+340(??0?$basic_string@_WU?$char_traits@_W@std@@V?$allocator@_W@2@@std@@QAE@PB_W@Z)
PUBLIC 115e 0 @ILT+345(??$?0AAU?$_Wrap_alloc@V?$allocator@D@std@@@std@@@?$_Wrap_alloc@V?$allocator@U_Container_proxy@std@@@std@@@std@@QAE@AAU?$_Wrap_alloc@V?$allocator@D@std@@@1@@Z)
PUBLIC 1163 0 @ILT+350(??D?$_String_iterator@V?$_String_val@U?$_Simple_types@_W@std@@@std@@@std@@QBEAA_WXZ)
PUBLIC 1168 0 @ILT+355(?_Getpnext@_Iterator_base12@std@@QAEPAPAU12@XZ)
PUBLIC 116d 0 @ILT+360(?deallocate@?$_Wrap_alloc@V?$allocator@PAVExceptionHandler@google_breakpad@@@std@@@std@@QAEXPAPAVExceptionHandler@google_breakpad@@I@Z)
PUBLIC 1172 0 @ILT+365(__vswprintf_s_l)
PUBLIC 1177 0 @ILT+370(??3@YAXPAXI@Z)
PUBLIC 117c 0 @ILT+375(?_Myend@?$_Vector_alloc@U?$_Vec_base_types@PAVExceptionHandler@google_breakpad@@V?$allocator@PAVExceptionHandler@google_breakpad@@@std@@@std@@@std@@QAEAAPAPAVExceptionHandler@google_breakpad@@XZ)
PUBLIC 1181 0 @ILT+380(__vsnwprintf_s_l)
PUBLIC 1186 0 @ILT+385(??$atomic@H@?$QAtomicOpsBySize@$03@@CAPAJPAH@Z)
PUBLIC 118b 0 @ILT+390(?select_on_container_copy_construction@?$_Wrap_alloc@V?$allocator@_W@std@@@std@@QBE?AU12@U_Nil@2@@Z)
PUBLIC 1190 0 @ILT+395(?assign@?$basic_string@_WU?$char_traits@_W@std@@V?$allocator@_W@2@@std@@QAEAAV12@PB_W@Z)
PUBLIC 1195 0 @ILT+400(?writeMinidump@CrashHandler@Breakpad@@QAE_NXZ)
PUBLIC 119a 0 @ILT+405(??0CrashHandlerPrivate@Breakpad@@QAE@XZ)
PUBLIC 119f 0 @ILT+410(??0?$vector@_WV?$allocator@_W@std@@@std@@QAE@I@Z)
PUBLIC 11a4 0 @ILT+415(??0_Bxty@?$_String_val@U?$_Simple_types@_W@std@@@std@@QAE@XZ)
PUBLIC 11a9 0 @ILT+420(?_Orphan_all@?$_List_alloc@U?$_List_base_types@UAppMemory@google_breakpad@@V?$allocator@UAppMemory@google_breakpad@@@std@@@std@@@std@@QAEXXZ)
PUBLIC 11ae 0 @ILT+425(__Init_thread_header)
PUBLIC 11b3 0 @ILT+430(?max_size@?$allocator_traits@V?$allocator@PAVExceptionHandler@google_breakpad@@@std@@@std@@SAIABV?$allocator@PAVExceptionHandler@google_breakpad@@@2@@Z)
PUBLIC 11b8 0 @ILT+435(?_Getcont@_Iterator_base12@std@@QBEPBU_Container_base12@2@XZ)
PUBLIC 11bd 0 @ILT+440(??4?$basic_string@_WU?$char_traits@_W@std@@V?$allocator@_W@2@@std@@QAEAAV01@$$QAV01@@Z)
PUBLIC 11c2 0 @ILT+445(__initialize_default_precision)
PUBLIC 11c7 0 @ILT+450(??0?$_Iterator012@Urandom_access_iterator_tag@std@@_WHPB_WAB_WU_Iterator_base12@2@@std@@QAE@ABU01@@Z)
PUBLIC 11cc 0 @ILT+455(_mainCRTStartup)
PUBLIC 11d1 0 @ILT+460(?assign@?$basic_string@_WU?$char_traits@_W@std@@V?$allocator@_W@2@@std@@QAEAAV12@ABV12@II@Z)
PUBLIC 11d6 0 @ILT+465(?deallocate@?$_Wrap_alloc@V?$allocator@_W@std@@@std@@QAEXPA_WI@Z)
PUBLIC 11db 0 @ILT+470(??0_Iterator_base12@std@@QAE@ABU01@@Z)
PUBLIC 11e0 0 @ILT+475(??$?0$$V@?$_Compressed_pair@U?$_Wrap_alloc@V?$allocator@D@std@@@std@@V?$_Vector_val@U?$_Simple_types@D@std@@@2@$00@std@@QAE@U_Zero_then_variadic_args_t@1@@Z)
PUBLIC 11e5 0 @ILT+480(?end@?$basic_string@_WU?$char_traits@_W@std@@V?$allocator@_W@2@@std@@QAE?AV?$_String_iterator@V?$_String_val@U?$_Simple_types@_W@std@@@std@@@2@XZ)
PUBLIC 11ea 0 @ILT+485(??Z?$_Vector_iterator@V?$_Vector_val@U?$_Simple_types@PAVExceptionHandler@google_breakpad@@@std@@@std@@@std@@QAEAAV01@H@Z)
PUBLIC 11ef 0 @ILT+490(_wmemmove)
PUBLIC 11f4 0 @ILT+495(??0?$_Wrap_alloc@V?$allocator@U?$_List_node@UAppMemory@google_breakpad@@PAX@std@@@std@@@std@@QAE@XZ)
PUBLIC 11f9 0 @ILT+500(?_Getal@?$_List_alloc@U?$_List_base_types@UAppMemory@google_breakpad@@V?$allocator@UAppMemory@google_breakpad@@@std@@@std@@@std@@QAEAAU?$_Wrap_alloc@V?$allocator@U?$_List_node@UAppMemory@google_breakpad@@PAX@std@@@std@@@2@XZ)
PUBLIC 11fe 0 @ILT+505(___acrt_initialize)
PUBLIC 1203 0 @ILT+510(??$_Pocma@U?$_Wrap_alloc@V?$allocator@_W@std@@@std@@@std@@YAXAAU?$_Wrap_alloc@V?$allocator@_W@std@@@0@0U?$integral_constant@_N$00@0@@Z)
PUBLIC 1208 0 @ILT+515(??$__crt_fast_decode_pointer@P6GHPAU_RTL_CONDITION_VARIABLE@@PAU_RTL_CRITICAL_SECTION@@K@Z@@YAP6GHPAU_RTL_CONDITION_VARIABLE@@PAU_RTL_CRITICAL_SECTION@@K@ZQ6GH01K@Z@Z)
PUBLIC 120d 0 @ILT+520(??$destroy@PAD@?$_Wrap_alloc@V?$allocator@D@std@@@std@@QAEXPAPAD@Z)
PUBLIC 1212 0 @ILT+525(??$forward@AAPAVExceptionHandler@google_breakpad@@@std@@YAAAPAVExceptionHandler@google_breakpad@@AAPAV12@@Z)
PUBLIC 1217 0 @ILT+530(??0?$_List_iterator@V?$_List_val@U?$_List_simple_types@UAppMemory@google_breakpad@@@std@@@std@@@std@@QAE@ABV01@@Z)
PUBLIC 121c 0 @ILT+535(?_Tidy@?$vector@PAVExceptionHandler@google_breakpad@@V?$allocator@PAVExceptionHandler@google_breakpad@@@std@@@std@@IAEXXZ)
PUBLIC 1221 0 @ILT+540(?_Tidy@?$basic_string@DU?$char_traits@D@std@@V?$allocator@D@2@@std@@QAEX_NI@Z)
PUBLIC 1226 0 @ILT+545(?__empty_global_delete@@YAXPAXI@Z)
PUBLIC 122b 0 @ILT+550(?safe_wcstombs@WindowsStringUtils@google_breakpad@@SA_NABV?$basic_string@_WU?$char_traits@_W@std@@V?$allocator@_W@2@@std@@PAV?$basic_string@DU?$char_traits@D@std@@V?$allocator@D@2@@4@@Z)
PUBLIC 1230 0 @ILT+555(__CRT_RTC_INITW)
PUBLIC 1235 0 @ILT+560(??$_Debug_lt_pred@U?$less@X@std@@AB_KAB_K@std@@YA_N$$QAU?$less@X@0@AB_K1PB_WI@Z)
PUBLIC 123a 0 @ILT+565(??$_Destroy_range1@V?$allocator@_W@std@@PA_W@std@@YAXPA_W0AAU?$_Wrap_alloc@V?$allocator@_W@std@@@0@U?$integral_constant@_N$00@0@@Z)
PUBLIC 123f 0 @ILT+570(??$destroy@U_Container_proxy@std@@@?$allocator_traits@V?$allocator@U_Container_proxy@std@@@std@@@std@@SAXAAV?$allocator@U_Container_proxy@std@@@1@PAU_Container_proxy@1@@Z)
PUBLIC 1244 0 @ILT+575(___scrt_fastfail)
PUBLIC 1249 0 @ILT+580(??$construct@PA_WAAPA_W@?$allocator@_W@std@@QAEXPAPA_WAAPA_W@Z)
PUBLIC 124e 0 @ILT+585(??$?0PAVExceptionHandler@google_breakpad@@@?$allocator@U_Container_proxy@std@@@std@@QAE@ABV?$allocator@PAVExceptionHandler@google_breakpad@@@1@@Z)
PUBLIC 1253 0 @ILT+590(?_Free_proxy@?$_String_alloc@U?$_String_base_types@_WV?$allocator@_W@std@@@std@@@std@@QAEXXZ)
PUBLIC 1258 0 @ILT+595(??$destroy@PAU?$_List_node@UAppMemory@google_breakpad@@PAX@std@@@?$allocator_traits@V?$allocator@U?$_List_node@UAppMemory@google_breakpad@@PAX@std@@@std@@@std@@SAXAAV?$allocator@U?$_List_node@UAppMemory@google_breakpad@@PAX@std@@@1@PAPAU?$_List_node@UAppMemory@google_breakpad@@PAX@1@@Z)
PUBLIC 125d 0 @ILT+600(?_Getal@?$_Vector_alloc@U?$_Vec_base_types@DV?$allocator@D@std@@@std@@@std@@QBEABU?$_Wrap_alloc@V?$allocator@D@std@@@2@XZ)
PUBLIC 1262 0 @ILT+605(?_Getal@?$_List_alloc@U?$_List_base_types@UAppMemory@google_breakpad@@V?$allocator@UAppMemory@google_breakpad@@@std@@@std@@@std@@QBEABU?$_Wrap_alloc@V?$allocator@U?$_List_node@UAppMemory@google_breakpad@@PAX@std@@@std@@@2@XZ)
PUBLIC 1267 0 @ILT+610(?_Move_alloc@?$_String_alloc@U?$_String_base_types@_WV?$allocator@_W@std@@@std@@@std@@QAEXAAU?$_Wrap_alloc@V?$allocator@_W@std@@@2@@Z)
PUBLIC 126c 0 @ILT+615(??0bad_alloc@std@@QAE@XZ)
PUBLIC 1271 0 @ILT+620(??0MinidumpCallbackContext@google_breakpad@@QAE@XZ)
PUBLIC 1276 0 @ILT+625(___scrt_is_ucrt_dll_in_use)
PUBLIC 127b 0 @ILT+630(??$addressof@_W@std@@YAPA_WAA_W@Z)
PUBLIC 1280 0 @ILT+635(??1?$_String_val@U?$_Simple_types@_W@std@@@std@@QAE@XZ)
PUBLIC 1285 0 @ILT+640(?_Myptr@?$_String_alloc@U?$_String_base_types@DV?$allocator@D@std@@@std@@@std@@QAEPADXZ)
PUBLIC 128a 0 @ILT+645(??1bad_array_new_length@std@@UAE@XZ)
PUBLIC 128f 0 @ILT+650(?_RTC_Failure@@YAXPAXH@Z)
PUBLIC 1294 0 @ILT+655(?_Xlen@?$vector@DV?$allocator@D@std@@@std@@IBEXXZ)
PUBLIC 1299 0 @ILT+660(?_Orphan_me@_Iterator_base12@std@@QAEXXZ)
PUBLIC 129e 0 @ILT+665(?InitCrashHandler@CrashHandlerPrivate@Breakpad@@QAEXABVQString@@@Z)
PUBLIC 12a3 0 @ILT+670(??1?$_Vector_iterator@V?$_Vector_val@U?$_Simple_types@PAVExceptionHandler@google_breakpad@@@std@@@std@@@std@@QAE@XZ)
PUBLIC 12a8 0 @ILT+675(??$construct@UAppMemory@google_breakpad@@ABU12@@?$allocator_traits@V?$allocator@U?$_List_node@UAppMemory@google_breakpad@@PAX@std@@@std@@@std@@SAXAAV?$allocator@U?$_List_node@UAppMemory@google_breakpad@@PAX@std@@@1@PAUAppMemory@google_breakpad@@ABU34@@Z)
PUBLIC 12ad 0 @ILT+680(??$__vcrt_va_start_verify_argument_type@QB_W@@YAXXZ)
PUBLIC 12b2 0 @ILT+685(??$_Destroy_range@V?$allocator@PAVExceptionHandler@google_breakpad@@@std@@PAPAVExceptionHandler@google_breakpad@@@std@@YAXPAPAVExceptionHandler@google_breakpad@@0AAU?$_Wrap_alloc@V?$allocator@PAVExceptionHandler@google_breakpad@@@std@@@0@@Z)
PUBLIC 12b7 0 @ILT+690(??$_Rechecked@PAPAVExceptionHandler@google_breakpad@@PAPAV12@@std@@YAAAPAPAVExceptionHandler@google_breakpad@@AAPAPAV12@PAPAV12@@Z)
PUBLIC 12bc 0 @ILT+695(??$_Insert@ABUAppMemory@google_breakpad@@@?$list@UAppMemory@google_breakpad@@V?$allocator@UAppMemory@google_breakpad@@@std@@@std@@QAEXV?$_List_unchecked_const_iterator@V?$_List_val@U?$_List_simple_types@UAppMemory@google_breakpad@@@std@@@std@@U_Iterator_base0@2@@1@ABUAppMemory@google_breakpad@@@Z)
PUBLIC 12c1 0 @ILT+700(_NtCurrentTeb)
PUBLIC 12c6 0 @ILT+705(__get_startup_commit_mode)
PUBLIC 12cb 0 @ILT+710(?_Assign_rv@?$basic_string@_WU?$char_traits@_W@std@@V?$allocator@_W@2@@std@@QAEX$$QAV12@@Z)
PUBLIC 12d0 0 @ILT+715(??$addressof@U_Container_proxy@std@@@std@@YAPAU_Container_proxy@0@AAU10@@Z)
PUBLIC 12d5 0 @ILT+720(??$construct@UAppMemory@google_breakpad@@ABU12@@?$allocator@U?$_List_node@UAppMemory@google_breakpad@@PAX@std@@@std@@QAEXPAUAppMemory@google_breakpad@@ABU23@@Z)
PUBLIC 12da 0 @ILT+725(??0?$_Vector_val@U?$_Simple_types@D@std@@@std@@QAE@XZ)
PUBLIC 12df 0 @ILT+730(??$_Debug_pointer@$$CBD@std@@YAXPBDPB_WI@Z)
PUBLIC 12e4 0 @ILT+735(?ExceptionHandlerThreadMain@ExceptionHandler@google_breakpad@@CGKPAX@Z)
PUBLIC 12e9 0 @ILT+740(___acrt_thread_detach)
PUBLIC 12ee 0 @ILT+745(?RequestDump@CrashGenerationClient@google_breakpad@@QAE_NPAUMDRawAssertionInfo@@@Z)
PUBLIC 12f3 0 @ILT+750(?max_size@?$allocator_traits@V?$allocator@D@std@@@std@@SAIABV?$allocator@D@2@@Z)
PUBLIC 12f8 0 @ILT+755(?_Myproxy@?$_Vector_alloc@U?$_Vec_base_types@DV?$allocator@D@std@@@std@@@std@@QAEAAPAU_Container_proxy@2@XZ)
PUBLIC 12fd 0 @ILT+760(?_Getal@?$_Vector_alloc@U?$_Vec_base_types@_WV?$allocator@_W@std@@@std@@@std@@QAEAAU?$_Wrap_alloc@V?$allocator@_W@std@@@2@XZ)
PUBLIC 1302 0 @ILT+765(?_RTC_AllocaFailure@@YAXPAXPAU_RTC_ALLOCA_NODE@@H@Z)
PUBLIC 1307 0 @ILT+770(?max_size@?$vector@PAVExceptionHandler@google_breakpad@@V?$allocator@PAVExceptionHandler@google_breakpad@@@std@@@std@@QBEIXZ)
PUBLIC 130c 0 @ILT+775(?_Myfirst@?$_Vector_alloc@U?$_Vec_base_types@PAVExceptionHandler@google_breakpad@@V?$allocator@PAVExceptionHandler@google_breakpad@@@std@@@std@@@std@@QAEAAPAPAVExceptionHandler@google_breakpad@@XZ)
PUBLIC 1311 0 @ILT+780(?_Inside@?$basic_string@_WU?$char_traits@_W@std@@V?$allocator@_W@2@@std@@QAE_NPB_W@Z)
PUBLIC 1316 0 @ILT+785(??$?8V?$allocator@_W@std@@V01@@std@@YA_NABU?$_Wrap_alloc@V?$allocator@_W@std@@@0@0@Z)
PUBLIC 131b 0 @ILT+790(?_Alloc_proxy@?$_Vector_alloc@U?$_Vec_base_types@_WV?$allocator@_W@std@@@std@@@std@@QAEXXZ)
PUBLIC 1320 0 @ILT+795(?_Orphan_all@_Container_base12@std@@QAEXXZ)
PUBLIC 1325 0 @ILT+800(?_Get_data@?$_List_alloc@U?$_List_base_types@UAppMemory@google_breakpad@@V?$allocator@UAppMemory@google_breakpad@@@std@@@std@@@std@@QBEABV?$_List_val@U?$_List_simple_types@UAppMemory@google_breakpad@@@std@@@2@XZ)
PUBLIC 132a 0 @ILT+805(??E?$_Vector_const_iterator@V?$_Vector_val@U?$_Simple_types@PAVExceptionHandler@google_breakpad@@@std@@@std@@@std@@QAEAAV01@XZ)
PUBLIC 132f 0 @ILT+810(??$?0AAU?$_Wrap_alloc@V?$allocator@U?$_List_node@UAppMemory@google_breakpad@@PAX@std@@@std@@@std@@@?$_Wrap_alloc@V?$allocator@U_Container_proxy@std@@@std@@@std@@QAE@AAU?$_Wrap_alloc@V?$allocator@U?$_List_node@UAppMemory@google_breakpad@@PAX@std@@@std@@@1@@Z)
PUBLIC 1334 0 @ILT+815(??1exception@std@@UAE@XZ)
PUBLIC 1339 0 @ILT+820(?_Prevnode@?$_List_alloc@U?$_List_base_types@UAppMemory@google_breakpad@@V?$allocator@UAppMemory@google_breakpad@@@std@@@std@@@std@@SAAAPAU?$_List_node@UAppMemory@google_breakpad@@PAX@2@PAU32@@Z)
PUBLIC 133e 0 @ILT+825(?max_size@?$allocator@U?$_List_node@UAppMemory@google_breakpad@@PAX@std@@@std@@QBEIXZ)
PUBLIC 1343 0 @ILT+830(??$?8_W_W@std@@YA_NABV?$allocator@_W@0@0@Z)
PUBLIC 1348 0 @ILT+835(?_Adopt@_Iterator_base12@std@@QAEXPBU_Container_base12@2@@Z)
PUBLIC 134d 0 @ILT+840(??$_Destroy_range@V?$allocator@D@std@@PAD@std@@YAXPAD0AAU?$_Wrap_alloc@V?$allocator@D@std@@@0@@Z)
PUBLIC 1352 0 @ILT+845(___scrt_initialize_winrt)
PUBLIC 1357 0 @ILT+850(?HandlePureVirtualCall@ExceptionHandler@google_breakpad@@CAXXZ)
PUBLIC 135c 0 @ILT+855(?_Get_second@?$_Compressed_pair@U?$_Wrap_alloc@V?$allocator@_W@std@@@std@@V?$_Vector_val@U?$_Simple_types@_W@std@@@2@$00@std@@QAEAAV?$_Vector_val@U?$_Simple_types@_W@std@@@2@XZ)
PUBLIC 1361 0 @ILT+860(??$_Pocca@U?$_Wrap_alloc@V?$allocator@_W@std@@@std@@@std@@YAXAAU?$_Wrap_alloc@V?$allocator@_W@std@@@0@ABU10@U?$integral_constant@_N$0A@@0@@Z)
PUBLIC 1366 0 @ILT+865(?_Tidy@?$basic_string@_WU?$char_traits@_W@std@@V?$allocator@_W@2@@std@@QAEX_NI@Z)
PUBLIC 136b 0 @ILT+870(?_Get_second@?$_Compressed_pair@U?$_Wrap_alloc@V?$allocator@D@std@@@std@@V?$_String_val@U?$_Simple_types@D@std@@@2@$00@std@@QBEABV?$_String_val@U?$_Simple_types@D@std@@@2@XZ)
PUBLIC 1370 0 @ILT+875(??_G?$vector@PAVExceptionHandler@google_breakpad@@V?$allocator@PAVExceptionHandler@google_breakpad@@@std@@@std@@QAEPAXI@Z)
PUBLIC 1375 0 @ILT+880(?ConnectToPipe@CrashGenerationClient@google_breakpad@@AAEPAXPB_WKK@Z)
PUBLIC 137a 0 @ILT+885(??$forward@U?$_Wrap_alloc@V?$allocator@_W@std@@@std@@@std@@YA$$QAU?$_Wrap_alloc@V?$allocator@_W@std@@@0@AAU10@@Z)
PUBLIC 137f 0 @ILT+890(?_Get_first@?$_Compressed_pair@U?$_Wrap_alloc@V?$allocator@D@std@@@std@@V?$_String_val@U?$_Simple_types@D@std@@@2@$00@std@@QBEABU?$_Wrap_alloc@V?$allocator@D@std@@@2@XZ)
PUBLIC 1384 0 @ILT+895(??4?$_Vector_iterator@V?$_Vector_val@U?$_Simple_types@PAVExceptionHandler@google_breakpad@@@std@@@std@@@std@@QAEAAV01@$$QAV01@@Z)
PUBLIC 1389 0 @ILT+900(??$_Move_unchecked@PAPAVExceptionHandler@google_breakpad@@PAPAV12@@std@@YAPAPAVExceptionHandler@google_breakpad@@PAPAV12@00@Z)
PUBLIC 138e 0 @ILT+905(??0bad_alloc@std@@AAE@QBD@Z)
PUBLIC 1393 0 @ILT+910(??Y?$_Vector_iterator@V?$_Vector_val@U?$_Simple_types@PAVExceptionHandler@google_breakpad@@@std@@@std@@@std@@QAEAAV01@H@Z)
PUBLIC 1398 0 @ILT+915(??1?$list@UAppMemory@google_breakpad@@V?$allocator@UAppMemory@google_breakpad@@@std@@@std@@QAE@XZ)
PUBLIC 139d 0 @ILT+920(?_Copy@?$basic_string@DU?$char_traits@D@std@@V?$allocator@D@2@@std@@QAEXII@Z)
PUBLIC 13a2 0 @ILT+925(?release@?$scoped_ptr@VCrashGenerationClient@google_breakpad@@@google_breakpad@@QAEPAVCrashGenerationClient@2@XZ)
PUBLIC 13a7 0 @ILT+930(??4?$_List_unchecked_const_iterator@V?$_List_val@U?$_List_simple_types@UAppMemory@google_breakpad@@@std@@@std@@U_Iterator_base12@2@@std@@QAEAAV01@$$QAV01@@Z)
PUBLIC 13ac 0 @ILT+935(??0?$_List_unchecked_const_iterator@V?$_List_val@U?$_List_simple_types@UAppMemory@google_breakpad@@@std@@@std@@U_Iterator_base12@2@@std@@QAE@ABV01@@Z)
PUBLIC 13b1 0 @ILT+940(??$construct@PAVExceptionHandler@google_breakpad@@ABQAV12@@?$allocator@PAVExceptionHandler@google_breakpad@@@std@@QAEXPAPAVExceptionHandler@google_breakpad@@ABQAV23@@Z)
PUBLIC 13b6 0 @ILT+945(?_Copy@?$basic_string@_WU?$char_traits@_W@std@@V?$allocator@_W@2@@std@@QAEXII@Z)
PUBLIC 13bb 0 @ILT+950(__Init_thread_unlock)
PUBLIC 13c0 0 @ILT+955(??$construct@PAU?$_List_node@UAppMemory@google_breakpad@@PAX@std@@AAPAU12@@?$_Wrap_alloc@V?$allocator@U?$_List_node@UAppMemory@google_breakpad@@PAX@std@@@std@@@std@@QAEXPAPAU?$_List_node@UAppMemory@google_breakpad@@PAX@1@AAPAU21@@Z)
PUBLIC 13c5 0 @ILT+960(___acrt_uninitialize)
PUBLIC 13ca 0 @ILT+965(__get_startup_thread_locale_mode)
PUBLIC 13cf 0 @ILT+970(??$forward@AB_K@std@@YAAB_KAB_K@Z)
PUBLIC 13d4 0 @ILT+975(??$construct@PAVExceptionHandler@google_breakpad@@AAPAV12@@?$allocator@PAVExceptionHandler@google_breakpad@@@std@@QAEXPAPAVExceptionHandler@google_breakpad@@AAPAV23@@Z)
PUBLIC 13d9 0 @ILT+980(?_Myptr@?$_String_val@U?$_Simple_types@D@std@@@std@@QAEPADXZ)
PUBLIC 13de 0 @ILT+985(?assign@?$basic_string@DU?$char_traits@D@std@@V?$allocator@D@2@@std@@QAEAAV12@PBDI@Z)
PUBLIC 13e3 0 @ILT+990(?get_app_type@__scrt_main_policy@@SA?AW4_crt_app_type@@XZ)
PUBLIC 13e8 0 @ILT+995(_atexit)
PUBLIC 13ed 0 @ILT+1000(?assign@?$char_traits@_W@std@@SAXAA_WAB_W@Z)
PUBLIC 13f2 0 @ILT+1005(?_Nextnode@?$_List_val@U?$_List_simple_types@UAppMemory@google_breakpad@@@std@@@std@@SAAAPAU?$_List_node@UAppMemory@google_breakpad@@PAX@2@PAU32@@Z)
PUBLIC 13f7 0 @ILT+1010(?_RTC_GetErrorFuncW@@YAP6AHHPB_WH00ZZPBX@Z)
PUBLIC 13fc 0 @ILT+1015(??E?$_List_unchecked_const_iterator@V?$_List_val@U?$_List_simple_types@UAppMemory@google_breakpad@@@std@@@std@@U_Iterator_base0@2@@std@@QAEAAV01@XZ)
PUBLIC 1401 0 @ILT+1020(?_Myptr@?$_String_alloc@U?$_String_base_types@_WV?$allocator@_W@std@@@std@@@std@@QBEPB_WXZ)
PUBLIC 1406 0 @ILT+1025(?_Get_data@?$_Vector_alloc@U?$_Vec_base_types@PAVExceptionHandler@google_breakpad@@V?$allocator@PAVExceptionHandler@google_breakpad@@@std@@@std@@@std@@QAEAAV?$_Vector_val@U?$_Simple_types@PAVExceptionHandler@google_breakpad@@@std@@@2@XZ)
PUBLIC 140b 0 @ILT+1030(??$_Debug_pointer_if@$$CBD@std@@YAX_NPBDPB_WI@Z)
PUBLIC 1410 0 @ILT+1035(??1?$scoped_ptr@VCrashGenerationClient@google_breakpad@@@google_breakpad@@QAE@XZ)
PUBLIC 1415 0 @ILT+1040(??$_Copy_memmove@PAPAVExceptionHandler@google_breakpad@@PAPAV12@@std@@YAPAPAVExceptionHandler@google_breakpad@@PAPAV12@00@Z)
PUBLIC 141a 0 @ILT+1045(?__scrt_throw_std_bad_alloc@@YAXXZ)
PUBLIC 141f 0 @ILT+1050(?RequestDump@CrashGenerationClient@google_breakpad@@QAE_NPAU_EXCEPTION_POINTERS@@PAUMDRawAssertionInfo@@@Z)
PUBLIC 1424 0 @ILT+1055(?Init@CrashHandler@Breakpad@@QAEXABVQString@@@Z)
PUBLIC 1429 0 @ILT+1060(??$construct@PAVExceptionHandler@google_breakpad@@AAPAV12@@?$_Wrap_alloc@V?$allocator@PAVExceptionHandler@google_breakpad@@@std@@@std@@QAEXPAPAVExceptionHandler@google_breakpad@@AAPAV23@@Z)
PUBLIC 142e 0 @ILT+1065(?push_back@?$list@UAppMemory@google_breakpad@@V?$allocator@UAppMemory@google_breakpad@@@std@@@std@@QAEXABUAppMemory@google_breakpad@@@Z)
PUBLIC 1433 0 @ILT+1070(?_Compat@?$_String_const_iterator@V?$_String_val@U?$_Simple_types@_W@std@@@std@@@std@@QBEXABV12@@Z)
PUBLIC 1438 0 @ILT+1075(?deref@?$QBasicAtomicInteger@H@@QAE_NXZ)
PUBLIC 143d 0 @ILT+1080(?begin@?$vector@PAVExceptionHandler@google_breakpad@@V?$allocator@PAVExceptionHandler@google_breakpad@@@std@@@std@@QAE?AV?$_Vector_iterator@V?$_Vector_val@U?$_Simple_types@PAVExceptionHandler@google_breakpad@@@std@@@std@@@2@XZ)
PUBLIC 1442 0 @ILT+1085(?assign@?$basic_string@_WU?$char_traits@_W@std@@V?$allocator@_W@2@@std@@QAEAAV12@ABV12@@Z)
PUBLIC 1447 0 @ILT+1090(?_Mynode@?$_List_unchecked_const_iterator@V?$_List_val@U?$_List_simple_types@UAppMemory@google_breakpad@@@std@@@std@@U_Iterator_base12@2@@std@@QBEPAU?$_List_node@UAppMemory@google_breakpad@@PAX@2@XZ)
PUBLIC 144c 0 @ILT+1095(?_Getal@?$_String_alloc@U?$_String_base_types@DV?$allocator@D@std@@@std@@@std@@QAEAAU?$_Wrap_alloc@V?$allocator@D@std@@@2@XZ)
PUBLIC 1451 0 @ILT+1100(??$destroy@PAVExceptionHandler@google_breakpad@@@?$allocator_traits@V?$allocator@PAVExceptionHandler@google_breakpad@@@std@@@std@@SAXAAV?$allocator@PAVExceptionHandler@google_breakpad@@@1@PAPAVExceptionHandler@google_breakpad@@@Z)
PUBLIC 1456 0 @ILT+1105(??_Etype_info@@UAEPAXI@Z)
PUBLIC 145b 0 @ILT+1110(?_Unchecked_end@?$list@UAppMemory@google_breakpad@@V?$allocator@UAppMemory@google_breakpad@@@std@@@std@@QAE?AV?$_List_unchecked_iterator@V?$_List_val@U?$_List_simple_types@UAppMemory@google_breakpad@@@std@@@std@@@2@XZ)
PUBLIC 1460 0 @ILT+1115(__Init_thread_footer)
PUBLIC 1465 0 @ILT+1120(___scrt_get_dyn_tls_dtor_callback)
PUBLIC 146a 0 @ILT+1125(__Init_thread_notify)
PUBLIC 146f 0 @ILT+1130(??1?$_Vector_val@U?$_Simple_types@_W@std@@@std@@QAE@XZ)
PUBLIC 1474 0 @ILT+1135(?length@?$char_traits@D@std@@SAIPBD@Z)
PUBLIC 1479 0 @ILT+1140(?max_size@?$basic_string@_WU?$char_traits@_W@std@@V?$allocator@_W@2@@std@@QBEIXZ)
PUBLIC 147e 0 @ILT+1145(??$addressof@$$CBUAppMemory@google_breakpad@@@std@@YAPBUAppMemory@google_breakpad@@ABU12@@Z)
PUBLIC 1483 0 @ILT+1150(__RTC_UninitUse)
PUBLIC 1488 0 @ILT+1155(?MinidumpWriteDumpCallback@ExceptionHandler@google_breakpad@@CGHPAXQAU_MINIDUMP_CALLBACK_INPUT@@PAU_MINIDUMP_CALLBACK_OUTPUT@@@Z)
PUBLIC 148d 0 @ILT+1160(?_Make_iter@?$list@UAppMemory@google_breakpad@@V?$allocator@UAppMemory@google_breakpad@@@std@@@std@@QBE?AV?$_List_iterator@V?$_List_val@U?$_List_simple_types@UAppMemory@google_breakpad@@@std@@@std@@@2@V?$_List_const_iterator@V?$_List_val@U?$_List_simple_types@UAppMemory@google_breakpad@@@std@@@std@@@2@@Z)
PUBLIC 1492 0 @ILT+1165(__RTC_Initialize)
PUBLIC 1497 0 @ILT+1170(?_Getal@?$_Vector_alloc@U?$_Vec_base_types@PAVExceptionHandler@google_breakpad@@V?$allocator@PAVExceptionHandler@google_breakpad@@@std@@@std@@@std@@QAEAAU?$_Wrap_alloc@V?$allocator@PAVExceptionHandler@google_breakpad@@@std@@@2@XZ)
PUBLIC 149c 0 @ILT+1175(??0?$_List_iterator@V?$_List_val@U?$_List_simple_types@UAppMemory@google_breakpad@@@std@@@std@@@std@@QAE@PAU?$_List_node@UAppMemory@google_breakpad@@PAX@1@PBV?$_List_val@U?$_List_simple_types@UAppMemory@google_breakpad@@@std@@@1@@Z)
PUBLIC 14a1 0 @ILT+1180(??$construct@PAU?$_List_node@UAppMemory@google_breakpad@@PAX@std@@AAPAU12@@?$allocator@U?$_List_node@UAppMemory@google_breakpad@@PAX@std@@@std@@QAEXPAPAU?$_List_node@UAppMemory@google_breakpad@@PAX@1@AAPAU21@@Z)
PUBLIC 14a6 0 @ILT+1185(??E?$_Vector_iterator@V?$_Vector_val@U?$_Simple_types@PAVExceptionHandler@google_breakpad@@@std@@@std@@@std@@QAEAAV01@XZ)
PUBLIC 14ab 0 @ILT+1190(?RequestUpload@CrashGenerationClient@google_breakpad@@QAE_NK@Z)
PUBLIC 14b0 0 @ILT+1195(??0?$_Wrap_alloc@V?$allocator@_W@std@@@std@@QAE@XZ)
PUBLIC 14b5 0 @ILT+1200(?_Get_data@?$_Vector_alloc@U?$_Vec_base_types@_WV?$allocator@_W@std@@@std@@@std@@QAEAAV?$_Vector_val@U?$_Simple_types@_W@std@@@2@XZ)
PUBLIC 14ba 0 @ILT+1205(?_RTC_StackFailure@@YAXPAXPBD@Z)
PUBLIC 14bf 0 @ILT+1210(??0?$basic_string@_WU?$char_traits@_W@std@@V?$allocator@_W@2@@std@@QAE@XZ)
PUBLIC 14c4 0 @ILT+1215(??$_Find_unchecked1@V?$_List_unchecked_iterator@V?$_List_val@U?$_List_simple_types@UAppMemory@google_breakpad@@@std@@@std@@@std@@PAX@std@@YA?AV?$_List_unchecked_iterator@V?$_List_val@U?$_List_simple_types@UAppMemory@google_breakpad@@@std@@@std@@@0@V10@0ABQAXU?$integral_constant@_N$0A@@0@@Z)
PUBLIC 14c9 0 @ILT+1220(___report_securityfailure)
PUBLIC 14ce 0 @ILT+1225(??$_Destroy_range1@V?$allocator@D@std@@PAD@std@@YAXPAD0AAU?$_Wrap_alloc@V?$allocator@D@std@@@0@U?$integral_constant@_N$00@0@@Z)
PUBLIC 14d3 0 @ILT+1230(?_Eos@?$basic_string@_WU?$char_traits@_W@std@@V?$allocator@_W@2@@std@@QAEXI@Z)
PUBLIC 14d8 0 @ILT+1235(??1?$basic_string@_WU?$char_traits@_W@std@@V?$allocator@_W@2@@std@@QAE@XZ)
PUBLIC 14dd 0 @ILT+1240(?_Copy_alloc@?$_String_alloc@U?$_String_base_types@_WV?$allocator@_W@std@@@std@@@std@@QAEXABU?$_Wrap_alloc@V?$allocator@_W@std@@@2@@Z)
PUBLIC 14e2 0 @ILT+1245(?WriteMinidump@ExceptionHandler@google_breakpad@@SA_NABV?$basic_string@_WU?$char_traits@_W@std@@V?$allocator@_W@2@@std@@P6A_NPB_W1PAXPAU_EXCEPTION_POINTERS@@PAUMDRawAssertionInfo@@_N@Z2W4_MINIDUMP_TYPE@@@Z)
PUBLIC 14e7 0 @ILT+1250(?_Get_second@?$_Compressed_pair@U?$_Wrap_alloc@V?$allocator@D@std@@@std@@V?$_Vector_val@U?$_Simple_types@D@std@@@2@$00@std@@QBEABV?$_Vector_val@U?$_Simple_types@D@std@@@2@XZ)
PUBLIC 14ec 0 @ILT+1255(?_Grow@?$basic_string@_WU?$char_traits@_W@std@@V?$allocator@_W@2@@std@@QAE_NI_N@Z)
PUBLIC 14f1 0 @ILT+1260(?_Myproxy@?$_Vector_alloc@U?$_Vec_base_types@_WV?$allocator@_W@std@@@std@@@std@@QAEAAPAU_Container_proxy@2@XZ)
PUBLIC 14f6 0 @ILT+1265(??0?$_Vector_iterator@V?$_Vector_val@U?$_Simple_types@PAVExceptionHandler@google_breakpad@@@std@@@std@@@std@@QAE@PAPAVExceptionHandler@google_breakpad@@PBU_Container_base12@1@@Z)
PUBLIC 14fb 0 @ILT+1270(??4?$_Wrap_alloc@V?$allocator@_W@std@@@std@@QAEAAU01@$$QAU01@@Z)
PUBLIC 1500 0 @ILT+1275(?_Free_proxy@?$_List_alloc@U?$_List_base_types@UAppMemory@google_breakpad@@V?$allocator@UAppMemory@google_breakpad@@@std@@@std@@@std@@QAEXXZ)
PUBLIC 1505 0 @ILT+1280(??$assign@V?$_String_iterator@V?$_String_val@U?$_Simple_types@_W@std@@@std@@@std@@@?$basic_string@_WU?$char_traits@_W@std@@V?$allocator@_W@2@@std@@QAEAAV01@V?$_String_iterator@V?$_String_val@U?$_Simple_types@_W@std@@@std@@@1@0@Z)
PUBLIC 150a 0 @ILT+1285(?_Xran@?$basic_string@DU?$char_traits@D@std@@V?$allocator@D@2@@std@@QBEXXZ)
PUBLIC 150f 0 @ILT+1290(??$forward@AAU?$_Wrap_alloc@V?$allocator@_W@std@@@std@@@std@@YAAAU?$_Wrap_alloc@V?$allocator@_W@std@@@0@AAU10@@Z)
PUBLIC 1514 0 @ILT+1295(_swprintf_s)
PUBLIC 1519 0 @ILT+1300(??$?0AAU?$_Wrap_alloc@V?$allocator@PAVExceptionHandler@google_breakpad@@@std@@@std@@@?$_Wrap_alloc@V?$allocator@U_Container_proxy@std@@@std@@@std@@QAE@AAU?$_Wrap_alloc@V?$allocator@PAVExceptionHandler@google_breakpad@@@std@@@1@@Z)
PUBLIC 151e 0 @ILT+1305(?_Xran@?$vector@PAVExceptionHandler@google_breakpad@@V?$allocator@PAVExceptionHandler@google_breakpad@@@std@@@std@@IBEXXZ)
PUBLIC 1523 0 @ILT+1310(??1?$_Compressed_pair@U?$_Wrap_alloc@V?$allocator@PAVExceptionHandler@google_breakpad@@@std@@@std@@V?$_Vector_val@U?$_Simple_types@PAVExceptionHandler@google_breakpad@@@std@@@2@$00@std@@QAE@XZ)
PUBLIC 1528 0 @ILT+1315(?GUIDToSymbolServerWString@GUIDString@google_breakpad@@SA?AV?$basic_string@_WU?$char_traits@_W@std@@V?$allocator@_W@2@@std@@PAU_GUID@@@Z)
PUBLIC 152d 0 @ILT+1320(?RequestDump@CrashGenerationClient@google_breakpad@@QAE_NPAU_EXCEPTION_POINTERS@@@Z)
PUBLIC 1532 0 @ILT+1325(??0?$_Vector_alloc@U?$_Vec_base_types@DV?$allocator@D@std@@@std@@@std@@QAE@XZ)
PUBLIC 1537 0 @ILT+1330(?_Myptr@?$_String_val@U?$_Simple_types@_W@std@@@std@@QAEPA_WXZ)
PUBLIC 153c 0 @ILT+1335(??$_Pocma@U?$_Wrap_alloc@V?$allocator@_W@std@@@std@@@std@@YAXAAU?$_Wrap_alloc@V?$allocator@_W@std@@@0@0@Z)
PUBLIC 1541 0 @ILT+1340(?c_str@?$basic_string@_WU?$char_traits@_W@std@@V?$allocator@_W@2@@std@@QBEPB_WXZ)
PUBLIC 1546 0 @ILT+1345(___acrt_thread_attach)
PUBLIC 154b 0 @ILT+1350(??$forward@V?$allocator@_W@std@@@std@@YA$$QAV?$allocator@_W@0@AAV10@@Z)
PUBLIC 1550 0 @ILT+1355(?_Get_data@?$_Vector_alloc@U?$_Vec_base_types@DV?$allocator@D@std@@@std@@@std@@QBEABV?$_Vector_val@U?$_Simple_types@D@std@@@2@XZ)
PUBLIC 1555 0 @ILT+1360(?setReportCrashesToSystem@CrashHandler@Breakpad@@QAEX_N@Z)
PUBLIC 155a 0 @ILT+1365(??1?$_List_const_iterator@V?$_List_val@U?$_List_simple_types@UAppMemory@google_breakpad@@@std@@@std@@@std@@QAE@XZ)
PUBLIC 155f 0 @ILT+1370(??1?$_List_iterator@V?$_List_val@U?$_List_simple_types@UAppMemory@google_breakpad@@@std@@@std@@@std@@QAE@XZ)
PUBLIC 1564 0 @ILT+1375(?safe_mbstowcs@WindowsStringUtils@google_breakpad@@SA_NABV?$basic_string@DU?$char_traits@D@std@@V?$allocator@D@2@@std@@PAV?$basic_string@_WU?$char_traits@_W@std@@V?$allocator@_W@2@@4@@Z)
PUBLIC 1569 0 @ILT+1380(??0?$basic_string@_WU?$char_traits@_W@std@@V?$allocator@_W@2@@std@@QAE@$$QAV01@@Z)
PUBLIC 156e 0 @ILT+1385(??0?$_String_iterator@V?$_String_val@U?$_Simple_types@_W@std@@@std@@@std@@QAE@ABV01@@Z)
PUBLIC 1573 0 @ILT+1390(?max_size@?$allocator_traits@V?$allocator@_W@std@@@std@@SAIABV?$allocator@_W@2@@Z)
PUBLIC 1578 0 @ILT+1395(___acrt_uninitialize_critical)
PUBLIC 157d 0 @ILT+1400(??1?$_Compressed_pair@U?$_Wrap_alloc@V?$allocator@D@std@@@std@@V?$_Vector_val@U?$_Simple_types@D@std@@@2@$00@std@@QAE@XZ)
PUBLIC 1582 0 @ILT+1405(?reset@?$scoped_ptr@VCrashGenerationClient@google_breakpad@@@google_breakpad@@QAEXPAVCrashGenerationClient@2@@Z)
PUBLIC 1587 0 @ILT+1410(?_Myproxy@?$_String_alloc@U?$_String_base_types@_WV?$allocator@_W@std@@@std@@@std@@QAEAAPAU_Container_proxy@2@XZ)
PUBLIC 158c 0 @ILT+1415(??0?$_Iterator012@Ubidirectional_iterator_tag@std@@UAppMemory@google_breakpad@@HPBU34@ABU34@U_Iterator_base12@2@@std@@QAE@XZ)
PUBLIC 1591 0 @ILT+1420(?allocate@?$_Wrap_alloc@V?$allocator@_W@std@@@std@@QAEPA_WI@Z)
PUBLIC 1596 0 @ILT+1425(___scrt_is_user_matherr_present)
PUBLIC 159b 0 @ILT+1430(??1?$_List_unchecked_const_iterator@V?$_List_val@U?$_List_simple_types@UAppMemory@google_breakpad@@@std@@@std@@U_Iterator_base12@2@@std@@QAE@XZ)
PUBLIC 15a0 0 @ILT+1435(?dealloc@?$QList@PAVQObject@@@@AAEXPAUData@QListData@@@Z)
PUBLIC 15a5 0 @ILT+1440(?_Compat@?$_Vector_const_iterator@V?$_Vector_val@U?$_Simple_types@PAVExceptionHandler@google_breakpad@@@std@@@std@@@std@@QBEXABV12@@Z)
PUBLIC 15aa 0 @ILT+1445(??0?$_List_const_iterator@V?$_List_val@U?$_List_simple_types@UAppMemory@google_breakpad@@@std@@@std@@@std@@QAE@PAU?$_List_node@UAppMemory@google_breakpad@@PAX@1@PBV?$_List_val@U?$_List_simple_types@UAppMemory@google_breakpad@@@std@@@1@@Z)
PUBLIC 15af 0 @ILT+1450(??0ExceptionHandler@google_breakpad@@QAE@ABV?$basic_string@_WU?$char_traits@_W@std@@V?$allocator@_W@2@@std@@P6A_NPAXPAU_EXCEPTION_POINTERS@@PAUMDRawAssertionInfo@@@ZP6A_NPB_W5123_N@Z1HPAVCrashGenerationClient@1@@Z)
PUBLIC 15b4 0 @ILT+1455(?_Mylast@?$_Vector_alloc@U?$_Vec_base_types@_WV?$allocator@_W@std@@@std@@@std@@QBEABQA_WXZ)
PUBLIC 15b9 0 @ILT+1460(??1ExceptionHandler@google_breakpad@@QAE@XZ)
PUBLIC 15be 0 @ILT+1465(?_Get_second@?$_Compressed_pair@U?$_Wrap_alloc@V?$allocator@PAVExceptionHandler@google_breakpad@@@std@@@std@@V?$_Vector_val@U?$_Simple_types@PAVExceptionHandler@google_breakpad@@@std@@@2@$00@std@@QAEAAV?$_Vector_val@U?$_Simple_types@PAVExceptionHandler@google_breakpad@@@std@@@2@XZ)
PUBLIC 15c3 0 @ILT+1470(?allocate@?$_Wrap_alloc@V?$allocator@U?$_List_node@UAppMemory@google_breakpad@@PAX@std@@@std@@@std@@QAEPAU?$_List_node@UAppMemory@google_breakpad@@PAX@2@I@Z)
PUBLIC 15c8 0 @ILT+1475(?_Xran@?$basic_string@_WU?$char_traits@_W@std@@V?$allocator@_W@2@@std@@QBEXXZ)
PUBLIC 15cd 0 @ILT+1480(?_Clamp_suffix_size@?$basic_string@DU?$char_traits@D@std@@V?$allocator@D@2@@std@@QBEIII@Z)
PUBLIC 15d2 0 @ILT+1485(??$addressof@QAVExceptionHandler@google_breakpad@@@std@@YAPBQAVExceptionHandler@google_breakpad@@ABQAV12@@Z)
PUBLIC 15d7 0 @ILT+1490(?allocate@?$allocator@U_Container_proxy@std@@@std@@QAEPAU_Container_proxy@2@I@Z)
PUBLIC 15dc 0 @ILT+1495(?_Orphan_range@?$vector@PAVExceptionHandler@google_breakpad@@V?$allocator@PAVExceptionHandler@google_breakpad@@@std@@@std@@IBEXPAPAVExceptionHandler@google_breakpad@@0@Z)
PUBLIC 15e1 0 @ILT+1500(??$_Uninitialized_default_fill_n1@PADIV?$allocator@D@std@@@std@@YAXPADIAAU?$_Wrap_alloc@V?$allocator@D@std@@@0@U?$integral_constant@_N$00@0@@Z)
PUBLIC 15e6 0 @ILT+1505(___isa_available_init)
PUBLIC 15eb 0 @ILT+1510(??0?$allocator@_W@std@@QAE@ABV01@@Z)
PUBLIC 15f0 0 @ILT+1515(??0?$_List_val@U?$_List_simple_types@UAppMemory@google_breakpad@@@std@@@std@@QAE@XZ)
PUBLIC 15f5 0 @ILT+1520(?max_size@?$_Wrap_alloc@V?$allocator@_W@std@@@std@@QBEIU_Nil@2@@Z)
PUBLIC 15fa 0 @ILT+1525(__RTC_CheckEsp)
PUBLIC 15ff 0 @ILT+1530(__RTC_Shutdown)
PUBLIC 1604 0 @ILT+1535(??9?$_Vector_const_iterator@V?$_Vector_val@U?$_Simple_types@PAVExceptionHandler@google_breakpad@@@std@@@std@@@std@@QBE_NABV01@@Z)
PUBLIC 1609 0 @ILT+1540(?_Myres@?$_String_alloc@U?$_String_base_types@DV?$allocator@D@std@@@std@@@std@@QAEAAIXZ)
PUBLIC 160e 0 @ILT+1545(?length@?$char_traits@_W@std@@SAIPB_W@Z)
PUBLIC 1613 0 @ILT+1550(___scrt_is_managed_app)
PUBLIC 1618 0 @ILT+1555(?_Get_data@?$_List_alloc@U?$_List_base_types@UAppMemory@google_breakpad@@V?$allocator@UAppMemory@google_breakpad@@@std@@@std@@@std@@QAEAAV?$_List_val@U?$_List_simple_types@UAppMemory@google_breakpad@@@std@@@2@XZ)
PUBLIC 161d 0 @ILT+1560(?at@?$vector@PAVExceptionHandler@google_breakpad@@V?$allocator@PAVExceptionHandler@google_breakpad@@@std@@@std@@QAEAAPAVExceptionHandler@google_breakpad@@I@Z)
PUBLIC 1622 0 @ILT+1565(__RTC_InitBase)
PUBLIC 1627 0 @ILT+1570(?deallocate@?$_Wrap_alloc@V?$allocator@U?$_List_node@UAppMemory@google_breakpad@@PAX@std@@@std@@@std@@QAEXPAU?$_List_node@UAppMemory@google_breakpad@@PAX@2@I@Z)
PUBLIC 162c 0 @ILT+1575(?allocate@?$allocator@_W@std@@QAEPA_WI@Z)
PUBLIC 1631 0 @ILT+1580(??$__crt_fast_decode_pointer@PAP6AXXZ@@YAPAP6AXXZQAP6AXXZ@Z)
PUBLIC 1636 0 @ILT+1585(?_Get_first@?$_Compressed_pair@U?$_Wrap_alloc@V?$allocator@D@std@@@std@@V?$_Vector_val@U?$_Simple_types@D@std@@@2@$00@std@@QBEABU?$_Wrap_alloc@V?$allocator@D@std@@@2@XZ)
PUBLIC 163b 0 @ILT+1590(?begin@?$basic_string@_WU?$char_traits@_W@std@@V?$allocator@_W@2@@std@@QAE?AV?$_String_iterator@V?$_String_val@U?$_Simple_types@_W@std@@@std@@@2@XZ)
PUBLIC 1640 0 @ILT+1595(??_Ebad_array_new_length@std@@UAEPAXI@Z)
PUBLIC 1645 0 @ILT+1600(??$find@V?$_List_iterator@V?$_List_val@U?$_List_simple_types@UAppMemory@google_breakpad@@@std@@@std@@@std@@PAX@std@@YA?AV?$_List_iterator@V?$_List_val@U?$_List_simple_types@UAppMemory@google_breakpad@@@std@@@std@@@0@V10@0ABQAX@Z)
PUBLIC 164a 0 @ILT+1605(_at_quick_exit)
PUBLIC 164f 0 @ILT+1610(?pop_back@?$vector@PAVExceptionHandler@google_breakpad@@V?$allocator@PAVExceptionHandler@google_breakpad@@@std@@@std@@QAEXXZ)
PUBLIC 1654 0 @ILT+1615(___scrt_unhandled_exception_filter@4)
PUBLIC 1659 0 @ILT+1620(??0ExceptionHandler@google_breakpad@@QAE@ABV?$basic_string@_WU?$char_traits@_W@std@@V?$allocator@_W@2@@std@@P6A_NPAXPAU_EXCEPTION_POINTERS@@PAUMDRawAssertionInfo@@@ZP6A_NPB_W5123_N@Z1HW4_MINIDUMP_TYPE@@5PBUCustomClientInfo@1@@Z)
PUBLIC 165e 0 @ILT+1625(?_Myfirst@?$_Vector_alloc@U?$_Vec_base_types@PAVExceptionHandler@google_breakpad@@V?$allocator@PAVExceptionHandler@google_breakpad@@@std@@@std@@@std@@QBEABQAPAVExceptionHandler@google_breakpad@@XZ)
PUBLIC 1663 0 @ILT+1630(?erase@?$basic_string@DU?$char_traits@D@std@@V?$allocator@D@2@@std@@QAEAAV12@I@Z)
PUBLIC 1668 0 @ILT+1635(__vsprintf_s_l)
PUBLIC 166d 0 @ILT+1640(?_Myfirst@?$_Vector_alloc@U?$_Vec_base_types@DV?$allocator@D@std@@@std@@@std@@QBEABQADXZ)
PUBLIC 1672 0 @ILT+1645(??1?$vector@_WV?$allocator@_W@std@@@std@@QAE@XZ)
PUBLIC 1677 0 @ILT+1650(___report_rangecheckfailure)
PUBLIC 167c 0 @ILT+1655(?allocate@?$_Wrap_alloc@V?$allocator@PAVExceptionHandler@google_breakpad@@@std@@@std@@QAEPAPAVExceptionHandler@google_breakpad@@I@Z)
PUBLIC 1681 0 @ILT+1660(?_Tidy@?$vector@_WV?$allocator@_W@std@@@std@@IAEXXZ)
PUBLIC 1686 0 @ILT+1665(?max_size@?$allocator@_W@std@@QBEIXZ)
PUBLIC 168b 0 @ILT+1670(?_Get_first@?$_Compressed_pair@U?$_Wrap_alloc@V?$allocator@U?$_List_node@UAppMemory@google_breakpad@@PAX@std@@@std@@@std@@V?$_List_val@U?$_List_simple_types@UAppMemory@google_breakpad@@@std@@@2@$00@std@@QBEABU?$_Wrap_alloc@V?$allocator@U?$_List_node@UAppMemory@google_breakpad@@PAX@std@@@std@@@2@XZ)
PUBLIC 1690 0 @ILT+1675(?_Get_first@?$_Compressed_pair@U?$_Wrap_alloc@V?$allocator@U?$_List_node@UAppMemory@google_breakpad@@PAX@std@@@std@@@std@@V?$_List_val@U?$_List_simple_types@UAppMemory@google_breakpad@@@std@@@2@$00@std@@QAEAAU?$_Wrap_alloc@V?$allocator@U?$_List_node@UAppMemory@google_breakpad@@PAX@std@@@std@@@2@XZ)
PUBLIC 1695 0 @ILT+1680(?_Get_second@?$_Compressed_pair@U?$_Wrap_alloc@V?$allocator@_W@std@@@std@@V?$_String_val@U?$_Simple_types@_W@std@@@2@$00@std@@QAEAAV?$_String_val@U?$_Simple_types@_W@std@@@2@XZ)
PUBLIC 169a 0 @ILT+1685(??D?$_List_const_iterator@V?$_List_val@U?$_List_simple_types@UAppMemory@google_breakpad@@@std@@@std@@@std@@QBEABUAppMemory@google_breakpad@@XZ)
PUBLIC 169f 0 @ILT+1690(___acrt_thread_detach)
PUBLIC 16a4 0 @ILT+1695(??$construct@PAVExceptionHandler@google_breakpad@@ABQAV12@@?$allocator_traits@V?$allocator@PAVExceptionHandler@google_breakpad@@@std@@@std@@SAXAAV?$allocator@PAVExceptionHandler@google_breakpad@@@1@PAPAVExceptionHandler@google_breakpad@@ABQAV34@@Z)
PUBLIC 16a9 0 @ILT+1700(??9?$_List_const_iterator@V?$_List_val@U?$_List_simple_types@UAppMemory@google_breakpad@@@std@@@std@@@std@@QBE_NABV01@@Z)
PUBLIC 16ae 0 @ILT+1705(?_Get_first@?$_Compressed_pair@U?$_Wrap_alloc@V?$allocator@_W@std@@@std@@V?$_Vector_val@U?$_Simple_types@_W@std@@@2@$00@std@@QBEABU?$_Wrap_alloc@V?$allocator@_W@std@@@2@XZ)
PUBLIC 16b3 0 @ILT+1710(?_Get_second@?$_Compressed_pair@U?$_Wrap_alloc@V?$allocator@D@std@@@std@@V?$_String_val@U?$_Simple_types@D@std@@@2@$00@std@@QAEAAV?$_String_val@U?$_Simple_types@D@std@@@2@XZ)
PUBLIC 16b8 0 @ILT+1715(??0ExceptionHandler@google_breakpad@@QAE@ABV?$basic_string@_WU?$char_traits@_W@std@@V?$allocator@_W@2@@std@@P6A_NPAXPAU_EXCEPTION_POINTERS@@PAUMDRawAssertionInfo@@@ZP6A_NPB_W5123_N@Z1HW4_MINIDUMP_TYPE@@1PBUCustomClientInfo@1@@Z)
PUBLIC 16bd 0 @ILT+1720(?_Orphan_all@?$_Vector_alloc@U?$_Vec_base_types@_WV?$allocator@_W@std@@@std@@@std@@QAEXXZ)
PUBLIC 16c2 0 @ILT+1725(?_Myres@?$_String_alloc@U?$_String_base_types@_WV?$allocator@_W@std@@@std@@@std@@QAEAAIXZ)
PUBLIC 16c7 0 @ILT+1730(?push_back@?$vector@PAVExceptionHandler@google_breakpad@@V?$allocator@PAVExceptionHandler@google_breakpad@@@std@@@std@@QAEXABQAVExceptionHandler@google_breakpad@@@Z)
PUBLIC 16cc 0 @ILT+1735(?_Get_first@?$_Compressed_pair@U?$_Wrap_alloc@V?$allocator@_W@std@@@std@@V?$_String_val@U?$_Simple_types@_W@std@@@2@$00@std@@QAEAAU?$_Wrap_alloc@V?$allocator@_W@std@@@2@XZ)
PUBLIC 16d1 0 @ILT+1740(?find_last_of@?$basic_string@_WU?$char_traits@_W@std@@V?$allocator@_W@2@@std@@QBEIPB_WI@Z)
PUBLIC 16d6 0 @ILT+1745(?_Myval@?$_List_alloc@U?$_List_base_types@UAppMemory@google_breakpad@@V?$allocator@UAppMemory@google_breakpad@@@std@@@std@@@std@@SAAAUAppMemory@google_breakpad@@PAU?$_List_node@UAppMemory@google_breakpad@@PAX@2@@Z)
PUBLIC 16db 0 @ILT+1750(??$_Unchecked@V?$_List_val@U?$_List_simple_types@UAppMemory@google_breakpad@@@std@@@std@@@std@@YA?AV?$_List_unchecked_iterator@V?$_List_val@U?$_List_simple_types@UAppMemory@google_breakpad@@@std@@@std@@@0@V?$_List_iterator@V?$_List_val@U?$_List_simple_types@UAppMemory@google_breakpad@@@std@@@std@@@0@@Z)
PUBLIC 16e0 0 @ILT+1755(??0?$allocator@D@std@@QAE@XZ)
PUBLIC 16e5 0 @ILT+1760(?instance@CrashHandler@Breakpad@@SAPAV12@XZ)
PUBLIC 16ea 0 @ILT+1765(?_Destroy@?$vector@_WV?$allocator@_W@std@@@std@@IAEXPA_W0@Z)
PUBLIC 16ef 0 @ILT+1770(??0?$_String_val@U?$_Simple_types@_W@std@@@std@@QAE@XZ)
PUBLIC 16f4 0 @ILT+1775(?_Xlen@?$vector@_WV?$allocator@_W@std@@@std@@IBEXXZ)
PUBLIC 16f9 0 @ILT+1780(?_Get_second@?$_Compressed_pair@U?$_Wrap_alloc@V?$allocator@U?$_List_node@UAppMemory@google_breakpad@@PAX@std@@@std@@@std@@V?$_List_val@U?$_List_simple_types@UAppMemory@google_breakpad@@@std@@@2@$00@std@@QBEABV?$_List_val@U?$_List_simple_types@UAppMemory@google_breakpad@@@std@@@2@XZ)
PUBLIC 16fe 0 @ILT+1785(??$_Rechecked@V?$_List_val@U?$_List_simple_types@UAppMemory@google_breakpad@@@std@@@std@@@std@@YAAAV?$_List_iterator@V?$_List_val@U?$_List_simple_types@UAppMemory@google_breakpad@@@std@@@std@@@0@AAV10@V?$_List_unchecked_iterator@V?$_List_val@U?$_List_simple_types@UAppMemory@google_breakpad@@@std@@@std@@@0@@Z)
PUBLIC 1703 0 @ILT+1790(??$?0$$V@?$_Compressed_pair@U?$_Wrap_alloc@V?$allocator@_W@std@@@std@@V?$_String_val@U?$_Simple_types@_W@std@@@2@$00@std@@QAE@U_Zero_then_variadic_args_t@1@@Z)
PUBLIC 1708 0 @ILT+1795(___scrt_set_unhandled_exception_filter)
PUBLIC 170d 0 @ILT+1800(?ConnectToServer@CrashGenerationClient@google_breakpad@@AAEPAXXZ)
PUBLIC 1712 0 @ILT+1805(??1?$_Vector_val@U?$_Simple_types@PAVExceptionHandler@google_breakpad@@@std@@@std@@QAE@XZ)
PUBLIC 1717 0 @ILT+1810(?_Get_second@?$_Compressed_pair@U?$_Wrap_alloc@V?$allocator@_W@std@@@std@@V?$_Vector_val@U?$_Simple_types@_W@std@@@2@$00@std@@QBEABV?$_Vector_val@U?$_Simple_types@_W@std@@@2@XZ)
PUBLIC 171c 0 @ILT+1815(?_Get_data@?$_Vector_alloc@U?$_Vec_base_types@DV?$allocator@D@std@@@std@@@std@@QAEAAV?$_Vector_val@U?$_Simple_types@D@std@@@2@XZ)
PUBLIC 1721 0 @ILT+1820(?qt_noop@@YAXXZ)
PUBLIC 1726 0 @ILT+1825(??1?$_Vector_val@U?$_Simple_types@D@std@@@std@@QAE@XZ)
PUBLIC 172b 0 @ILT+1830(??0?$_Wrap_alloc@V?$allocator@_W@std@@@std@@QAE@$$QAU01@@Z)
PUBLIC 1730 0 @ILT+1835(??$?0D@?$allocator@U_Container_proxy@std@@@std@@QAE@ABV?$allocator@D@1@@Z)
PUBLIC 1735 0 @ILT+1840(??1?$_String_const_iterator@V?$_String_val@U?$_Simple_types@_W@std@@@std@@@std@@QAE@XZ)
PUBLIC 173a 0 @ILT+1845(?assign@?$basic_string@DU?$char_traits@D@std@@V?$allocator@D@2@@std@@QAEAAV12@PBD@Z)
PUBLIC 173f 0 @ILT+1850(??1CrashHandler@Breakpad@@AAE@XZ)
PUBLIC 1744 0 @ILT+1855(?get_handler@AutoExceptionHandler@google_breakpad@@QBEPAVExceptionHandler@2@XZ)
PUBLIC 1749 0 @ILT+1860(___scrt_uninitialize_crt)
PUBLIC 174e 0 @ILT+1865(___acrt_uninitialize_critical)
PUBLIC 1753 0 @ILT+1870(??D?$_List_unchecked_iterator@V?$_List_val@U?$_List_simple_types@UAppMemory@google_breakpad@@@std@@@std@@@std@@QBEAAUAppMemory@google_breakpad@@XZ)
PUBLIC 1758 0 @ILT+1875(?_Get_data@?$_Vector_alloc@U?$_Vec_base_types@PAVExceptionHandler@google_breakpad@@V?$allocator@PAVExceptionHandler@google_breakpad@@@std@@@std@@@std@@QBEABV?$_Vector_val@U?$_Simple_types@PAVExceptionHandler@google_breakpad@@@std@@@2@XZ)
PUBLIC 175d 0 @ILT+1880(?_Mysize@?$_String_alloc@U?$_String_base_types@DV?$allocator@D@std@@@std@@@std@@QAEAAIXZ)
PUBLIC 1762 0 @ILT+1885(??8?$_String_const_iterator@V?$_String_val@U?$_Simple_types@_W@std@@@std@@@std@@QBE_NABV01@@Z)
PUBLIC 1767 0 @ILT+1890(?_Mysize@?$_String_alloc@U?$_String_base_types@DV?$allocator@D@std@@@std@@@std@@QBEABIXZ)
PUBLIC 176c 0 @ILT+1895(?erase@?$vector@PAVExceptionHandler@google_breakpad@@V?$allocator@PAVExceptionHandler@google_breakpad@@@std@@@std@@QAE?AV?$_Vector_iterator@V?$_Vector_val@U?$_Simple_types@PAVExceptionHandler@google_breakpad@@@std@@@std@@@2@V?$_Vector_const_iterator@V?$_Vector_val@U?$_Simple_types@PAVExceptionHandler@google_breakpad@@@std@@@std@@@2@@Z)
PUBLIC 1771 0 @ILT+1900(??0_Container_proxy@std@@QAE@XZ)
PUBLIC 1776 0 @ILT+1905(?max_size@?$_Wrap_alloc@V?$allocator@PAVExceptionHandler@google_breakpad@@@std@@@std@@QBEIU_Nil@2@@Z)
PUBLIC 177b 0 @ILT+1910(___scrt_dllmain_after_initialize_c)
PUBLIC 1780 0 @ILT+1915(__RTC_Terminate)
PUBLIC 1785 0 @ILT+1920(??E?$_List_unchecked_iterator@V?$_List_val@U?$_List_simple_types@UAppMemory@google_breakpad@@@std@@@std@@@std@@QAEAAV01@XZ)
PUBLIC 178a 0 @ILT+1925(??$forward@AAPAU?$_List_node@UAppMemory@google_breakpad@@PAX@std@@@std@@YAAAPAU?$_List_node@UAppMemory@google_breakpad@@PAX@0@AAPAU10@@Z)
PUBLIC 178f 0 @ILT+1930(??1?$vector@PAVExceptionHandler@google_breakpad@@V?$allocator@PAVExceptionHandler@google_breakpad@@@std@@@std@@QAE@XZ)
PUBLIC 1794 0 @ILT+1935(??1?$_Iterator012@Urandom_access_iterator_tag@std@@_WHPB_WAB_WU_Iterator_base12@2@@std@@QAE@XZ)
PUBLIC 1799 0 @ILT+1940(??0bad_array_new_length@std@@QAE@XZ)
PUBLIC 179e 0 @ILT+1945(??0?$_String_const_iterator@V?$_String_val@U?$_Simple_types@_W@std@@@std@@@std@@QAE@PB_WPBU_Container_base12@1@@Z)
PUBLIC 17a3 0 @ILT+1950(??$_Uninitialized_default_fill_n@PADIV?$allocator@D@std@@@std@@YAXPADIAAU?$_Wrap_alloc@V?$allocator@D@std@@@0@@Z)
PUBLIC 17a8 0 @ILT+1955(?_Mylast@?$_Vector_alloc@U?$_Vec_base_types@_WV?$allocator@_W@std@@@std@@@std@@QAEAAPA_WXZ)
PUBLIC 17ad 0 @ILT+1960(??0?$_List_unchecked_const_iterator@V?$_List_val@U?$_List_simple_types@UAppMemory@google_breakpad@@@std@@@std@@U_Iterator_base12@2@@std@@QAE@$$QAV01@@Z)
PUBLIC 17b2 0 @ILT+1965(??_Ebad_alloc@std@@UAEPAXI@Z)
PUBLIC 17b7 0 @ILT+1970(?_Mysize@?$_String_alloc@U?$_String_base_types@_WV?$allocator@_W@std@@@std@@@std@@QAEAAIXZ)
PUBLIC 17bc 0 @ILT+1975(?_Mysize@?$_String_alloc@U?$_String_base_types@_WV?$allocator@_W@std@@@std@@@std@@QBEABIXZ)
PUBLIC 17c1 0 @ILT+1980(??$load@H@?$QGenericAtomicOps@U?$QAtomicOpsBySize@$03@@@@SAHABH@Z)
PUBLIC 17c6 0 @ILT+1985(??0?$allocator@_W@std@@QAE@XZ)
PUBLIC 17cb 0 @ILT+1990(?_Getpfirst@?$_Vector_alloc@U?$_Vec_base_types@PAVExceptionHandler@google_breakpad@@V?$allocator@PAVExceptionHandler@google_breakpad@@@std@@@std@@@std@@QBEPAPAU_Iterator_base12@2@XZ)
PUBLIC 17d0 0 @ILT+1995(__initialize_invalid_parameter_handler)
PUBLIC 17d5 0 @ILT+2000(?allocate@?$allocator@PAVExceptionHandler@google_breakpad@@@std@@QAEPAPAVExceptionHandler@google_breakpad@@I@Z)
PUBLIC 17da 0 @ILT+2005(?_Myproxy@?$_Vector_alloc@U?$_Vec_base_types@PAVExceptionHandler@google_breakpad@@V?$allocator@PAVExceptionHandler@google_breakpad@@@std@@@std@@@std@@QAEAAPAU_Container_proxy@2@XZ)
PUBLIC 17df 0 @ILT+2010(??$_Unfancy@D@std@@YAPADPAD@Z)
PUBLIC 17e4 0 @ILT+2015(?_Get_data@?$_String_alloc@U?$_String_base_types@DV?$allocator@D@std@@@std@@@std@@QBEABV?$_String_val@U?$_Simple_types@D@std@@@2@XZ)
PUBLIC 17e9 0 @ILT+2020(??$construct@U_Container_proxy@std@@U12@@?$allocator_traits@V?$allocator@U_Container_proxy@std@@@std@@@std@@SAXAAV?$allocator@U_Container_proxy@std@@@1@PAU_Container_proxy@1@$$QAU31@@Z)
PUBLIC 17ee 0 @ILT+2025(??$destroy@PAVExceptionHandler@google_breakpad@@@?$allocator@PAVExceptionHandler@google_breakpad@@@std@@QAEXPAPAVExceptionHandler@google_breakpad@@@Z)
PUBLIC 17f3 0 @ILT+2030(??0?$_List_unchecked_const_iterator@V?$_List_val@U?$_List_simple_types@UAppMemory@google_breakpad@@@std@@@std@@U_Iterator_base0@2@@std@@QAE@PAU?$_List_node@UAppMemory@google_breakpad@@PAX@1@PBV?$_List_val@U?$_List_simple_types@UAppMemory@google_breakpad@@@std@@@1@@Z)
PUBLIC 17f8 0 @ILT+2035(??$addressof@PAD@std@@YAPAPADAAPAD@Z)
PUBLIC 17fd 0 @ILT+2040(??0?$_List_unchecked_iterator@V?$_List_val@U?$_List_simple_types@UAppMemory@google_breakpad@@@std@@@std@@@std@@QAE@PAU?$_List_node@UAppMemory@google_breakpad@@PAX@1@PBV?$_List_val@U?$_List_simple_types@UAppMemory@google_breakpad@@@std@@@1@@Z)
PUBLIC 1802 0 @ILT+2045(??$max@_K@std@@YAAB_KAB_K0@Z)
PUBLIC 1807 0 @ILT+2050(??1type_info@@UAE@XZ)
PUBLIC 180c 0 @ILT+2055(??$addressof@PAU?$_List_node@UAppMemory@google_breakpad@@PAX@std@@@std@@YAPAPAU?$_List_node@UAppMemory@google_breakpad@@PAX@0@AAPAU10@@Z)
PUBLIC 1811 0 @ILT+2060(__matherr)
PUBLIC 1816 0 @ILT+2065(?_Myptr@?$_String_alloc@U?$_String_base_types@DV?$allocator@D@std@@@std@@@std@@QBEPBDXZ)
PUBLIC 181b 0 @ILT+2070(??4?$_Iterator012@Ubidirectional_iterator_tag@std@@UAppMemory@google_breakpad@@HPBU34@ABU34@U_Iterator_base12@2@@std@@QAEAAU01@$$QAU01@@Z)
PUBLIC 1820 0 @ILT+2075(__vfprintf_l)
PUBLIC 1825 0 @ILT+2080(??$forward@AAU?$_Wrap_alloc@V?$allocator@PAVExceptionHandler@google_breakpad@@@std@@@std@@@std@@YAAAU?$_Wrap_alloc@V?$allocator@PAVExceptionHandler@google_breakpad@@@std@@@0@AAU10@@Z)
PUBLIC 182a 0 @ILT+2085(??1?$_String_alloc@U?$_String_base_types@_WV?$allocator@_W@std@@@std@@@std@@QAE@XZ)
PUBLIC 182f 0 @ILT+2090(?__crt_rotate_pointer_value@@YAIIH@Z)
PUBLIC 1834 0 @ILT+2095(?_Mylast@?$_Vector_alloc@U?$_Vec_base_types@PAVExceptionHandler@google_breakpad@@V?$allocator@PAVExceptionHandler@google_breakpad@@@std@@@std@@@std@@QAEAAPAPAVExceptionHandler@google_breakpad@@XZ)
PUBLIC 1839 0 @ILT+2100(?_Unlinknode@?$list@UAppMemory@google_breakpad@@V?$allocator@UAppMemory@google_breakpad@@@std@@@std@@QAEPAU?$_List_node@UAppMemory@google_breakpad@@PAX@2@V?$_List_const_iterator@V?$_List_val@U?$_List_simple_types@UAppMemory@google_breakpad@@@std@@@std@@@2@@Z)
PUBLIC 183e 0 @ILT+2105(?erase@?$basic_string@_WU?$char_traits@_W@std@@V?$allocator@_W@2@@std@@QAEAAV12@II@Z)
PUBLIC 1843 0 @ILT+2110(___acrt_thread_attach)
PUBLIC 1848 0 @ILT+2115(?select_on_container_copy_construction@?$allocator_traits@V?$allocator@_W@std@@@std@@SA?AV?$allocator@_W@2@ABV32@@Z)
PUBLIC 184d 0 @ILT+2120(?_Get_data@?$_String_alloc@U?$_String_base_types@_WV?$allocator@_W@std@@@std@@@std@@QAEAAV?$_String_val@U?$_Simple_types@_W@std@@@2@XZ)
PUBLIC 1852 0 @ILT+2125(?_Prevnode@?$_List_val@U?$_List_simple_types@UAppMemory@google_breakpad@@@std@@@std@@SAAAPAU?$_List_node@UAppMemory@google_breakpad@@PAX@2@PAU32@@Z)
PUBLIC 1857 0 @ILT+2130(??0?$allocator@PAVExceptionHandler@google_breakpad@@@std@@QAE@XZ)
PUBLIC 185c 0 @ILT+2135(__get_startup_new_mode)
PUBLIC 1861 0 @ILT+2140(??0?$_List_alloc@U?$_List_base_types@UAppMemory@google_breakpad@@V?$allocator@UAppMemory@google_breakpad@@@std@@@std@@@std@@QAE@XZ)
PUBLIC 1866 0 @ILT+2145(??$?0V?$allocator@_W@std@@@?$_Wrap_alloc@V?$allocator@_W@std@@@std@@QAE@$$QAV?$allocator@_W@1@@Z)
PUBLIC 186b 0 @ILT+2150(??$forward@AAPAD@std@@YAAAPADAAPAD@Z)
PUBLIC 1870 0 @ILT+2155(??D?$_List_unchecked_const_iterator@V?$_List_val@U?$_List_simple_types@UAppMemory@google_breakpad@@@std@@@std@@U_Iterator_base12@2@@std@@QBEABUAppMemory@google_breakpad@@XZ)
PUBLIC 1875 0 @ILT+2160(___acrt_thread_detach)
PUBLIC 187a 0 @ILT+2165(?WriteMinidumpForException@ExceptionHandler@google_breakpad@@QAE_NPAU_EXCEPTION_POINTERS@@@Z)
PUBLIC 187f 0 @ILT+2170(??D?$_List_unchecked_const_iterator@V?$_List_val@U?$_List_simple_types@UAppMemory@google_breakpad@@@std@@@std@@U_Iterator_base0@2@@std@@QBEABUAppMemory@google_breakpad@@XZ)
PUBLIC 1884 0 @ILT+2175(??1?$QListSpecialMethods@PAVQObject@@@@IAE@XZ)
PUBLIC 1889 0 @ILT+2180(??$_Destroy_range@V?$allocator@_W@std@@PA_W@std@@YAXPA_W0AAU?$_Wrap_alloc@V?$allocator@_W@std@@@0@@Z)
PUBLIC 188e 0 @ILT+2185(??$destroy@PAVExceptionHandler@google_breakpad@@@?$_Wrap_alloc@V?$allocator@PAVExceptionHandler@google_breakpad@@@std@@@std@@QAEXPAPAVExceptionHandler@google_breakpad@@@Z)
PUBLIC 1893 0 @ILT+2190(??0?$_Iterator012@Urandom_access_iterator_tag@std@@_WHPB_WAB_WU_Iterator_base12@2@@std@@QAE@XZ)
PUBLIC 1898 0 @ILT+2195(??$forward@U_Container_proxy@std@@@std@@YA$$QAU_Container_proxy@0@AAU10@@Z)
PUBLIC 189d 0 @ILT+2200(?size@?$vector@PAVExceptionHandler@google_breakpad@@V?$allocator@PAVExceptionHandler@google_breakpad@@@std@@@std@@QBEIXZ)
PUBLIC 18a2 0 @ILT+2205(?max_size@?$allocator_traits@V?$allocator@U?$_List_node@UAppMemory@google_breakpad@@PAX@std@@@std@@@std@@SAIABV?$allocator@U?$_List_node@UAppMemory@google_breakpad@@PAX@std@@@2@@Z)
PUBLIC 18a7 0 @ILT+2210(___raise_securityfailure)
PUBLIC 18ac 0 @ILT+2215(?_Alloc_proxy@?$_String_alloc@U?$_String_base_types@_WV?$allocator@_W@std@@@std@@@std@@QAEXXZ)
PUBLIC 18b1 0 @ILT+2220(___report_securityfailureEx)
PUBLIC 18b6 0 @ILT+2225(??E?$_List_const_iterator@V?$_List_val@U?$_List_simple_types@UAppMemory@google_breakpad@@@std@@@std@@@std@@QAE?AV01@H@Z)
PUBLIC 18bb 0 @ILT+2230(??$?0U?$_List_node@UAppMemory@google_breakpad@@PAX@std@@@?$allocator@U_Container_proxy@std@@@std@@QAE@ABV?$allocator@U?$_List_node@UAppMemory@google_breakpad@@PAX@std@@@1@@Z)
PUBLIC 18c0 0 @ILT+2235(??$__vcrt_va_start_verify_argument_type@QBD@@YAXXZ)
PUBLIC 18c5 0 @ILT+2240(__initialize_denormal_control)
PUBLIC 18ca 0 @ILT+2245(??$construct@U_Container_proxy@std@@U12@@?$allocator@U_Container_proxy@std@@@std@@QAEXPAU_Container_proxy@1@$$QAU21@@Z)
PUBLIC 18cf 0 @ILT+2250(??1_Container_base12@std@@QAE@XZ)
PUBLIC 18d4 0 @ILT+2255(??0ProtocolMessage@google_breakpad@@QAE@W4MessageTag@1@KW4_MINIDUMP_TYPE@@PAKPAPAU_EXCEPTION_POINTERS@@PAUMDRawAssertionInfo@@ABUCustomClientInfo@1@PAX66@Z)
PUBLIC 18d9 0 @ILT+2260(?max_size@?$allocator@D@std@@QBEIXZ)
PUBLIC 18de 0 @ILT+2265(?c_str@?$basic_string@DU?$char_traits@D@std@@V?$allocator@D@2@@std@@QBEPBDXZ)
PUBLIC 18e3 0 @ILT+2270(?Initialize@ExceptionHandler@google_breakpad@@AAEXABV?$basic_string@_WU?$char_traits@_W@std@@V?$allocator@_W@2@@std@@P6A_NPAXPAU_EXCEPTION_POINTERS@@PAUMDRawAssertionInfo@@@ZP6A_NPB_W5123_N@Z1HW4_MINIDUMP_TYPE@@51PAVCrashGenerationClient@2@PBUCustomClientInfo@2@@Z)
PUBLIC 18e8 0 @ILT+2275(?max_size@?$vector@_WV?$allocator@_W@std@@@std@@QBEIXZ)
PUBLIC 18ed 0 @ILT+2280(??$destroy@U_Container_proxy@std@@@?$_Wrap_alloc@V?$allocator@U_Container_proxy@std@@@std@@@std@@QAEXPAU_Container_proxy@1@@Z)
PUBLIC 18f2 0 @ILT+2285(?end@?$vector@PAVExceptionHandler@google_breakpad@@V?$allocator@PAVExceptionHandler@google_breakpad@@@std@@@std@@QAE?AV?$_Vector_iterator@V?$_Vector_val@U?$_Simple_types@PAVExceptionHandler@google_breakpad@@@std@@@std@@@2@XZ)
PUBLIC 18f7 0 @ILT+2290(??$_Unfancy@_W@std@@YAPA_WPA_W@Z)
PUBLIC 18fc 0 @ILT+2295(??$_Ptr_move_cat@PAVExceptionHandler@google_breakpad@@PAV12@@std@@YA?AU_Really_trivial_ptr_iterator_tag@0@ABQAPAVExceptionHandler@google_breakpad@@0@Z)
PUBLIC 1901 0 @ILT+2300(?max_size@?$_Wrap_alloc@V?$allocator@D@std@@@std@@QBEIU_Nil@2@@Z)
PUBLIC 1906 0 @ILT+2305(??1?$_Vector_alloc@U?$_Vec_base_types@_WV?$allocator@_W@std@@@std@@@std@@QAE@XZ)
PUBLIC 190b 0 @ILT+2310(__RTC_SetErrorFuncW)
PUBLIC 1910 0 @ILT+2315(?ValidateResponse@CrashGenerationClient@google_breakpad@@ABE_NABUProtocolMessage@2@@Z)
PUBLIC 1915 0 @ILT+2320(__guard_icall_checks_enforced)
PUBLIC 191a 0 @ILT+2325(?_Clamp_suffix_size@?$basic_string@_WU?$char_traits@_W@std@@V?$allocator@_W@2@@std@@QBEIII@Z)
PUBLIC 191f 0 @ILT+2330(?DuplicatePipeToClientProcess@CrashGenerationClient@google_breakpad@@SAPAXPB_WPAX@Z)
PUBLIC 1924 0 @ILT+2335(??0?$basic_string@_WU?$char_traits@_W@std@@V?$allocator@_W@2@@std@@QAE@ABV01@@Z)
PUBLIC 1929 0 @ILT+2340(??$construct@UAppMemory@google_breakpad@@ABU12@@?$_Wrap_alloc@V?$allocator@U?$_List_node@UAppMemory@google_breakpad@@PAX@std@@@std@@@std@@QAEXPAUAppMemory@google_breakpad@@ABU23@@Z)
PUBLIC 192e 0 @ILT+2345(??0exception@std@@QAE@QBDH@Z)
PUBLIC 1933 0 @ILT+2350(?_Eos@?$basic_string@DU?$char_traits@D@std@@V?$allocator@D@2@@std@@QAEXI@Z)
PUBLIC 1938 0 @ILT+2355(___local_stdio_scanf_options)
PUBLIC 193d 0 @ILT+2360(?_Adopt@_Iterator_base0@std@@QAEXPBX@Z)
PUBLIC 1942 0 @ILT+2365(___security_init_cookie)
PUBLIC 1947 0 @ILT+2370(?address@?$_Wrap_alloc@V?$allocator@U_Container_proxy@std@@@std@@@std@@QBEPAU_Container_proxy@2@AAU32@@Z)
PUBLIC 194c 0 @ILT+2375(?_Getal@?$_String_alloc@U?$_String_base_types@_WV?$allocator@_W@std@@@std@@@std@@QBEABU?$_Wrap_alloc@V?$allocator@_W@std@@@2@XZ)
PUBLIC 1951 0 @ILT+2380(___acrt_uninitialize)
PUBLIC 1956 0 @ILT+2385(??$?0U?$_Wrap_alloc@V?$allocator@_W@std@@@std@@$$V@?$_Compressed_pair@U?$_Wrap_alloc@V?$allocator@_W@std@@@std@@V?$_String_val@U?$_Simple_types@_W@std@@@2@$00@std@@QAE@U_One_then_variadic_args_t@1@$$QAU?$_Wrap_alloc@V?$allocator@_W@std@@@1@@Z)
PUBLIC 195b 0 @ILT+2390(?DumpCallback@Breakpad@@YA_NPB_W0PAXPAU_EXCEPTION_POINTERS@@PAUMDRawAssertionInfo@@_N@Z)
PUBLIC 1960 0 @ILT+2395(?_Get_data@?$_String_alloc@U?$_String_base_types@DV?$allocator@D@std@@@std@@@std@@QAEAAV?$_String_val@U?$_Simple_types@D@std@@@2@XZ)
PUBLIC 1965 0 @ILT+2400(??_Eexception@std@@UAEPAXI@Z)
PUBLIC 196a 0 @ILT+2405(?move@?$char_traits@D@std@@SAPADPADPBDI@Z)
PUBLIC 196f 0 @ILT+2410(?__scrt_initialize_type_info@@YAXXZ)
PUBLIC 1974 0 @ILT+2415(?begin@?$list@UAppMemory@google_breakpad@@V?$allocator@UAppMemory@google_breakpad@@@std@@@std@@QAE?AV?$_List_iterator@V?$_List_val@U?$_List_simple_types@UAppMemory@google_breakpad@@@std@@@std@@@2@XZ)
PUBLIC 1979 0 @ILT+2420(__RTC_SetErrorFunc)
PUBLIC 197e 0 @ILT+2425(?qInitResources_qml@@YAHXZ)
PUBLIC 1983 0 @ILT+2430(?_Orphan_ptr@?$list@UAppMemory@google_breakpad@@V?$allocator@UAppMemory@google_breakpad@@@std@@@std@@QAEXPAU?$_List_node@UAppMemory@google_breakpad@@PAX@2@@Z)
PUBLIC 1988 0 @ILT+2435(??1?$vector@DV?$allocator@D@std@@@std@@QAE@XZ)
PUBLIC 198d 0 @ILT+2440(?_Get_first@?$_Compressed_pair@U?$_Wrap_alloc@V?$allocator@D@std@@@std@@V?$_Vector_val@U?$_Simple_types@D@std@@@2@$00@std@@QAEAAU?$_Wrap_alloc@V?$allocator@D@std@@@2@XZ)
PUBLIC 1992 0 @ILT+2445(?__scrt_uninitialize_type_info@@YAXXZ)
PUBLIC 1997 0 @ILT+2450(??8?$_Vector_const_iterator@V?$_Vector_val@U?$_Simple_types@PAVExceptionHandler@google_breakpad@@@std@@@std@@@std@@QBE_NABV01@@Z)
PUBLIC 199c 0 @ILT+2455(??$destroy@U_Container_proxy@std@@@?$allocator@U_Container_proxy@std@@@std@@QAEXPAU_Container_proxy@1@@Z)
PUBLIC 19a1 0 @ILT+2460(?isStatic@RefCount@QtPrivate@@QBE_NXZ)
PUBLIC 19a6 0 @ILT+2465(__Init_thread_abort)
PUBLIC 19ab 0 @ILT+2470(??0?$_List_const_iterator@V?$_List_val@U?$_List_simple_types@UAppMemory@google_breakpad@@@std@@@std@@@std@@QAE@XZ)
PUBLIC 19b0 0 @ILT+2475(___acrt_initialize)
PUBLIC 19b5 0 @ILT+2480(___scrt_initialize_onexit_tables)
PUBLIC 19ba 0 @ILT+2485(??$construct@PA_WAAPA_W@?$allocator_traits@V?$allocator@_W@std@@@std@@SAXAAV?$allocator@_W@1@PAPA_WAAPA_W@Z)
PUBLIC 19bf 0 @ILT+2490(?_Myfirst@?$_Vector_alloc@U?$_Vec_base_types@_WV?$allocator@_W@std@@@std@@@std@@QAEAAPA_WXZ)
PUBLIC 19c4 0 @ILT+2495(___scrt_dllmain_exception_filter)
PUBLIC 19c9 0 @ILT+2500(??0?$_Vector_val@U?$_Simple_types@_W@std@@@std@@QAE@XZ)
PUBLIC 19ce 0 @ILT+2505(??0?$_Iterator012@Ubidirectional_iterator_tag@std@@UAppMemory@google_breakpad@@HPBU34@ABU34@U_Iterator_base12@2@@std@@QAE@ABU01@@Z)
PUBLIC 19d3 0 @ILT+2510(?WriteMinidump@ExceptionHandler@google_breakpad@@QAE_NXZ)
PUBLIC 19d8 0 @ILT+2515(@_RTC_CheckStackVars2@12)
PUBLIC 19dd 0 @ILT+2520(??0?$_Iterator012@Ubidirectional_iterator_tag@std@@UAppMemory@google_breakpad@@HPBU34@ABU34@U_Iterator_base12@2@@std@@QAE@$$QAU01@@Z)
PUBLIC 19e2 0 @ILT+2525(??0?$_List_const_iterator@V?$_List_val@U?$_List_simple_types@UAppMemory@google_breakpad@@@std@@@std@@@std@@QAE@ABV01@@Z)
PUBLIC 19e7 0 @ILT+2530(?__empty_global_delete@@YAXPAX@Z)
PUBLIC 19ec 0 @ILT+2535(??_Etype_info@@UAEPAXI@Z)
PUBLIC 19f1 0 @ILT+2540(??$_Destroy_range1@V?$allocator@PAVExceptionHandler@google_breakpad@@@std@@PAPAVExceptionHandler@google_breakpad@@@std@@YAXPAPAVExceptionHandler@google_breakpad@@0AAU?$_Wrap_alloc@V?$allocator@PAVExceptionHandler@google_breakpad@@@std@@@0@U?$integral_constant@_N$00@0@@Z)
PUBLIC 19f6 0 @ILT+2545(?_Grow_to@?$vector@PAVExceptionHandler@google_breakpad@@V?$allocator@PAVExceptionHandler@google_breakpad@@@std@@@std@@IBEII@Z)
PUBLIC 19fb 0 @ILT+2550(?deallocate@?$_Wrap_alloc@V?$allocator@D@std@@@std@@QAEXPADI@Z)
PUBLIC 1a00 0 @ILT+2555(?_Check_offset@?$basic_string@_WU?$char_traits@_W@std@@V?$allocator@_W@2@@std@@QBEXI@Z)
PUBLIC 1a05 0 @ILT+2560(?end@?$list@UAppMemory@google_breakpad@@V?$allocator@UAppMemory@google_breakpad@@@std@@@std@@QAE?AV?$_List_iterator@V?$_List_val@U?$_List_simple_types@UAppMemory@google_breakpad@@@std@@@std@@@2@XZ)
PUBLIC 1a0a 0 @ILT+2565(__CRT_RTC_INIT)
PUBLIC 1a0f 0 @ILT+2570(?capacity@?$vector@PAVExceptionHandler@google_breakpad@@V?$allocator@PAVExceptionHandler@google_breakpad@@@std@@@std@@QBEIXZ)
PUBLIC 1a14 0 @ILT+2575(??0?$list@UAppMemory@google_breakpad@@V?$allocator@UAppMemory@google_breakpad@@@std@@@std@@QAE@XZ)
PUBLIC 1a19 0 @ILT+2580(??D?$_List_iterator@V?$_List_val@U?$_List_simple_types@UAppMemory@google_breakpad@@@std@@@std@@@std@@QBEAAUAppMemory@google_breakpad@@XZ)
PUBLIC 1a1e 0 @ILT+2585(??$_Buynode@ABUAppMemory@google_breakpad@@@?$_List_buy@UAppMemory@google_breakpad@@V?$allocator@UAppMemory@google_breakpad@@@std@@@std@@QAEPAU?$_List_node@UAppMemory@google_breakpad@@PAX@1@PAU21@0ABUAppMemory@google_breakpad@@@Z)
PUBLIC 1a23 0 @ILT+2590(?_Free_proxy@?$_Vector_alloc@U?$_Vec_base_types@_WV?$allocator@_W@std@@@std@@@std@@QAEXXZ)
PUBLIC 1a28 0 @ILT+2595(??$destroy@PAD@?$allocator_traits@V?$allocator@D@std@@@std@@SAXAAV?$allocator@D@1@PAPAD@Z)
PUBLIC 1a2d 0 @ILT+2600(??$destroy@UAppMemory@google_breakpad@@@?$allocator_traits@V?$allocator@U?$_List_node@UAppMemory@google_breakpad@@PAX@std@@@std@@@std@@SAXAAV?$allocator@U?$_List_node@UAppMemory@google_breakpad@@PAX@std@@@1@PAUAppMemory@google_breakpad@@@Z)
PUBLIC 1a32 0 @ILT+2605(??0?$_List_unchecked_const_iterator@V?$_List_val@U?$_List_simple_types@UAppMemory@google_breakpad@@@std@@@std@@U_Iterator_base12@2@@std@@QAE@PAU?$_List_node@UAppMemory@google_breakpad@@PAX@1@PBV?$_List_val@U?$_List_simple_types@UAppMemory@google_breakpad@@@std@@@1@@Z)
PUBLIC 1a37 0 @ILT+2610(??$_Unfancy@$$CB_W@std@@YAPB_WPB_W@Z)
PUBLIC 1a3c 0 @ILT+2615(?WriteMinidumpWithException@ExceptionHandler@google_breakpad@@AAE_NKPAU_EXCEPTION_POINTERS@@PAUMDRawAssertionInfo@@@Z)
PUBLIC 1a41 0 @ILT+2620(??8?$_List_const_iterator@V?$_List_val@U?$_List_simple_types@UAppMemory@google_breakpad@@@std@@@std@@@std@@QBE_NABV01@@Z)
PUBLIC 1a46 0 @ILT+2625(?WriteMinidumpWithExceptionForProcess@ExceptionHandler@google_breakpad@@AAE_NKPAU_EXCEPTION_POINTERS@@PAUMDRawAssertionInfo@@PAX_N@Z)
PUBLIC 1a4b 0 @ILT+2630(?_Myfirst@?$_Vector_alloc@U?$_Vec_base_types@DV?$allocator@D@std@@@std@@@std@@QAEAAPADXZ)
PUBLIC 1a50 0 @ILT+2635(?node_destruct@?$QList@PAVQObject@@@@AAEXPAUNode@1@0@Z)
PUBLIC 1a55 0 @ILT+2640(?size@?$vector@_WV?$allocator@_W@std@@@std@@QBEIXZ)
PUBLIC 1a5a 0 @ILT+2645(?buggyFunc@@YAHXZ)
PUBLIC 1a5f 0 @ILT+2650(??$_Uninitialized_move_al_unchecked1@PAVExceptionHandler@google_breakpad@@PAV12@V?$allocator@PAVExceptionHandler@google_breakpad@@@std@@@std@@YAPAPAVExceptionHandler@google_breakpad@@PAPAV12@00AAU?$_Wrap_alloc@V?$allocator@PAVExceptionHandler@google_breakpad@@@std@@@0@U_Really_trivial_ptr_iterator_tag@0@U?$integral_constant@_N$00@0@@Z)
PUBLIC 1a64 0 @ILT+2655(??A?$vector@_WV?$allocator@_W@std@@@std@@QAEAA_WI@Z)
PUBLIC 1a69 0 @ILT+2660(??1?$_List_alloc@U?$_List_base_types@UAppMemory@google_breakpad@@V?$allocator@UAppMemory@google_breakpad@@@std@@@std@@@std@@QAE@XZ)
PUBLIC 1a6e 0 @ILT+2665(??C?$scoped_ptr@VCrashGenerationClient@google_breakpad@@@google_breakpad@@QBEPAVCrashGenerationClient@1@XZ)
PUBLIC 1a73 0 @ILT+2670(??E?$_List_const_iterator@V?$_List_val@U?$_List_simple_types@UAppMemory@google_breakpad@@@std@@@std@@@std@@QAEAAV01@XZ)
PUBLIC 1a78 0 @ILT+2675(??0?$_List_unchecked_const_iterator@V?$_List_val@U?$_List_simple_types@UAppMemory@google_breakpad@@@std@@@std@@U_Iterator_base12@2@@std@@QAE@XZ)
PUBLIC 1a7d 0 @ILT+2680(??1?$_Iterator012@Urandom_access_iterator_tag@std@@PAVExceptionHandler@google_breakpad@@HPBQAV34@ABQAV34@U_Iterator_base12@2@@std@@QAE@XZ)
PUBLIC 1a82 0 @ILT+2685(___scrt_initialize_default_local_stdio_options)
PUBLIC 1a87 0 @ILT+2690(??0?$_List_const_iterator@V?$_List_val@U?$_List_simple_types@UAppMemory@google_breakpad@@@std@@@std@@@std@@QAE@$$QAV01@@Z)
PUBLIC 1a8c 0 @ILT+2695(?configure_argv@__scrt_narrow_argv_policy@@SAHXZ)
PUBLIC 1a91 0 @ILT+2700(?_Get_second@?$_Compressed_pair@U?$_Wrap_alloc@V?$allocator@D@std@@@std@@V?$_Vector_val@U?$_Simple_types@D@std@@@2@$00@std@@QAEAAV?$_Vector_val@U?$_Simple_types@D@std@@@2@XZ)
PUBLIC 1a96 0 @ILT+2705(??2@YAPAXI@Z)
PUBLIC 1a9b 0 @ILT+2710(?_Getal@?$_String_alloc@U?$_String_base_types@DV?$allocator@D@std@@@std@@@std@@QBEABU?$_Wrap_alloc@V?$allocator@D@std@@@2@XZ)
PUBLIC 1aa0 0 @ILT+2715(_fprintf)
PUBLIC 1aa5 0 @ILT+2720(??$construct@PAVExceptionHandler@google_breakpad@@ABQAV12@@?$_Wrap_alloc@V?$allocator@PAVExceptionHandler@google_breakpad@@@std@@@std@@QAEXPAPAVExceptionHandler@google_breakpad@@ABQAV23@@Z)
PUBLIC 1aaa 0 @ILT+2725(?_Get_second@?$_Compressed_pair@U?$_Wrap_alloc@V?$allocator@PAVExceptionHandler@google_breakpad@@@std@@@std@@V?$_Vector_val@U?$_Simple_types@PAVExceptionHandler@google_breakpad@@@std@@@2@$00@std@@QBEABV?$_Vector_val@U?$_Simple_types@PAVExceptionHandler@google_breakpad@@@std@@@2@XZ)
PUBLIC 1aaf 0 @ILT+2730(??0ProtocolMessage@google_breakpad@@QAE@XZ)
PUBLIC 1ab4 0 @ILT+2735(__onexit)
PUBLIC 1ab9 0 @ILT+2740(??0?$_String_alloc@U?$_String_base_types@_WV?$allocator@_W@std@@@std@@@std@@QAE@XZ)
PUBLIC 1abe 0 @ILT+2745(?replace@?$basic_string@_WU?$char_traits@_W@std@@V?$allocator@_W@2@@std@@QAEAAV12@V?$_String_const_iterator@V?$_String_val@U?$_Simple_types@_W@std@@@std@@@2@0V?$_String_iterator@V?$_String_val@U?$_Simple_types@_W@std@@@std@@@2@1@Z)
PUBLIC 1ac3 0 @ILT+2750(?deallocate@?$allocator@D@std@@QAEXPADI@Z)
PUBLIC 1ac8 0 @ILT+2755(?_Getal@?$_Vector_alloc@U?$_Vec_base_types@PAVExceptionHandler@google_breakpad@@V?$allocator@PAVExceptionHandler@google_breakpad@@@std@@@std@@@std@@QBEABU?$_Wrap_alloc@V?$allocator@PAVExceptionHandler@google_breakpad@@@std@@@2@XZ)
PUBLIC 1acd 0 @ILT+2760(??$destroy@PAU?$_List_node@UAppMemory@google_breakpad@@PAX@std@@@?$_Wrap_alloc@V?$allocator@U?$_List_node@UAppMemory@google_breakpad@@PAX@std@@@std@@@std@@QAEXPAPAU?$_List_node@UAppMemory@google_breakpad@@PAX@1@@Z)
PUBLIC 1ad2 0 @ILT+2765(??0_Container_base12@std@@QAE@XZ)
PUBLIC 1ad7 0 @ILT+2770(?pointer_to@?$pointer_traits@PBUAppMemory@google_breakpad@@@std@@SAPBUAppMemory@google_breakpad@@ABU34@@Z)
PUBLIC 1adc 0 @ILT+2775(??0?$vector@DV?$allocator@D@std@@@std@@QAE@I@Z)
PUBLIC 1ae1 0 @ILT+2780(??1_Iterator_base12@std@@QAE@XZ)
PUBLIC 1ae6 0 @ILT+2785(?assign@?$basic_string@_WU?$char_traits@_W@std@@V?$allocator@_W@2@@std@@QAEAAV12@PB_WI@Z)
PUBLIC 1aeb 0 @ILT+2790(?erase@?$list@UAppMemory@google_breakpad@@V?$allocator@UAppMemory@google_breakpad@@@std@@@std@@QAE?AV?$_List_iterator@V?$_List_val@U?$_List_simple_types@UAppMemory@google_breakpad@@@std@@@std@@@2@V?$_List_const_iterator@V?$_List_val@U?$_List_simple_types@UAppMemory@google_breakpad@@@std@@@std@@@2@@Z)
PUBLIC 1af0 0 @ILT+2795(___scrt_dllmain_uninitialize_c)
PUBLIC 1af5 0 @ILT+2800(@_RTC_CheckStackVars@8)
PUBLIC 1afa 0 @ILT+2805(??_Ebad_array_new_length@std@@UAEPAXI@Z)
PUBLIC 1aff 0 @ILT+2810(??4?$basic_string@_WU?$char_traits@_W@std@@V?$allocator@_W@2@@std@@QAEAAV01@ABV01@@Z)
PUBLIC 1b04 0 @ILT+2815(??1?$_Iterator012@Ubidirectional_iterator_tag@std@@UAppMemory@google_breakpad@@HPBU34@ABU34@U_Iterator_base12@2@@std@@QAE@XZ)
PUBLIC 1b09 0 @ILT+2820(??$?0_W@?$allocator@U_Container_proxy@std@@@std@@QAE@ABV?$allocator@_W@1@@Z)
PUBLIC 1b0e 0 @ILT+2825(?deallocate@?$allocator@U?$_List_node@UAppMemory@google_breakpad@@PAX@std@@@std@@QAEXPAU?$_List_node@UAppMemory@google_breakpad@@PAX@2@I@Z)
PUBLIC 1b13 0 @ILT+2830(??0?$_List_buy@UAppMemory@google_breakpad@@V?$allocator@UAppMemory@google_breakpad@@@std@@@std@@QAE@XZ)
PUBLIC 1b18 0 @ILT+2835(??$construct@PADAAPAD@?$allocator@D@std@@QAEXPAPADAAPAD@Z)
PUBLIC 1b1d 0 @ILT+2840(?_Alloc_proxy@?$_List_alloc@U?$_List_base_types@UAppMemory@google_breakpad@@V?$allocator@UAppMemory@google_breakpad@@@std@@@std@@@std@@QAEXXZ)
PUBLIC 1b22 0 @ILT+2845(?replace@?$basic_string@_WU?$char_traits@_W@std@@V?$allocator@_W@2@@std@@QAEAAV12@IIPB_WI@Z)
PUBLIC 1b27 0 @ILT+2850(?_Getal@?$_String_alloc@U?$_String_base_types@_WV?$allocator@_W@std@@@std@@@std@@QAEAAU?$_Wrap_alloc@V?$allocator@_W@std@@@2@XZ)
PUBLIC 1b2c 0 @ILT+2855(??$min@_K@std@@YAAB_KAB_K0@Z)
PUBLIC 1b31 0 @ILT+2860(__Init_thread_lock)
PUBLIC 1b36 0 @ILT+2865(@__security_check_cookie@4)
PUBLIC 1b3b 0 @ILT+2870(??0?$_Vector_const_iterator@V?$_Vector_val@U?$_Simple_types@PAVExceptionHandler@google_breakpad@@@std@@@std@@@std@@QAE@ABV01@@Z)
PUBLIC 1b40 0 @ILT+2875(__Init_thread_wait)
PUBLIC 1b45 0 @ILT+2880(___scrt_get_dyn_tls_init_callback)
PUBLIC 1b4a 0 @ILT+2885(?_Destroy@?$vector@DV?$allocator@D@std@@@std@@IAEXPAD0@Z)
PUBLIC 1b4f 0 @ILT+2890(??1?$_List_buy@UAppMemory@google_breakpad@@V?$allocator@UAppMemory@google_breakpad@@@std@@@std@@QAE@XZ)
PUBLIC 1b54 0 @ILT+2895(?_Myend@?$_Vector_alloc@U?$_Vec_base_types@_WV?$allocator@_W@std@@@std@@@std@@QAEAAPA_WXZ)
PUBLIC 1b59 0 @ILT+2900(??1?$_Vector_alloc@U?$_Vec_base_types@DV?$allocator@D@std@@@std@@@std@@QAE@XZ)
PUBLIC 1b5e 0 @ILT+2905(?_Myptr@?$_String_alloc@U?$_String_base_types@_WV?$allocator@_W@std@@@std@@@std@@QAEPA_WXZ)
PUBLIC 1b63 0 @ILT+2910(_wmemchr)
PUBLIC 1b68 0 @ILT+2915(___scrt_initialize_crt)
PUBLIC 1b6d 0 @ILT+2920(??1?$_Vector_alloc@U?$_Vec_base_types@PAVExceptionHandler@google_breakpad@@V?$allocator@PAVExceptionHandler@google_breakpad@@@std@@@std@@@std@@QAE@XZ)
PUBLIC 1b72 0 @ILT+2925(?data_ptr@?$QStaticStringData@$0N@@@QBEPAU?$QTypedArrayData@G@@XZ)
PUBLIC 1b77 0 @ILT+2930(@_guard_check_icall_nop@4)
PUBLIC 1b7c 0 @ILT+2935(_wmemcpy)
PUBLIC 1b81 0 @ILT+2940(___scrt_get_show_window_mode)
PUBLIC 1b86 0 @ILT+2945(?_Unchecked@?$_List_iterator@V?$_List_val@U?$_List_simple_types@UAppMemory@google_breakpad@@@std@@@std@@@std@@QBE?AV?$_List_unchecked_iterator@V?$_List_val@U?$_List_simple_types@UAppMemory@google_breakpad@@@std@@@std@@@2@XZ)
PUBLIC 1b8b 0 @ILT+2950(___acrt_thread_attach)
PUBLIC 1b90 0 @ILT+2955(_main)
PUBLIC 1b95 0 @ILT+2960(?address@?$_Wrap_alloc@V?$allocator@_W@std@@@std@@QBEPA_WAA_W@Z)
PUBLIC 1b9a 0 @ILT+2965(??$destroy@UAppMemory@google_breakpad@@@?$allocator@U?$_List_node@UAppMemory@google_breakpad@@PAX@std@@@std@@QAEXPAUAppMemory@google_breakpad@@@Z)
PUBLIC 1b9f 0 @ILT+2970(?_Make_iter@?$vector@PAVExceptionHandler@google_breakpad@@V?$allocator@PAVExceptionHandler@google_breakpad@@@std@@@std@@QBE?AV?$_Vector_iterator@V?$_Vector_val@U?$_Simple_types@PAVExceptionHandler@google_breakpad@@@std@@@std@@@2@V?$_Vector_const_iterator@V?$_Vector_val@U?$_Simple_types@PAVExceptionHandler@google_breakpad@@@std@@@std@@@2@@Z)
PUBLIC 1ba4 0 @ILT+2975(?IsRegistered@CrashGenerationClient@google_breakpad@@ABE_NXZ)
PUBLIC 1ba9 0 @ILT+2980(??_GQString@@QAEPAXI@Z)
PUBLIC 1bae 0 @ILT+2985(??1?$_Compressed_pair@U?$_Wrap_alloc@V?$allocator@U?$_List_node@UAppMemory@google_breakpad@@PAX@std@@@std@@@std@@V?$_List_val@U?$_List_simple_types@UAppMemory@google_breakpad@@@std@@@2@$00@std@@QAE@XZ)
PUBLIC 1bb3 0 @ILT+2990(?_Mysize@?$_List_alloc@U?$_List_base_types@UAppMemory@google_breakpad@@V?$allocator@UAppMemory@google_breakpad@@@std@@@std@@@std@@QAEAAIXZ)
PUBLIC 1bb8 0 @ILT+2995(?HandleInvalidParameter@ExceptionHandler@google_breakpad@@CAXPB_W00II@Z)
PUBLIC 1bbd 0 @ILT+3000(?_Buyheadnode@?$_List_alloc@U?$_List_base_types@UAppMemory@google_breakpad@@V?$allocator@UAppMemory@google_breakpad@@@std@@@std@@@std@@QAEPAU?$_List_node@UAppMemory@google_breakpad@@PAX@2@XZ)
PUBLIC 1bc2 0 @ILT+3005(??$_Uninitialized_move_al_unchecked@PAPAVExceptionHandler@google_breakpad@@PAPAV12@V?$allocator@PAVExceptionHandler@google_breakpad@@@std@@@std@@YAPAPAVExceptionHandler@google_breakpad@@PAPAV12@00AAU?$_Wrap_alloc@V?$allocator@PAVExceptionHandler@google_breakpad@@@std@@@0@@Z)
PUBLIC 1bc7 0 @ILT+3010(??$_Unfancy@PAVExceptionHandler@google_breakpad@@@std@@YAPAPAVExceptionHandler@google_breakpad@@PAPAV12@@Z)
PUBLIC 1bcc 0 @ILT+3015(?max_size@?$allocator@PAVExceptionHandler@google_breakpad@@@std@@QBEIXZ)
PUBLIC 1bd1 0 @ILT+3020(??$_Debug_lt@AB_KAB_K@std@@YA_NAB_K0PB_WI@Z)
PUBLIC 1bd6 0 @ILT+3025(___scrt_dllmain_crt_thread_attach)
PUBLIC 1bdb 0 @ILT+3030(?_Xlen@?$basic_string@DU?$char_traits@D@std@@V?$allocator@D@2@@std@@QBEXXZ)
PUBLIC 1be0 0 @ILT+3035(___scrt_dllmain_crt_thread_detach)
PUBLIC 1be5 0 @ILT+3040(??$construct@PAU?$_List_node@UAppMemory@google_breakpad@@PAX@std@@AAPAU12@@?$allocator_traits@V?$allocator@U?$_List_node@UAppMemory@google_breakpad@@PAX@std@@@std@@@std@@SAXAAV?$allocator@U?$_List_node@UAppMemory@google_breakpad@@PAX@std@@@1@PAPAU?$_List_node@UAppMemory@google_breakpad@@PAX@1@AAPAU31@@Z)
PUBLIC 1bea 0 @ILT+3045(?find_last_of@?$basic_string@_WU?$char_traits@_W@std@@V?$allocator@_W@2@@std@@QBEIPB_WII@Z)
PUBLIC 1bef 0 @ILT+3050(??$?0U?$_Wrap_alloc@V?$allocator@_W@std@@@std@@X@?$_String_alloc@U?$_String_base_types@_WV?$allocator@_W@std@@@std@@@std@@QAE@$$QAU?$_Wrap_alloc@V?$allocator@_W@std@@@1@@Z)
PUBLIC 1bf4 0 @ILT+3055(?_Mynode@?$_List_unchecked_const_iterator@V?$_List_val@U?$_List_simple_types@UAppMemory@google_breakpad@@@std@@@std@@U_Iterator_base0@2@@std@@QBEPAU?$_List_node@UAppMemory@google_breakpad@@PAX@2@XZ)
PUBLIC 1bf9 0 @ILT+3060(__snwprintf_s)
PUBLIC 1bfe 0 @ILT+3065(?_Deallocate@std@@YAXPAXII@Z)
PUBLIC 1c03 0 @ILT+3070(?move@?$char_traits@_W@std@@SAPA_WPA_WPB_WI@Z)
PUBLIC 1c08 0 @ILT+3075(?_Get_first@?$_Compressed_pair@U?$_Wrap_alloc@V?$allocator@_W@std@@@std@@V?$_String_val@U?$_Simple_types@_W@std@@@2@$00@std@@QBEABU?$_Wrap_alloc@V?$allocator@_W@std@@@2@XZ)
PUBLIC 1c0d 0 @ILT+3080(??$?0$$V@?$_Compressed_pair@U?$_Wrap_alloc@V?$allocator@_W@std@@@std@@V?$_Vector_val@U?$_Simple_types@_W@std@@@2@$00@std@@QAE@U_Zero_then_variadic_args_t@1@@Z)
PUBLIC 1c12 0 @ILT+3085(?WriteMinidumpOnHandlerThread@ExceptionHandler@google_breakpad@@AAE_NPAU_EXCEPTION_POINTERS@@PAUMDRawAssertionInfo@@@Z)
PUBLIC 1c17 0 @ILT+3090(?GUIDToWString@GUIDString@google_breakpad@@SA?AV?$basic_string@_WU?$char_traits@_W@std@@V?$allocator@_W@2@@std@@PAU_GUID@@@Z)
PUBLIC 1c1c 0 @ILT+3095(?assign@?$char_traits@D@std@@SAXAADABD@Z)
PUBLIC 1c21 0 @ILT+3100(?_Incsize@?$list@UAppMemory@google_breakpad@@V?$allocator@UAppMemory@google_breakpad@@@std@@@std@@QAEXI@Z)
PUBLIC 1c26 0 @ILT+3105(?WriteMinidumpForChild@ExceptionHandler@google_breakpad@@SA_NPAXKABV?$basic_string@_WU?$char_traits@_W@std@@V?$allocator@_W@2@@std@@P6A_NPB_W20PAU_EXCEPTION_POINTERS@@PAUMDRawAssertionInfo@@_N@Z0W4_MINIDUMP_TYPE@@@Z)
PUBLIC 1c2b 0 @ILT+3110(??$addressof@UAppMemory@google_breakpad@@@std@@YAPAUAppMemory@google_breakpad@@AAU12@@Z)
PUBLIC 1c30 0 @ILT+3115(??1AutoExceptionHandler@google_breakpad@@QAE@XZ)
PUBLIC 1c35 0 @ILT+3120(??$deref@H@?$QAtomicOpsBySize@$03@@SA_NAAH@Z)
PUBLIC 1c3a 0 @ILT+3125(__RTC_SetErrorType)
PUBLIC 1c3f 0 @ILT+3130(?IsOutOfProcess@ExceptionHandler@google_breakpad@@QBE_NXZ)
PUBLIC 1c44 0 @ILT+3135(??1?$_String_iterator@V?$_String_val@U?$_Simple_types@_W@std@@@std@@@std@@QAE@XZ)
PUBLIC 1c49 0 @ILT+3140(??$destroy@PAU?$_List_node@UAppMemory@google_breakpad@@PAX@std@@@?$allocator@U?$_List_node@UAppMemory@google_breakpad@@PAX@std@@@std@@QAEXPAPAU?$_List_node@UAppMemory@google_breakpad@@PAX@1@@Z)
PUBLIC 1c4e 0 @ILT+3145(??0?$allocator@U?$_List_node@UAppMemory@google_breakpad@@PAX@std@@@std@@QAE@XZ)
PUBLIC 1c53 0 @ILT+3150(?_Free_proxy@?$_Vector_alloc@U?$_Vec_base_types@PAVExceptionHandler@google_breakpad@@V?$allocator@PAVExceptionHandler@google_breakpad@@@std@@@std@@@std@@QAEXXZ)
PUBLIC 1c58 0 @ILT+3155(??D?$_Vector_iterator@V?$_Vector_val@U?$_Simple_types@PAVExceptionHandler@google_breakpad@@@std@@@std@@@std@@QBEAAPAVExceptionHandler@google_breakpad@@XZ)
PUBLIC 1c5d 0 @ILT+3160(??0?$_Wrap_alloc@V?$allocator@PAVExceptionHandler@google_breakpad@@@std@@@std@@QAE@XZ)
PUBLIC 1c62 0 @ILT+3165(___scrt_stub_for_is_c_termination_complete)
PUBLIC 1c67 0 @ILT+3170(?erase@?$basic_string@DU?$char_traits@D@std@@V?$allocator@D@2@@std@@QAEAAV12@II@Z)
PUBLIC 1c6c 0 @ILT+3175(?__scrt_throw_std_bad_array_new_length@@YAXXZ)
PUBLIC 1c71 0 @ILT+3180(?isEmpty@?$QList@PAVQObject@@@@QBE_NXZ)
PUBLIC 1c76 0 @ILT+3185(??$_Find_unchecked@V?$_List_unchecked_iterator@V?$_List_val@U?$_List_simple_types@UAppMemory@google_breakpad@@@std@@@std@@@std@@PAX@std@@YA?AV?$_List_unchecked_iterator@V?$_List_val@U?$_List_simple_types@UAppMemory@google_breakpad@@@std@@@std@@@0@V10@0ABQAX@Z)
PUBLIC 1c7b 0 @ILT+3190(@_guard_check_icall@4)
PUBLIC 1c80 0 @ILT+3195(?_Getpfirst@_Container_base12@std@@QBEPAPAU_Iterator_base12@2@XZ)
PUBLIC 1c85 0 @ILT+3200(___report_gsfailure)
PUBLIC 1c8a 0 @ILT+3205(?_Myptr@?$_String_val@U?$_Simple_types@D@std@@@std@@QBEPBDXZ)
PUBLIC 1c8f 0 @ILT+3210(?_Tidy@?$vector@DV?$allocator@D@std@@@std@@IAEXXZ)
PUBLIC 1c94 0 @ILT+3215(?RegisterAppMemory@ExceptionHandler@google_breakpad@@QAEXPAXI@Z)
PUBLIC 1c99 0 @ILT+3220(??0?$_Vector_val@U?$_Simple_types@PAVExceptionHandler@google_breakpad@@@std@@@std@@QAE@XZ)
PUBLIC 1c9e 0 @ILT+3225(??$_Uninitialized_default_fill_n@PA_WIV?$allocator@_W@std@@@std@@YAXPA_WIAAU?$_Wrap_alloc@V?$allocator@_W@std@@@0@@Z)
PUBLIC 1ca3 0 @ILT+3230(??$?9V?$allocator@_W@std@@V01@@std@@YA_NABU?$_Wrap_alloc@V?$allocator@_W@std@@@0@0@Z)
PUBLIC 1ca8 0 @ILT+3235(?_Rechecked@?$_List_iterator@V?$_List_val@U?$_List_simple_types@UAppMemory@google_breakpad@@@std@@@std@@@std@@QAEAAV12@V?$_List_unchecked_iterator@V?$_List_val@U?$_List_simple_types@UAppMemory@google_breakpad@@@std@@@std@@@2@@Z)
PUBLIC 1cad 0 @ILT+3240(?_Bx@?$_String_alloc@U?$_String_base_types@DV?$allocator@D@std@@@std@@@std@@QAEAAT_Bxty@?$_String_val@U?$_Simple_types@D@std@@@2@XZ)
PUBLIC 1cb2 0 @ILT+3245(??4?$basic_string@DU?$char_traits@D@std@@V?$allocator@D@2@@std@@QAEAAV01@PBD@Z)
PUBLIC 1cb7 0 @ILT+3250(??$forward@AAU?$_Wrap_alloc@V?$allocator@D@std@@@std@@@std@@YAAAU?$_Wrap_alloc@V?$allocator@D@std@@@0@AAU10@@Z)
PUBLIC 1cbc 0 @ILT+3255(??C?$_List_unchecked_const_iterator@V?$_List_val@U?$_List_simple_types@UAppMemory@google_breakpad@@@std@@@std@@U_Iterator_base12@2@@std@@QBEPBUAppMemory@google_breakpad@@XZ)
PUBLIC 1cc1 0 @ILT+3260(??$construct@PADAAPAD@?$allocator_traits@V?$allocator@D@std@@@std@@SAXAAV?$allocator@D@1@PAPADAAPAD@Z)
PUBLIC 1cc6 0 @ILT+3265(?_Myval@?$_List_val@U?$_List_simple_types@UAppMemory@google_breakpad@@@std@@@std@@SAAAUAppMemory@google_breakpad@@PAU?$_List_node@UAppMemory@google_breakpad@@PAX@2@@Z)
PUBLIC 1ccb 0 @ILT+3270(?Register@CrashGenerationClient@google_breakpad@@QAE_NXZ)
PUBLIC 1cd0 0 @ILT+3275(?_Xlen@?$vector@PAVExceptionHandler@google_breakpad@@V?$allocator@PAVExceptionHandler@google_breakpad@@@std@@@std@@IBEXXZ)
PUBLIC 1cd5 0 @ILT+3280(?_Get_first@?$_Compressed_pair@U?$_Wrap_alloc@V?$allocator@PAVExceptionHandler@google_breakpad@@@std@@@std@@V?$_Vector_val@U?$_Simple_types@PAVExceptionHandler@google_breakpad@@@std@@@2@$00@std@@QBEABU?$_Wrap_alloc@V?$allocator@PAVExceptionHandler@google_breakpad@@@std@@@2@XZ)
PUBLIC 1cda 0 @ILT+3285(??1CrashGenerationClient@google_breakpad@@QAE@XZ)
PUBLIC 1cdf 0 @ILT+3290(?_Get_data@?$_Vector_alloc@U?$_Vec_base_types@_WV?$allocator@_W@std@@@std@@@std@@QBEABV?$_Vector_val@U?$_Simple_types@_W@std@@@2@XZ)
PUBLIC 1ce4 0 @ILT+3295(??$_Move_unchecked1@PAPAVExceptionHandler@google_breakpad@@PAPAV12@@std@@YAPAPAVExceptionHandler@google_breakpad@@PAPAV12@00U_Trivially_copyable_ptr_iterator_tag@0@@Z)
PUBLIC 1ce9 0 @ILT+3300(?_Check_offset@?$basic_string@DU?$char_traits@D@std@@V?$allocator@D@2@@std@@QBEXI@Z)
PUBLIC 1cee 0 @ILT+3305(?RegisterClient@CrashGenerationClient@google_breakpad@@AAE_NPAX@Z)
PUBLIC 1cf3 0 @ILT+3310(?replace@?$basic_string@_WU?$char_traits@_W@std@@V?$allocator@_W@2@@std@@QAEAAV12@IIABV12@II@Z)
PUBLIC 1cf8 0 @ILT+3315(?get_handle_debug_exceptions@ExceptionHandler@google_breakpad@@QBE_NXZ)
PUBLIC 1cfd 0 @ILT+3320(?_Myptr@?$_String_val@U?$_Simple_types@_W@std@@@std@@QBEPB_WXZ)
PUBLIC 1d02 0 @ILT+3325(??0?$_Iterator012@Urandom_access_iterator_tag@std@@_WHPB_WAB_WU_Iterator_base12@2@@std@@QAE@$$QAU01@@Z)
PUBLIC 1d07 0 @ILT+3330(??1?$_Compressed_pair@U?$_Wrap_alloc@V?$allocator@_W@std@@@std@@V?$_Vector_val@U?$_Simple_types@_W@std@@@2@$00@std@@QAE@XZ)
PUBLIC 1d0c 0 @ILT+3335(??4?$_List_const_iterator@V?$_List_val@U?$_List_simple_types@UAppMemory@google_breakpad@@@std@@@std@@@std@@QAEAAV01@$$QAV01@@Z)
PUBLIC 1d11 0 @ILT+3340(?RequestUpload@ExceptionHandler@google_breakpad@@QAE_NK@Z)
PUBLIC 1d16 0 @ILT+3345(?copy@?$char_traits@D@std@@SAPADPADPBDI@Z)
PUBLIC 1d1b 0 @ILT+3350(??$?0AAU?$_Wrap_alloc@V?$allocator@_W@std@@@std@@@?$_Wrap_alloc@V?$allocator@U_Container_proxy@std@@@std@@@std@@QAE@AAU?$_Wrap_alloc@V?$allocator@_W@std@@@1@@Z)
PUBLIC 1d20 0 @ILT+3355(??_Eexception@std@@UAEPAXI@Z)
PUBLIC 1d25 0 @ILT+3360(?front@?$list@UAppMemory@google_breakpad@@V?$allocator@UAppMemory@google_breakpad@@@std@@@std@@QAEAAUAppMemory@google_breakpad@@XZ)
PUBLIC 1d2a 0 @ILT+3365(?allocate@?$_Wrap_alloc@V?$allocator@U_Container_proxy@std@@@std@@@std@@QAEPAU_Container_proxy@2@I@Z)
PUBLIC 1d2f 0 @ILT+3370(??$destroy@UAppMemory@google_breakpad@@@?$_Wrap_alloc@V?$allocator@U?$_List_node@UAppMemory@google_breakpad@@PAX@std@@@std@@@std@@QAEXPAUAppMemory@google_breakpad@@@Z)
PUBLIC 1d34 0 @ILT+3375(?_Buy@?$vector@DV?$allocator@D@std@@@std@@IAE_NI@Z)
PUBLIC 1d39 0 @ILT+3380(?empty@?$vector@PAVExceptionHandler@google_breakpad@@V?$allocator@PAVExceptionHandler@google_breakpad@@@std@@@std@@QBE_NXZ)
PUBLIC 1d3e 0 @ILT+3385(?_Free_proxy@?$_Vector_alloc@U?$_Vec_base_types@DV?$allocator@D@std@@@std@@@std@@QAEXXZ)
PUBLIC 1d43 0 @ILT+3390(??$__crt_fast_encode_pointer@PAP6AXXZ@@YAPAP6AXXZQAP6AXXZ@Z)
PUBLIC 1d48 0 @ILT+3395(?_Unused_capacity@?$vector@PAVExceptionHandler@google_breakpad@@V?$allocator@PAVExceptionHandler@google_breakpad@@@std@@@std@@QBEIXZ)
PUBLIC 1d4d 0 @ILT+3400(??0AutoExceptionHandler@google_breakpad@@QAE@XZ)
PUBLIC 1d52 0 @ILT+3405(?_Buy@?$vector@_WV?$allocator@_W@std@@@std@@IAE_NI@Z)
PUBLIC 1d57 0 @ILT+3410(??0bad_array_new_length@std@@QAE@ABV01@@Z)
PUBLIC 1d5c 0 @ILT+3415(??$destroy@PAD@?$allocator@D@std@@QAEXPAPAD@Z)
PUBLIC 1d61 0 @ILT+3420(?_RTC_GetErrorFunc@@YAP6AHHPBDH00ZZPBX@Z)
PUBLIC 1d66 0 @ILT+3425(?_Getal@?$_Vector_alloc@U?$_Vec_base_types@_WV?$allocator@_W@std@@@std@@@std@@QBEABU?$_Wrap_alloc@V?$allocator@_W@std@@@2@XZ)
PUBLIC 1d6b 0 @ILT+3430(??$construct@PAVExceptionHandler@google_breakpad@@AAPAV12@@?$allocator_traits@V?$allocator@PAVExceptionHandler@google_breakpad@@@std@@@std@@SAXAAV?$allocator@PAVExceptionHandler@google_breakpad@@@1@PAPAVExceptionHandler@google_breakpad@@AAPAV34@@Z)
PUBLIC 1d70 0 @ILT+3435(?_Mylast@?$_Vector_alloc@U?$_Vec_base_types@DV?$allocator@D@std@@@std@@@std@@QBEABQADXZ)
PUBLIC 1d75 0 @ILT+3440(?max_size@?$vector@DV?$allocator@D@std@@@std@@QBEIXZ)
PUBLIC 1d7a 0 @ILT+3445(??0?$_Vector_alloc@U?$_Vec_base_types@PAVExceptionHandler@google_breakpad@@V?$allocator@PAVExceptionHandler@google_breakpad@@@std@@@std@@@std@@QAE@XZ)
PUBLIC 1d7f 0 @ILT+3450(?_Reallocate@?$vector@PAVExceptionHandler@google_breakpad@@V?$allocator@PAVExceptionHandler@google_breakpad@@@std@@@std@@IAEXI@Z)
PUBLIC 1d84 0 @ILT+3455(?assign@?$basic_string@DU?$char_traits@D@std@@V?$allocator@D@2@@std@@QAEAAV12@ABV12@II@Z)
PUBLIC 1d89 0 @ILT+3460(?_Orphan_all@?$_String_alloc@U?$_String_base_types@_WV?$allocator@_W@std@@@std@@@std@@QAEXXZ)
PUBLIC 1d8e 0 @ILT+3465(??4?$_Vector_const_iterator@V?$_Vector_val@U?$_Simple_types@PAVExceptionHandler@google_breakpad@@@std@@@std@@@std@@QAEAAV01@$$QAV01@@Z)
PUBLIC 1d93 0 @ILT+3470(_sprintf_s)
PUBLIC 1d98 0 @ILT+3475(??4?$_Iterator012@Urandom_access_iterator_tag@std@@PAVExceptionHandler@google_breakpad@@HPBQAV34@ABQAV34@U_Iterator_base12@2@@std@@QAEAAU01@$$QAU01@@Z)
PUBLIC 1d9d 0 @ILT+3480(??G?$_String_iterator@V?$_String_val@U?$_Simple_types@_W@std@@@std@@@std@@QBEHABV?$_String_const_iterator@V?$_String_val@U?$_Simple_types@_W@std@@@std@@@1@@Z)
PUBLIC 1da2 0 @ILT+3485(??$__crt_fast_decode_pointer@P6GXPAU_RTL_CONDITION_VARIABLE@@@Z@@YAP6GXPAU_RTL_CONDITION_VARIABLE@@@ZQ6GX0@Z@Z)
PUBLIC 1da7 0 @ILT+3490(___scrt_stub_for_is_c_termination_complete)
PUBLIC 1dac 0 @ILT+3495(??$destroy@PA_W@?$allocator_traits@V?$allocator@_W@std@@@std@@SAXAAV?$allocator@_W@1@PAPA_W@Z)
PUBLIC 1db1 0 @ILT+3500(?_Buynode0@?$_List_alloc@U?$_List_base_types@UAppMemory@google_breakpad@@V?$allocator@UAppMemory@google_breakpad@@@std@@@std@@@std@@QAEPAU?$_List_node@UAppMemory@google_breakpad@@PAX@2@PAU32@0@Z)
PUBLIC 1db6 0 @ILT+3505(??0bad_alloc@std@@QAE@ABV01@@Z)
PUBLIC 1dbb 0 @ILT+3510(??$__crt_fast_encode_pointer@P6GHPAU_RTL_CONDITION_VARIABLE@@PAU_RTL_CRITICAL_SECTION@@K@Z@@YAP6GHPAU_RTL_CONDITION_VARIABLE@@PAU_RTL_CRITICAL_SECTION@@K@ZQ6GH01K@Z@Z)
PUBLIC 1dc0 0 @ILT+3515(___scrt_release_startup_lock)
PUBLIC 1dc5 0 @ILT+3520(?clear@?$list@UAppMemory@google_breakpad@@V?$allocator@UAppMemory@google_breakpad@@@std@@@std@@QAEXXZ)
PUBLIC 1dca 0 @ILT+3525(??$_Debug_range@V?$_List_iterator@V?$_List_val@U?$_List_simple_types@UAppMemory@google_breakpad@@@std@@@std@@@std@@@std@@YAXV?$_List_iterator@V?$_List_val@U?$_List_simple_types@UAppMemory@google_breakpad@@@std@@@std@@@0@0PB_WI@Z)
PUBLIC 1dcf 0 @ILT+3530(__RTC_GetErrDesc)
PUBLIC 1dd4 0 @ILT+3535(?deallocate@?$allocator@_W@std@@QAEXPA_WI@Z)
PUBLIC 1dd9 0 @ILT+3540(?UpdateNextID@ExceptionHandler@google_breakpad@@AAEXXZ)
PUBLIC 1dde 0 @ILT+3545(?pointer_to@?$pointer_traits@PAU_Container_proxy@std@@@std@@SAPAU_Container_proxy@2@AAU32@@Z)
PUBLIC 1de3 0 @ILT+3550(??0_Iterator_base12@std@@QAE@XZ)
PUBLIC 1de8 0 @ILT+3555(??$construct@PA_WAAPA_W@?$_Wrap_alloc@V?$allocator@_W@std@@@std@@QAEXPAPA_WAAPA_W@Z)
PUBLIC 1ded 0 @ILT+3560(??0?$_Iterator012@Urandom_access_iterator_tag@std@@PAVExceptionHandler@google_breakpad@@HPBQAV34@ABQAV34@U_Iterator_base12@2@@std@@QAE@XZ)
PUBLIC 1df2 0 @ILT+3565(?find@?$char_traits@_W@std@@SAPB_WPB_WIAB_W@Z)
PUBLIC 1df7 0 @ILT+3570(??G?$_String_const_iterator@V?$_String_val@U?$_Simple_types@_W@std@@@std@@@std@@QBEHABV01@@Z)
PUBLIC 1dfc 0 @ILT+3575(??2@YAPAXIPAX@Z)
PUBLIC 1e01 0 @ILT+3580(?size@?$vector@DV?$allocator@D@std@@@std@@QBEIXZ)
PUBLIC 1e06 0 @ILT+3585(?qCleanupResources_qml@@YAHXZ)
PUBLIC 1e0b 0 @ILT+3590(??0?$_String_iterator@V?$_String_val@U?$_Simple_types@_W@std@@@std@@@std@@QAE@PA_WPBU_Container_base12@1@@Z)
PUBLIC 1e10 0 @ILT+3595(___scrt_acquire_startup_lock)
PUBLIC 1e15 0 @ILT+3600(??0CrashGenerationClient@google_breakpad@@QAE@PB_WW4_MINIDUMP_TYPE@@PBUCustomClientInfo@1@@Z)
PUBLIC 1e1a 0 @ILT+3605(??$_Pocca@U?$_Wrap_alloc@V?$allocator@_W@std@@@std@@@std@@YAXAAU?$_Wrap_alloc@V?$allocator@_W@std@@@0@ABU10@@Z)
PUBLIC 1e1f 0 @ILT+3610(??$forward@ABQAVExceptionHandler@google_breakpad@@@std@@YAABQAVExceptionHandler@google_breakpad@@ABQAV12@@Z)
PUBLIC 1e24 0 @ILT+3615(??$?0$$V@?$_Compressed_pair@U?$_Wrap_alloc@V?$allocator@PAVExceptionHandler@google_breakpad@@@std@@@std@@V?$_Vector_val@U?$_Simple_types@PAVExceptionHandler@google_breakpad@@@std@@@2@$00@std@@QAE@U_Zero_then_variadic_args_t@1@@Z)
PUBLIC 1e29 0 @ILT+3620(?_Get_first@?$_Compressed_pair@U?$_Wrap_alloc@V?$allocator@PAVExceptionHandler@google_breakpad@@@std@@@std@@V?$_Vector_val@U?$_Simple_types@PAVExceptionHandler@google_breakpad@@@std@@@2@$00@std@@QAEAAU?$_Wrap_alloc@V?$allocator@PAVExceptionHandler@google_breakpad@@@std@@@2@XZ)
PUBLIC 1e2e 0 @ILT+3625(??D?$_String_const_iterator@V?$_String_val@U?$_Simple_types@_W@std@@@std@@@std@@QBEAB_WXZ)
PUBLIC 1e33 0 @ILT+3630(?max_size@?$basic_string@DU?$char_traits@D@std@@V?$allocator@D@2@@std@@QBEIXZ)
PUBLIC 1e38 0 @ILT+3635(?_Bx@?$_String_alloc@U?$_String_base_types@_WV?$allocator@_W@std@@@std@@@std@@QAEAAT_Bxty@?$_String_val@U?$_Simple_types@_W@std@@@2@XZ)
PUBLIC 1e3d 0 @ILT+3640(??$destroy@PA_W@?$_Wrap_alloc@V?$allocator@_W@std@@@std@@QAEXPAPA_W@Z)
PUBLIC 1e42 0 @ILT+3645(??$?0$$V@?$_Compressed_pair@U?$_Wrap_alloc@V?$allocator@U?$_List_node@UAppMemory@google_breakpad@@PAX@std@@@std@@@std@@V?$_List_val@U?$_List_simple_types@UAppMemory@google_breakpad@@@std@@@2@$00@std@@QAE@U_Zero_then_variadic_args_t@1@@Z)
PUBLIC 1e47 0 @ILT+3650(?_Alloc_proxy@?$_Vector_alloc@U?$_Vec_base_types@DV?$allocator@D@std@@@std@@@std@@QAEXXZ)
PUBLIC 1e4c 0 @ILT+3655(?_Clrcont@_Iterator_base12@std@@QAEXXZ)
PUBLIC 1e51 0 @ILT+3660(?_Alloc_proxy@?$_Vector_alloc@U?$_Vec_base_types@PAVExceptionHandler@google_breakpad@@V?$allocator@PAVExceptionHandler@google_breakpad@@@std@@@std@@@std@@QAEXXZ)
PUBLIC 1e56 0 @ILT+3665(?_RTC_GetSrcLine@@YAHPAEPA_WKPAH1K@Z)
PUBLIC 1e5b 0 @ILT+3670(??9?$_List_unchecked_const_iterator@V?$_List_val@U?$_List_simple_types@UAppMemory@google_breakpad@@@std@@@std@@U_Iterator_base0@2@@std@@QBE_NABV01@@Z)
PUBLIC 1e60 0 @ILT+3675(??8?$_List_unchecked_const_iterator@V?$_List_val@U?$_List_simple_types@UAppMemory@google_breakpad@@@std@@@std@@U_Iterator_base0@2@@std@@QBE_NABV01@@Z)
PUBLIC 1e65 0 @ILT+3680(?erase@?$basic_string@_WU?$char_traits@_W@std@@V?$allocator@_W@2@@std@@QAEAAV12@I@Z)
PUBLIC 1e6a 0 @ILT+3685(??0exception@std@@QAE@ABV01@@Z)
PUBLIC 1e6f 0 @ILT+3690(??1CrashHandlerPrivate@Breakpad@@QAE@XZ)
PUBLIC 1e74 0 @ILT+3695(___scrt_dllmain_before_initialize_c)
PUBLIC 1e79 0 @ILT+3700(??$?RAB_KAB_K@?$less@X@std@@QBE_NAB_K0@Z)
PUBLIC 1e7e 0 @ILT+3705(?_Freenode@?$_List_buy@UAppMemory@google_breakpad@@V?$allocator@UAppMemory@google_breakpad@@@std@@@std@@QAEXPAU?$_List_node@UAppMemory@google_breakpad@@PAX@2@@Z)
PUBLIC 1e83 0 @ILT+3710(?what@exception@std@@UBEPBDXZ)
PUBLIC 1e88 0 @ILT+3715(??$_Uninitialized_default_fill_n1@PA_WIV?$allocator@_W@std@@@std@@YAXPA_WIAAU?$_Wrap_alloc@V?$allocator@_W@std@@@0@U?$integral_constant@_N$00@0@@Z)
PUBLIC 1e8d 0 @ILT+3720(?allocate@?$allocator@U?$_List_node@UAppMemory@google_breakpad@@PAX@std@@@std@@QAEPAU?$_List_node@UAppMemory@google_breakpad@@PAX@2@I@Z)
PUBLIC 1e92 0 @ILT+3725(??_GExceptionHandler@google_breakpad@@QAEPAXI@Z)
PUBLIC 1e97 0 @ILT+3730(___local_stdio_printf_options)
PUBLIC 1e9c 0 @ILT+3735(??0?$_String_const_iterator@V?$_String_val@U?$_Simple_types@_W@std@@@std@@@std@@QAE@$$QAV01@@Z)
PUBLIC 1ea1 0 @ILT+3740(?HandleException@ExceptionHandler@google_breakpad@@CGJPAU_EXCEPTION_POINTERS@@@Z)
PUBLIC 1ea6 0 @ILT+3745(?_Destroy@?$vector@PAVExceptionHandler@google_breakpad@@V?$allocator@PAVExceptionHandler@google_breakpad@@@std@@@std@@IAEXPAPAVExceptionHandler@google_breakpad@@0@Z)
PUBLIC 1eab 0 @ILT+3750(?_Mylast@?$_Vector_alloc@U?$_Vec_base_types@DV?$allocator@D@std@@@std@@@std@@QAEAAPADXZ)
PUBLIC 1eb0 0 @ILT+3755(?_Tidy@?$list@UAppMemory@google_breakpad@@V?$allocator@UAppMemory@google_breakpad@@@std@@@std@@QAEXXZ)
PUBLIC 1eb5 0 @ILT+3760(??$forward@AAPA_W@std@@YAAAPA_WAAPA_W@Z)
PUBLIC 1eba 0 @ILT+3765(??0?$_Vector_iterator@V?$_Vector_val@U?$_Simple_types@PAVExceptionHandler@google_breakpad@@@std@@@std@@@std@@QAE@ABV01@@Z)
PUBLIC 1ebf 0 @ILT+3770(?_Freeheadnode@?$_List_alloc@U?$_List_base_types@UAppMemory@google_breakpad@@V?$allocator@UAppMemory@google_breakpad@@@std@@@std@@@std@@QAEXPAU?$_List_node@UAppMemory@google_breakpad@@PAX@2@@Z)
PUBLIC 1ec4 0 @ILT+3775(?pointer_to@?$pointer_traits@PA_W@std@@SAPA_WAA_W@Z)
PUBLIC 1ec9 0 @ILT+3780(?_Getpfirst@?$_List_alloc@U?$_List_base_types@UAppMemory@google_breakpad@@V?$allocator@UAppMemory@google_breakpad@@@std@@@std@@@std@@QBEPAPAU_Iterator_base12@2@XZ)
PUBLIC 1ece 0 @ILT+3785(?_Mylast@?$_Vector_alloc@U?$_Vec_base_types@PAVExceptionHandler@google_breakpad@@V?$allocator@PAVExceptionHandler@google_breakpad@@@std@@@std@@@std@@QBEABQAPAVExceptionHandler@google_breakpad@@XZ)
PUBLIC 1ed3 0 @ILT+3790(?_Inside@?$basic_string@DU?$char_traits@D@std@@V?$allocator@D@2@@std@@QAE_NPBD@Z)
PUBLIC 1ed8 0 @ILT+3795(__get_startup_file_mode)
PUBLIC 1edd 0 @ILT+3800(?_Myhead@?$_List_alloc@U?$_List_base_types@UAppMemory@google_breakpad@@V?$allocator@UAppMemory@google_breakpad@@@std@@@std@@@std@@QAEAAPAU?$_List_node@UAppMemory@google_breakpad@@PAX@2@XZ)
PUBLIC 1ee2 0 @ILT+3805(?get@?$scoped_ptr@VCrashGenerationClient@google_breakpad@@@google_breakpad@@QBEPAVCrashGenerationClient@2@XZ)
PUBLIC 1ee7 0 @ILT+3810(??0?$scoped_ptr@VCrashGenerationClient@google_breakpad@@@google_breakpad@@QAE@PAVCrashGenerationClient@1@@Z)
PUBLIC 1eec 0 @ILT+3815(?max_size@?$list@UAppMemory@google_breakpad@@V?$allocator@UAppMemory@google_breakpad@@@std@@@std@@QBEIXZ)
PUBLIC 1ef1 0 @ILT+3820(?load@?$QBasicAtomicInteger@H@@QBEHXZ)
PUBLIC 1ef6 0 @ILT+3825(??G?$_Vector_iterator@V?$_Vector_val@U?$_Simple_types@PAVExceptionHandler@google_breakpad@@@std@@@std@@@std@@QBE?AV01@H@Z)
PUBLIC 1efb 0 @ILT+3830(?max_size@?$_Wrap_alloc@V?$allocator@U?$_List_node@UAppMemory@google_breakpad@@PAX@std@@@std@@@std@@QBEIU_Nil@2@@Z)
PUBLIC 1f00 0 @ILT+3835(___scrt_dllmain_uninitialize_critical)
PUBLIC 1f05 0 @ILT+3840(?deallocate@?$allocator@PAVExceptionHandler@google_breakpad@@@std@@QAEXPAPAVExceptionHandler@google_breakpad@@I@Z)
PUBLIC 1f0a 0 @ILT+3845(??$forward@AAU?$_Wrap_alloc@V?$allocator@U?$_List_node@UAppMemory@google_breakpad@@PAX@std@@@std@@@std@@@std@@YAAAU?$_Wrap_alloc@V?$allocator@U?$_List_node@UAppMemory@google_breakpad@@PAX@std@@@std@@@0@AAU10@@Z)
PUBLIC 1f0f 0 @ILT+3850(?_Orphan_all@?$_Vector_alloc@U?$_Vec_base_types@DV?$allocator@D@std@@@std@@@std@@QAEXXZ)
PUBLIC 1f14 0 @ILT+3855(___scrt_is_nonwritable_in_current_image)
PUBLIC 1f19 0 @ILT+3860(?_Allocate@std@@YAPAXII_N@Z)
PUBLIC 1f1e 0 @ILT+3865(??$forward@ABUAppMemory@google_breakpad@@@std@@YAABUAppMemory@google_breakpad@@ABU12@@Z)
PUBLIC 1f23 0 @ILT+3870(?SignalCrashEventAndWait@CrashGenerationClient@google_breakpad@@AAE_NXZ)
PUBLIC 1f28 0 @ILT+3875(?_Myend@?$_Vector_alloc@U?$_Vec_base_types@DV?$allocator@D@std@@@std@@@std@@QAEAAPADXZ)
PUBLIC 1f2d 0 @ILT+3880(??1?$_List_val@U?$_List_simple_types@UAppMemory@google_breakpad@@@std@@@std@@QAE@XZ)
PUBLIC 1f32 0 @ILT+3885(__should_initialize_environment)
PUBLIC 1f37 0 @ILT+3890(??$_Unfancy@U_Container_proxy@std@@@std@@YAPAU_Container_proxy@0@PAU10@@Z)
PUBLIC 1f3c 0 @ILT+3895(?_Myend@?$_Vector_alloc@U?$_Vec_base_types@PAVExceptionHandler@google_breakpad@@V?$allocator@PAVExceptionHandler@google_breakpad@@@std@@@std@@@std@@QBEABQAPAVExceptionHandler@google_breakpad@@XZ)
PUBLIC 1f41 0 @ILT+3900(??1?$QList@PAVQObject@@@@QAE@XZ)
FUNC 2e90 19 0 `dynamic initializer for 'MDCVInfoELF_minsize''
FUNC 2eb0 19 0 `dynamic initializer for 'MDCVInfoPDB20_minsize''
FUNC 2ed0 19 0 `dynamic initializer for 'MDCVInfoPDB70_minsize''
FUNC 2ef0 19 0 `dynamic initializer for 'MDImageDebugMisc_minsize''
FUNC 2f10 19 0 `dynamic initializer for 'MDRawMemoryList_minsize''
FUNC 2f30 19 0 `dynamic initializer for 'MDRawModuleList_minsize''
FUNC 2f50 19 0 `dynamic initializer for 'MDRawThreadList_minsize''
FUNC 2f70 19 0 `dynamic initializer for 'MDString_minsize''
FUNC 2f90 19 0 `dynamic initializer for 'MD_MISCINFO3_SIZE''
FUNC 2fb0 19 0 `dynamic initializer for 'MDCVInfoELF_minsize''
FUNC 2fd0 19 0 `dynamic initializer for 'MDCVInfoPDB20_minsize''
FUNC 2ff0 19 0 `dynamic initializer for 'MDCVInfoPDB70_minsize''
FUNC 3010 19 0 `dynamic initializer for 'MDImageDebugMisc_minsize''
FUNC 3030 19 0 `dynamic initializer for 'MDRawMemoryList_minsize''
FUNC 3050 19 0 `dynamic initializer for 'MDRawModuleList_minsize''
FUNC 3070 19 0 `dynamic initializer for 'MDRawThreadList_minsize''
FUNC 3090 19 0 `dynamic initializer for 'MDString_minsize''
FUNC 30b0 19 0 `dynamic initializer for 'MD_MISCINFO3_SIZE''
FUNC 30d0 19 0 `dynamic initializer for 'MDCVInfoELF_minsize''
FUNC 30f0 19 0 `dynamic initializer for 'MDCVInfoPDB20_minsize''
FUNC 3110 19 0 `dynamic initializer for 'MDCVInfoPDB70_minsize''
FUNC 3130 19 0 `dynamic initializer for 'MDImageDebugMisc_minsize''
FUNC 3150 19 0 `dynamic initializer for 'MDRawMemoryList_minsize''
FUNC 3170 19 0 `dynamic initializer for 'MDRawModuleList_minsize''
FUNC 3190 19 0 `dynamic initializer for 'MDRawThreadList_minsize''
FUNC 31b0 19 0 `dynamic initializer for 'MDString_minsize''
FUNC 31d0 19 0 `dynamic initializer for 'MD_MISCINFO3_SIZE''
FUNC 31f0 19 0 `dynamic initializer for 'MDCVInfoELF_minsize''
FUNC 3210 19 0 `dynamic initializer for 'MDCVInfoPDB20_minsize''
FUNC 3230 19 0 `dynamic initializer for 'MDCVInfoPDB70_minsize''
FUNC 3250 19 0 `dynamic initializer for 'MDImageDebugMisc_minsize''
FUNC 3270 19 0 `dynamic initializer for 'MDRawMemoryList_minsize''
FUNC 3290 19 0 `dynamic initializer for 'MDRawModuleList_minsize''
FUNC 32b0 19 0 `dynamic initializer for 'MDRawThreadList_minsize''
FUNC 32d0 19 0 `dynamic initializer for 'MDString_minsize''
FUNC 32f0 19 0 `dynamic initializer for 'MD_MISCINFO3_SIZE''
FUNC 3310 23 0 `anonymous namespace'::`dynamic initializer for 'dummy''
FUNC 37e0 54 0 buggyFunc()
FUNC 3840 253 0 main
FUNC 3b40 8 0 QAtomicOpsBySize<4>::atomic<int>(int *)
FUNC 3b50 6c 0 QAtomicOpsBySize<4>::deref<int>(int &)
FUNC 3be0 a 0 QGenericAtomicOps<QAtomicOpsBySize<4> >::load<int>(int const &)
FUNC 3bf0 6d 0 QList<QObject *>::~QList<QObject *>()
FUNC 3c80 12 0 QListSpecialMethods<QObject *>::~QListSpecialMethods<QObject *>()
FUNC 3ca0 e4 0 <lambda_5a51200307ef795ff8773accd33acada>::operator()
FUNC 3dc0 4b 0 QString::`scalar deleting destructor'(unsigned int)
FUNC 3e20 5 0 __empty_global_delete(void *)
FUNC 3e30 5 0 __empty_global_delete(void *,unsigned int)
FUNC 3e40 6f 0 QStaticStringData<13>::data_ptr()
FUNC 3ed0 5a 0 QList<QObject *>::dealloc(QListData::Data *)
FUNC 3f40 28 0 QBasicAtomicInteger<int>::deref()
FUNC 3f80 4c 0 QtPrivate::RefCount::deref()
FUNC 3fe0 30 0 QList<QObject *>::isEmpty()
FUNC 4020 45 0 QtPrivate::RefCount::isStatic()
FUNC 4080 28 0 QBasicAtomicInteger<int>::load()
FUNC 40c0 6d 0 QList<QObject *>::node_destruct(QList<QObject *>::Node *,QList<QObject *>::Node *)
FUNC 4150 5 0 qt_noop()
FUNC 4160 cb 0 google_breakpad::ExceptionHandler::ExceptionHandler(std::basic_string<wchar_t,std::char_traits<wchar_t>,std::allocator<wchar_t> > const &,bool (*)(void *,_EXCEPTION_POINTERS *,MDRawAssertionInfo *),bool (*)(wchar_t const *,wchar_t const *,void *,_EXCEPTION_POINTERS *,MDRawAssertionInfo *,bool),void *,int)
FUNC 4230 d1 0 google_breakpad::ExceptionHandler::ExceptionHandler(std::basic_string<wchar_t,std::char_traits<wchar_t>,std::allocator<wchar_t> > const &,bool (*)(void *,_EXCEPTION_POINTERS *,MDRawAssertionInfo *),bool (*)(wchar_t const *,wchar_t const *,void *,_EXCEPTION_POINTERS *,MDRawAssertionInfo *,bool),void *,int,_MINIDUMP_TYPE,wchar_t const *,google_breakpad::CustomClientInfo const *)
FUNC 4310 d1 0 google_breakpad::ExceptionHandler::ExceptionHandler(std::basic_string<wchar_t,std::char_traits<wchar_t>,std::allocator<wchar_t> > const &,bool (*)(void *,_EXCEPTION_POINTERS *,MDRawAssertionInfo *),bool (*)(wchar_t const *,wchar_t const *,void *,_EXCEPTION_POINTERS *,MDRawAssertionInfo *,bool),void *,int,_MINIDUMP_TYPE,void *,google_breakpad::CustomClientInfo const *)
FUNC 43f0 cd 0 google_breakpad::ExceptionHandler::ExceptionHandler(std::basic_string<wchar_t,std::char_traits<wchar_t>,std::allocator<wchar_t> > const &,bool (*)(void *,_EXCEPTION_POINTERS *,MDRawAssertionInfo *),bool (*)(wchar_t const *,wchar_t const *,void *,_EXCEPTION_POINTERS *,MDRawAssertionInfo *,bool),void *,int,google_breakpad::CrashGenerationClient *)
FUNC 44c0 389 0 google_breakpad::ExceptionHandler::~ExceptionHandler()
FUNC 4850 34 0 google_breakpad::ExceptionHandler::RequestUpload(unsigned long)
FUNC 4890 122 0 google_breakpad::ExceptionHandler::WriteMinidump()
FUNC 49c0 74 0 google_breakpad::ExceptionHandler::WriteMinidumpForException(_EXCEPTION_POINTERS *)
FUNC 4a40 e8 0 google_breakpad::ExceptionHandler::WriteMinidump(std::basic_string<wchar_t,std::char_traits<wchar_t>,std::allocator<wchar_t> > const &,bool (*)(wchar_t const *,wchar_t const *,void *,_EXCEPTION_POINTERS *,MDRawAssertionInfo *,bool),void *,_MINIDUMP_TYPE)
FUNC 4b30 29e 0 google_breakpad::ExceptionHandler::WriteMinidumpForChild(void *,unsigned long,std::basic_string<wchar_t,std::char_traits<wchar_t>,std::allocator<wchar_t> > const &,bool (*)(wchar_t const *,wchar_t const *,void *,_EXCEPTION_POINTERS *,MDRawAssertionInfo *,bool),void *,_MINIDUMP_TYPE)
FUNC 4dd0 178 0 google_breakpad::ExceptionHandler::RegisterAppMemory(void *,unsigned int)
FUNC 4f50 151 0 google_breakpad::ExceptionHandler::UnregisterAppMemory(void *)
FUNC 50b0 614 0 google_breakpad::ExceptionHandler::Initialize(std::basic_string<wchar_t,std::char_traits<wchar_t>,std::allocator<wchar_t> > const &,bool (*)(void *,_EXCEPTION_POINTERS *,MDRawAssertionInfo *),bool (*)(wchar_t const *,wchar_t const *,void *,_EXCEPTION_POINTERS *,MDRawAssertionInfo *,bool),void *,int,_MINIDUMP_TYPE,wchar_t const *,void *,google_breakpad::CrashGenerationClient *,google_breakpad::CustomClientInfo const *)
FUNC 56d0 135 0 google_breakpad::ExceptionHandler::ExceptionHandlerThreadMain(void *)
FUNC 5810 1db 0 google_breakpad::ExceptionHandler::HandleException(_EXCEPTION_POINTERS *)
FUNC 59f0 33b 0 google_breakpad::ExceptionHandler::HandleInvalidParameter(wchar_t const *,wchar_t const *,wchar_t const *,unsigned int,unsigned int)
FUNC 5d30 2ab 0 google_breakpad::ExceptionHandler::HandlePureVirtualCall()
FUNC 5fe0 17d 0 google_breakpad::ExceptionHandler::WriteMinidumpOnHandlerThread(_EXCEPTION_POINTERS *,MDRawAssertionInfo *)
FUNC 6160 101 0 google_breakpad::ExceptionHandler::WriteMinidumpWithException(unsigned long,_EXCEPTION_POINTERS *,MDRawAssertionInfo *)
FUNC 6270 f0 0 google_breakpad::ExceptionHandler::MinidumpWriteDumpCallback(void *,_MINIDUMP_CALLBACK_INPUT * const,_MINIDUMP_CALLBACK_OUTPUT *)
FUNC 6360 553 0 google_breakpad::ExceptionHandler::WriteMinidumpWithExceptionForProcess(unsigned long,_EXCEPTION_POINTERS *,MDRawAssertionInfo *,void *,bool)
FUNC 68c0 1ad 0 google_breakpad::ExceptionHandler::UpdateNextID()
FUNC 74b0 31 0 std::_Compressed_pair<std::_Wrap_alloc<std::allocator<google_breakpad::ExceptionHandler *> >,std::_Vector_val<std::_Simple_types<google_breakpad::ExceptionHandler *> >,1>::_Compressed_pair<std::_Wrap_alloc<std::allocator<google_breakpad::ExceptionHandler *> >,std::_Vector_val<std::_Simple_types<google_breakpad::ExceptionHandler *> >,1><>(std::_Zero_then_variadic_args_t)
FUNC 74f0 31 0 std::_Compressed_pair<std::_Wrap_alloc<std::allocator<std::_List_node<google_breakpad::AppMemory,void *> > >,std::_List_val<std::_List_simple_types<google_breakpad::AppMemory> >,1>::_Compressed_pair<std::_Wrap_alloc<std::allocator<std::_List_node<google_breakpad::AppMemory,void *> > >,std::_List_val<std::_List_simple_types<google_breakpad::AppMemory> >,1><>(std::_Zero_then_variadic_args_t)
FUNC 7530 31 0 std::_Compressed_pair<std::_Wrap_alloc<std::allocator<wchar_t> >,std::_String_val<std::_Simple_types<wchar_t> >,1>::_Compressed_pair<std::_Wrap_alloc<std::allocator<wchar_t> >,std::_String_val<std::_Simple_types<wchar_t> >,1><>(std::_Zero_then_variadic_args_t)
FUNC 7570 36 0 std::_Wrap_alloc<std::allocator<std::_Container_proxy> >::_Wrap_alloc<std::allocator<std::_Container_proxy> ><std::_Wrap_alloc<std::allocator<google_breakpad::ExceptionHandler *> > &>(std::_Wrap_alloc<std::allocator<google_breakpad::ExceptionHandler *> > &)
FUNC 75c0 36 0 std::_Wrap_alloc<std::allocator<std::_Container_proxy> >::_Wrap_alloc<std::allocator<std::_Container_proxy> ><std::_Wrap_alloc<std::allocator<std::_List_node<google_breakpad::AppMemory,void *> > > &>(std::_Wrap_alloc<std::allocator<std::_List_node<google_breakpad::AppMemory,void *> > > &)
FUNC 7610 36 0 std::_Wrap_alloc<std::allocator<std::_Container_proxy> >::_Wrap_alloc<std::allocator<std::_Container_proxy> ><std::_Wrap_alloc<std::allocator<wchar_t> > &>(std::_Wrap_alloc<std::allocator<wchar_t> > &)
FUNC 7660 17 0 std::allocator<std::_Container_proxy>::allocator<std::_Container_proxy><google_breakpad::ExceptionHandler *>(std::allocator<google_breakpad::ExceptionHandler *> const &)
FUNC 7680 17 0 std::allocator<std::_Container_proxy>::allocator<std::_Container_proxy><std::_List_node<google_breakpad::AppMemory,void *> >(std::allocator<std::_List_node<google_breakpad::AppMemory,void *> > const &)
FUNC 76a0 17 0 std::allocator<std::_Container_proxy>::allocator<std::_Container_proxy><wchar_t>(std::allocator<wchar_t> const &)
FUNC 76c0 1c 0 std::operator==<std::allocator<wchar_t>,std::allocator<wchar_t> >(std::_Wrap_alloc<std::allocator<wchar_t> > const &,std::_Wrap_alloc<std::allocator<wchar_t> > const &)
FUNC 76f0 7 0 std::operator==<wchar_t,wchar_t>(std::allocator<wchar_t> const &,std::allocator<wchar_t> const &)
FUNC 7700 43 0 std::operator!=<std::allocator<wchar_t>,std::allocator<wchar_t> >(std::_Wrap_alloc<std::allocator<wchar_t> > const &,std::_Wrap_alloc<std::allocator<wchar_t> > const &)
FUNC 7760 5b 0 std::less<void>::operator()<unsigned __int64 const &,unsigned __int64 const &>(unsigned __int64 const &,unsigned __int64 const &)
FUNC 77e0 ed 0 std::_List_buy<google_breakpad::AppMemory,std::allocator<google_breakpad::AppMemory> >::_Buynode<google_breakpad::AppMemory const &>(std::_List_node<google_breakpad::AppMemory,void *> *,std::_List_node<google_breakpad::AppMemory,void *> *,google_breakpad::AppMemory const &)
FUNC 7910 66 0 std::_Copy_memmove<google_breakpad::ExceptionHandler * *,google_breakpad::ExceptionHandler * *>(google_breakpad::ExceptionHandler * *,google_breakpad::ExceptionHandler * *,google_breakpad::ExceptionHandler * *)
FUNC 7990 71 0 std::_Debug_lt<unsigned __int64 const &,unsigned __int64 const &>(unsigned __int64 const &,unsigned __int64 const &,wchar_t const *,unsigned int)
FUNC 7a20 81 0 std::_Debug_lt_pred<std::less<void>,unsigned __int64 const &,unsigned __int64 const &>(std::less<void> &&,unsigned __int64 const &,unsigned __int64 const &,wchar_t const *,unsigned int)
FUNC 7ad0 33 0 std::_Debug_pointer<wchar_t const >(wchar_t const *,wchar_t const *,unsigned int)
FUNC 7b10 3b 0 std::_Debug_pointer_if<wchar_t const >(bool,wchar_t const *,wchar_t const *,unsigned int)
FUNC 7b60 69 0 std::_Debug_range2<std::_List_iterator<std::_List_val<std::_List_simple_types<google_breakpad::AppMemory> > > >(std::_List_iterator<std::_List_val<std::_List_simple_types<google_breakpad::AppMemory> > >,std::_List_iterator<std::_List_val<std::_List_simple_types<google_breakpad::AppMemory> > >,wchar_t const *,unsigned int,std::input_iterator_tag)
FUNC 7bf0 c7 0 std::_Debug_range<std::_List_iterator<std::_List_val<std::_List_simple_types<google_breakpad::AppMemory> > > >(std::_List_iterator<std::_List_val<std::_List_simple_types<google_breakpad::AppMemory> > >,std::_List_iterator<std::_List_val<std::_List_simple_types<google_breakpad::AppMemory> > >,wchar_t const *,unsigned int)
FUNC 7cf0 5 0 std::_Destroy_range1<std::allocator<google_breakpad::ExceptionHandler *>,google_breakpad::ExceptionHandler * *>(google_breakpad::ExceptionHandler * *,google_breakpad::ExceptionHandler * *,std::_Wrap_alloc<std::allocator<google_breakpad::ExceptionHandler *> > &,std::integral_constant<bool,1>)
FUNC 7d00 32 0 std::_Destroy_range<std::allocator<google_breakpad::ExceptionHandler *>,google_breakpad::ExceptionHandler * *>(google_breakpad::ExceptionHandler * *,google_breakpad::ExceptionHandler * *,std::_Wrap_alloc<std::allocator<google_breakpad::ExceptionHandler *> > &)
FUNC 7d40 54 0 std::_Find_unchecked1<std::_List_unchecked_iterator<std::_List_val<std::_List_simple_types<google_breakpad::AppMemory> > >,void *>(std::_List_unchecked_iterator<std::_List_val<std::_List_simple_types<google_breakpad::AppMemory> > >,std::_List_unchecked_iterator<std::_List_val<std::_List_simple_types<google_breakpad::AppMemory> > >,void * const &,std::integral_constant<bool,0>)
FUNC 7db0 39 0 std::_Find_unchecked<std::_List_unchecked_iterator<std::_List_val<std::_List_simple_types<google_breakpad::AppMemory> > >,void *>(std::_List_unchecked_iterator<std::_List_val<std::_List_simple_types<google_breakpad::AppMemory> > >,std::_List_unchecked_iterator<std::_List_val<std::_List_simple_types<google_breakpad::AppMemory> > >,void * const &)
FUNC 7e00 9b 0 std::list<google_breakpad::AppMemory,std::allocator<google_breakpad::AppMemory> >::_Insert<google_breakpad::AppMemory const &>(std::_List_unchecked_const_iterator<std::_List_val<std::_List_simple_types<google_breakpad::AppMemory> >,std::_Iterator_base0>,google_breakpad::AppMemory const &)
FUNC 7ed0 20 0 std::_Move_unchecked1<google_breakpad::ExceptionHandler * *,google_breakpad::ExceptionHandler * *>(google_breakpad::ExceptionHandler * *,google_breakpad::ExceptionHandler * *,google_breakpad::ExceptionHandler * *,std::_Trivially_copyable_ptr_iterator_tag)
FUNC 7f00 46 0 std::_Move_unchecked<google_breakpad::ExceptionHandler * *,google_breakpad::ExceptionHandler * *>(google_breakpad::ExceptionHandler * *,google_breakpad::ExceptionHandler * *,google_breakpad::ExceptionHandler * *)
FUNC 7f60 69 0 std::_Pocca<std::_Wrap_alloc<std::allocator<wchar_t> > >(std::_Wrap_alloc<std::allocator<wchar_t> > &,std::_Wrap_alloc<std::allocator<wchar_t> > const &)
FUNC 7ff0 5 0 std::_Pocca<std::_Wrap_alloc<std::allocator<wchar_t> > >(std::_Wrap_alloc<std::allocator<wchar_t> > &,std::_Wrap_alloc<std::allocator<wchar_t> > const &,std::integral_constant<bool,0>)
FUNC 8000 69 0 std::_Pocma<std::_Wrap_alloc<std::allocator<wchar_t> > >(std::_Wrap_alloc<std::allocator<wchar_t> > &,std::_Wrap_alloc<std::allocator<wchar_t> > &)
FUNC 8090 50 0 std::_Pocma<std::_Wrap_alloc<std::allocator<wchar_t> > >(std::_Wrap_alloc<std::allocator<wchar_t> > &,std::_Wrap_alloc<std::allocator<wchar_t> > &,std::integral_constant<bool,1>)
FUNC 8100 8 0 std::_Ptr_move_cat<google_breakpad::ExceptionHandler *,google_breakpad::ExceptionHandler *>(google_breakpad::ExceptionHandler * * const &,google_breakpad::ExceptionHandler * * const &)
FUNC 8110 10 0 std::_Rechecked<google_breakpad::ExceptionHandler * *,google_breakpad::ExceptionHandler * *>(google_breakpad::ExceptionHandler * * &,google_breakpad::ExceptionHandler * *)
FUNC 8130 18 0 std::_Rechecked<std::_List_val<std::_List_simple_types<google_breakpad::AppMemory> > >(std::_List_iterator<std::_List_val<std::_List_simple_types<google_breakpad::AppMemory> > > &,std::_List_unchecked_iterator<std::_List_val<std::_List_simple_types<google_breakpad::AppMemory> > >)
FUNC 8150 3b 0 std::vector<google_breakpad::ExceptionHandler *,std::allocator<google_breakpad::ExceptionHandler *> >::_Umove<google_breakpad::ExceptionHandler * *>(google_breakpad::ExceptionHandler * *,google_breakpad::ExceptionHandler * *,google_breakpad::ExceptionHandler * *)
FUNC 81a0 8 0 std::_Unchecked<google_breakpad::ExceptionHandler * *>(google_breakpad::ExceptionHandler * *)
FUNC 81b0 60 0 std::_Unchecked<std::_List_val<std::_List_simple_types<google_breakpad::AppMemory> > >(std::_List_iterator<std::_List_val<std::_List_simple_types<google_breakpad::AppMemory> > >)
FUNC 8230 8 0 std::_Unfancy<wchar_t const >(wchar_t const *)
FUNC 8240 8 0 std::_Unfancy<google_breakpad::ExceptionHandler *>(google_breakpad::ExceptionHandler * *)
FUNC 8250 8 0 std::_Unfancy<std::_Container_proxy>(std::_Container_proxy *)
FUNC 8260 8 0 std::_Unfancy<wchar_t>(wchar_t *)
FUNC 8270 4e 0 std::_Uninitialized_move<google_breakpad::ExceptionHandler * *,google_breakpad::ExceptionHandler * *,std::allocator<google_breakpad::ExceptionHandler *> >(google_breakpad::ExceptionHandler * *,google_breakpad::ExceptionHandler * *,google_breakpad::ExceptionHandler * *,std::_Wrap_alloc<std::allocator<google_breakpad::ExceptionHandler *> > &)
FUNC 82e0 20 0 std::_Uninitialized_move_al_unchecked1<google_breakpad::ExceptionHandler *,google_breakpad::ExceptionHandler *,std::allocator<google_breakpad::ExceptionHandler *> >(google_breakpad::ExceptionHandler * *,google_breakpad::ExceptionHandler * *,google_breakpad::ExceptionHandler * *,std::_Wrap_alloc<std::allocator<google_breakpad::ExceptionHandler *> > &,std::_Really_trivial_ptr_iterator_tag,std::integral_constant<bool,1>)
FUNC 8310 50 0 std::_Uninitialized_move_al_unchecked<google_breakpad::ExceptionHandler * *,google_breakpad::ExceptionHandler * *,std::allocator<google_breakpad::ExceptionHandler *> >(google_breakpad::ExceptionHandler * *,google_breakpad::ExceptionHandler * *,google_breakpad::ExceptionHandler * *,std::_Wrap_alloc<std::allocator<google_breakpad::ExceptionHandler *> > &)
FUNC 8380 5 0 __vcrt_va_start_verify_argument_type<char const * const>()
FUNC 8390 5 0 __vcrt_va_start_verify_argument_type<wchar_t const * const>()
FUNC 83a0 8 0 std::addressof<google_breakpad::AppMemory const >(google_breakpad::AppMemory const &)
FUNC 83b0 8 0 std::addressof<std::_List_node<google_breakpad::AppMemory,void *> *>(std::_List_node<google_breakpad::AppMemory,void *> * &)
FUNC 83c0 8 0 std::addressof<wchar_t *>(wchar_t * &)
FUNC 83d0 8 0 std::addressof<google_breakpad::ExceptionHandler * const>(google_breakpad::ExceptionHandler * const &)
FUNC 83e0 8 0 std::addressof<google_breakpad::AppMemory>(google_breakpad::AppMemory &)
FUNC 83f0 8 0 std::addressof<std::_Container_proxy>(std::_Container_proxy &)
FUNC 8400 8 0 std::addressof<wchar_t>(wchar_t &)
FUNC 8410 148 0 std::basic_string<wchar_t,std::char_traits<wchar_t>,std::allocator<wchar_t> >::assign<std::_String_iterator<std::_String_val<std::_Simple_types<wchar_t> > > >(std::_String_iterator<std::_String_val<std::_Simple_types<wchar_t> > >,std::_String_iterator<std::_String_val<std::_Simple_types<wchar_t> > >)
FUNC 85b0 3b 0 std::_Wrap_alloc<std::allocator<std::_List_node<google_breakpad::AppMemory,void *> > >::construct<std::_List_node<google_breakpad::AppMemory,void *> *,std::_List_node<google_breakpad::AppMemory,void *> * &>(std::_List_node<google_breakpad::AppMemory,void *> * *,std::_List_node<google_breakpad::AppMemory,void *> * &)
FUNC 8600 67 0 std::allocator<std::_List_node<google_breakpad::AppMemory,void *> >::construct<std::_List_node<google_breakpad::AppMemory,void *> *,std::_List_node<google_breakpad::AppMemory,void *> * &>(std::_List_node<google_breakpad::AppMemory,void *> * *,std::_List_node<google_breakpad::AppMemory,void *> * &)
FUNC 8680 25 0 std::allocator_traits<std::allocator<std::_List_node<google_breakpad::AppMemory,void *> > >::construct<std::_List_node<google_breakpad::AppMemory,void *> *,std::_List_node<google_breakpad::AppMemory,void *> * &>(std::allocator<std::_List_node<google_breakpad::AppMemory,void *> > &,std::_List_node<google_breakpad::AppMemory,void *> * *,std::_List_node<google_breakpad::AppMemory,void *> * &)
FUNC 86b0 3b 0 std::_Wrap_alloc<std::allocator<google_breakpad::ExceptionHandler *> >::construct<google_breakpad::ExceptionHandler *,google_breakpad::ExceptionHandler * &>(google_breakpad::ExceptionHandler * *,google_breakpad::ExceptionHandler * &)
FUNC 8700 67 0 std::allocator<google_breakpad::ExceptionHandler *>::construct<google_breakpad::ExceptionHandler *,google_breakpad::ExceptionHandler * &>(google_breakpad::ExceptionHandler * *,google_breakpad::ExceptionHandler * &)
FUNC 8780 25 0 std::allocator_traits<std::allocator<google_breakpad::ExceptionHandler *> >::construct<google_breakpad::ExceptionHandler *,google_breakpad::ExceptionHandler * &>(std::allocator<google_breakpad::ExceptionHandler *> &,google_breakpad::ExceptionHandler * *,google_breakpad::ExceptionHandler * &)
FUNC 87b0 3b 0 std::_Wrap_alloc<std::allocator<google_breakpad::ExceptionHandler *> >::construct<google_breakpad::ExceptionHandler *,google_breakpad::ExceptionHandler * const &>(google_breakpad::ExceptionHandler * *,google_breakpad::ExceptionHandler * const &)
FUNC 8800 67 0 std::allocator<google_breakpad::ExceptionHandler *>::construct<google_breakpad::ExceptionHandler *,google_breakpad::ExceptionHandler * const &>(google_breakpad::ExceptionHandler * *,google_breakpad::ExceptionHandler * const &)
FUNC 8880 25 0 std::allocator_traits<std::allocator<google_breakpad::ExceptionHandler *> >::construct<google_breakpad::ExceptionHandler *,google_breakpad::ExceptionHandler * const &>(std::allocator<google_breakpad::ExceptionHandler *> &,google_breakpad::ExceptionHandler * *,google_breakpad::ExceptionHandler * const &)
FUNC 88b0 3b 0 std::_Wrap_alloc<std::allocator<wchar_t> >::construct<wchar_t *,wchar_t * &>(wchar_t * *,wchar_t * &)
FUNC 8900 67 0 std::allocator<wchar_t>::construct<wchar_t *,wchar_t * &>(wchar_t * *,wchar_t * &)
FUNC 8980 25 0 std::allocator_traits<std::allocator<wchar_t> >::construct<wchar_t *,wchar_t * &>(std::allocator<wchar_t> &,wchar_t * *,wchar_t * &)
FUNC 89b0 3b 0 std::_Wrap_alloc<std::allocator<std::_List_node<google_breakpad::AppMemory,void *> > >::construct<google_breakpad::AppMemory,google_breakpad::AppMemory const &>(google_breakpad::AppMemory *,google_breakpad::AppMemory const &)
FUNC 8a00 79 0 std::allocator<std::_List_node<google_breakpad::AppMemory,void *> >::construct<google_breakpad::AppMemory,google_breakpad::AppMemory const &>(google_breakpad::AppMemory *,google_breakpad::AppMemory const &)
FUNC 8aa0 25 0 std::allocator_traits<std::allocator<std::_List_node<google_breakpad::AppMemory,void *> > >::construct<google_breakpad::AppMemory,google_breakpad::AppMemory const &>(std::allocator<std::_List_node<google_breakpad::AppMemory,void *> > &,google_breakpad::AppMemory *,google_breakpad::AppMemory const &)
FUNC 8ad0 3b 0 std::_Wrap_alloc<std::allocator<std::_Container_proxy> >::construct<std::_Container_proxy,std::_Container_proxy>(std::_Container_proxy *,std::_Container_proxy &&)
FUNC 8b20 6d 0 std::allocator<std::_Container_proxy>::construct<std::_Container_proxy,std::_Container_proxy>(std::_Container_proxy *,std::_Container_proxy &&)
FUNC 8bb0 25 0 std::allocator_traits<std::allocator<std::_Container_proxy> >::construct<std::_Container_proxy,std::_Container_proxy>(std::allocator<std::_Container_proxy> &,std::_Container_proxy *,std::_Container_proxy &&)
FUNC 8be0 2e 0 std::_Wrap_alloc<std::allocator<std::_List_node<google_breakpad::AppMemory,void *> > >::destroy<std::_List_node<google_breakpad::AppMemory,void *> *>(std::_List_node<google_breakpad::AppMemory,void *> * *)
FUNC 8c20 14 0 std::allocator<std::_List_node<google_breakpad::AppMemory,void *> >::destroy<std::_List_node<google_breakpad::AppMemory,void *> *>(std::_List_node<google_breakpad::AppMemory,void *> * *)
FUNC 8c40 18 0 std::allocator_traits<std::allocator<std::_List_node<google_breakpad::AppMemory,void *> > >::destroy<std::_List_node<google_breakpad::AppMemory,void *> *>(std::allocator<std::_List_node<google_breakpad::AppMemory,void *> > &,std::_List_node<google_breakpad::AppMemory,void *> * *)
FUNC 8c60 2e 0 std::_Wrap_alloc<std::allocator<google_breakpad::ExceptionHandler *> >::destroy<google_breakpad::ExceptionHandler *>(google_breakpad::ExceptionHandler * *)
FUNC 8ca0 14 0 std::allocator<google_breakpad::ExceptionHandler *>::destroy<google_breakpad::ExceptionHandler *>(google_breakpad::ExceptionHandler * *)
FUNC 8cc0 18 0 std::allocator_traits<std::allocator<google_breakpad::ExceptionHandler *> >::destroy<google_breakpad::ExceptionHandler *>(std::allocator<google_breakpad::ExceptionHandler *> &,google_breakpad::ExceptionHandler * *)
FUNC 8ce0 2e 0 std::_Wrap_alloc<std::allocator<wchar_t> >::destroy<wchar_t *>(wchar_t * *)
FUNC 8d20 14 0 std::allocator<wchar_t>::destroy<wchar_t *>(wchar_t * *)
FUNC 8d40 18 0 std::allocator_traits<std::allocator<wchar_t> >::destroy<wchar_t *>(std::allocator<wchar_t> &,wchar_t * *)
FUNC 8d60 2e 0 std::_Wrap_alloc<std::allocator<std::_List_node<google_breakpad::AppMemory,void *> > >::destroy<google_breakpad::AppMemory>(google_breakpad::AppMemory *)
FUNC 8da0 14 0 std::allocator<std::_List_node<google_breakpad::AppMemory,void *> >::destroy<google_breakpad::AppMemory>(google_breakpad::AppMemory *)
FUNC 8dc0 18 0 std::allocator_traits<std::allocator<std::_List_node<google_breakpad::AppMemory,void *> > >::destroy<google_breakpad::AppMemory>(std::allocator<std::_List_node<google_breakpad::AppMemory,void *> > &,google_breakpad::AppMemory *)
FUNC 8de0 2e 0 std::_Wrap_alloc<std::allocator<std::_Container_proxy> >::destroy<std::_Container_proxy>(std::_Container_proxy *)
FUNC 8e20 14 0 std::allocator<std::_Container_proxy>::destroy<std::_Container_proxy>(std::_Container_proxy *)
FUNC 8e40 18 0 std::allocator_traits<std::allocator<std::_Container_proxy> >::destroy<std::_Container_proxy>(std::allocator<std::_Container_proxy> &,std::_Container_proxy *)
FUNC 8e60 14c 0 std::find<std::_List_iterator<std::_List_val<std::_List_simple_types<google_breakpad::AppMemory> > >,void *>(std::_List_iterator<std::_List_val<std::_List_simple_types<google_breakpad::AppMemory> > >,std::_List_iterator<std::_List_val<std::_List_simple_types<google_breakpad::AppMemory> > >,void * const &)
FUNC 9000 8 0 std::forward<std::_List_node<google_breakpad::AppMemory,void *> * &>(std::_List_node<google_breakpad::AppMemory,void *> * &)
FUNC 9010 8 0 std::forward<google_breakpad::ExceptionHandler * &>(google_breakpad::ExceptionHandler * &)
FUNC 9020 8 0 std::forward<wchar_t * &>(wchar_t * &)
FUNC 9030 8 0 std::forward<std::_Wrap_alloc<std::allocator<google_breakpad::ExceptionHandler *> > &>(std::_Wrap_alloc<std::allocator<google_breakpad::ExceptionHandler *> > &)
FUNC 9040 8 0 std::forward<std::_Wrap_alloc<std::allocator<std::_List_node<google_breakpad::AppMemory,void *> > > &>(std::_Wrap_alloc<std::allocator<std::_List_node<google_breakpad::AppMemory,void *> > > &)
FUNC 9050 8 0 std::forward<std::_Wrap_alloc<std::allocator<wchar_t> > &>(std::_Wrap_alloc<std::allocator<wchar_t> > &)
FUNC 9060 8 0 std::forward<google_breakpad::ExceptionHandler * const &>(google_breakpad::ExceptionHandler * const &)
FUNC 9070 8 0 std::forward<google_breakpad::AppMemory const &>(google_breakpad::AppMemory const &)
FUNC 9080 8 0 std::forward<unsigned __int64 const &>(unsigned __int64 const &)
FUNC 9090 8 0 std::forward<std::_Container_proxy>(std::_Container_proxy &)
FUNC 90a0 8 0 std::forward<std::basic_string<wchar_t,std::char_traits<wchar_t>,std::allocator<wchar_t> > >(std::basic_string<wchar_t,std::char_traits<wchar_t>,std::allocator<wchar_t> > &)
FUNC 90b0 5a 0 std::max<unsigned __int64>(unsigned __int64 const &,unsigned __int64 const &)
FUNC 9120 5a 0 std::min<unsigned __int64>(unsigned __int64 const &,unsigned __int64 const &)
FUNC 9190 8 0 std::move<std::_Wrap_alloc<std::allocator<wchar_t> > &>(std::_Wrap_alloc<std::allocator<wchar_t> > &)
FUNC 91a0 2d 0 std::_Iterator012<std::bidirectional_iterator_tag,google_breakpad::AppMemory,int,google_breakpad::AppMemory const *,google_breakpad::AppMemory const &,std::_Iterator_base12>::_Iterator012<std::bidirectional_iterator_tag,google_breakpad::AppMemory,int,google_breakpad::AppMemory const *,google_breakpad::AppMemory const &,std::_Iterator_base12>(std::_Iterator012<std::bidirectional_iterator_tag,google_breakpad::AppMemory,int,google_breakpad::AppMemory const *,google_breakpad::AppMemory const &,std::_Iterator_base12> &&)
FUNC 91e0 2d 0 std::_Iterator012<std::bidirectional_iterator_tag,google_breakpad::AppMemory,int,google_breakpad::AppMemory const *,google_breakpad::AppMemory const &,std::_Iterator_base12>::_Iterator012<std::bidirectional_iterator_tag,google_breakpad::AppMemory,int,google_breakpad::AppMemory const *,google_breakpad::AppMemory const &,std::_Iterator_base12>(std::_Iterator012<std::bidirectional_iterator_tag,google_breakpad::AppMemory,int,google_breakpad::AppMemory const *,google_breakpad::AppMemory const &,std::_Iterator_base12> const &)
FUNC 9220 27 0 std::_Iterator012<std::bidirectional_iterator_tag,google_breakpad::AppMemory,int,google_breakpad::AppMemory const *,google_breakpad::AppMemory const &,std::_Iterator_base12>::_Iterator012<std::bidirectional_iterator_tag,google_breakpad::AppMemory,int,google_breakpad::AppMemory const *,google_breakpad::AppMemory const &,std::_Iterator_base12>()
FUNC 9250 2d 0 std::_Iterator012<std::random_access_iterator_tag,google_breakpad::ExceptionHandler *,int,google_breakpad::ExceptionHandler * const *,google_breakpad::ExceptionHandler * const &,std::_Iterator_base12>::_Iterator012<std::random_access_iterator_tag,google_breakpad::ExceptionHandler *,int,google_breakpad::ExceptionHandler * const *,google_breakpad::ExceptionHandler * const &,std::_Iterator_base12>(std::_Iterator012<std::random_access_iterator_tag,google_breakpad::ExceptionHandler *,int,google_breakpad::ExceptionHandler * const *,google_breakpad::ExceptionHandler * const &,std::_Iterator_base12> const &)
FUNC 9290 27 0 std::_Iterator012<std::random_access_iterator_tag,google_breakpad::ExceptionHandler *,int,google_breakpad::ExceptionHandler * const *,google_breakpad::ExceptionHandler * const &,std::_Iterator_base12>::_Iterator012<std::random_access_iterator_tag,google_breakpad::ExceptionHandler *,int,google_breakpad::ExceptionHandler * const *,google_breakpad::ExceptionHandler * const &,std::_Iterator_base12>()
FUNC 92c0 2d 0 std::_Iterator012<std::random_access_iterator_tag,wchar_t,int,wchar_t const *,wchar_t const &,std::_Iterator_base12>::_Iterator012<std::random_access_iterator_tag,wchar_t,int,wchar_t const *,wchar_t const &,std::_Iterator_base12>(std::_Iterator012<std::random_access_iterator_tag,wchar_t,int,wchar_t const *,wchar_t const &,std::_Iterator_base12> &&)
FUNC 9300 2d 0 std::_Iterator012<std::random_access_iterator_tag,wchar_t,int,wchar_t const *,wchar_t const &,std::_Iterator_base12>::_Iterator012<std::random_access_iterator_tag,wchar_t,int,wchar_t const *,wchar_t const &,std::_Iterator_base12>(std::_Iterator012<std::random_access_iterator_tag,wchar_t,int,wchar_t const *,wchar_t const &,std::_Iterator_base12> const &)
FUNC 9340 27 0 std::_Iterator012<std::random_access_iterator_tag,wchar_t,int,wchar_t const *,wchar_t const &,std::_Iterator_base12>::_Iterator012<std::random_access_iterator_tag,wchar_t,int,wchar_t const *,wchar_t const &,std::_Iterator_base12>()
FUNC 9370 cb 0 std::_List_alloc<std::_List_base_types<google_breakpad::AppMemory,std::allocator<google_breakpad::AppMemory> > >::_List_alloc<std::_List_base_types<google_breakpad::AppMemory,std::allocator<google_breakpad::AppMemory> > >()
FUNC 9470 27 0 std::_List_buy<google_breakpad::AppMemory,std::allocator<google_breakpad::AppMemory> >::_List_buy<google_breakpad::AppMemory,std::allocator<google_breakpad::AppMemory> >()
FUNC 94a0 2d 0 std::_List_const_iterator<std::_List_val<std::_List_simple_types<google_breakpad::AppMemory> > >::_List_const_iterator<std::_List_val<std::_List_simple_types<google_breakpad::AppMemory> > >(std::_List_const_iterator<std::_List_val<std::_List_simple_types<google_breakpad::AppMemory> > > &&)
FUNC 94e0 2d 0 std::_List_const_iterator<std::_List_val<std::_List_simple_types<google_breakpad::AppMemory> > >::_List_const_iterator<std::_List_val<std::_List_simple_types<google_breakpad::AppMemory> > >(std::_List_const_iterator<std::_List_val<std::_List_simple_types<google_breakpad::AppMemory> > > const &)
FUNC 9520 31 0 std::_List_const_iterator<std::_List_val<std::_List_simple_types<google_breakpad::AppMemory> > >::_List_const_iterator<std::_List_val<std::_List_simple_types<google_breakpad::AppMemory> > >(std::_List_node<google_breakpad::AppMemory,void *> *,std::_List_val<std::_List_simple_types<google_breakpad::AppMemory> > const *)
FUNC 9560 27 0 std::_List_const_iterator<std::_List_val<std::_List_simple_types<google_breakpad::AppMemory> > >::_List_const_iterator<std::_List_val<std::_List_simple_types<google_breakpad::AppMemory> > >()
FUNC 9590 2d 0 std::_List_iterator<std::_List_val<std::_List_simple_types<google_breakpad::AppMemory> > >::_List_iterator<std::_List_val<std::_List_simple_types<google_breakpad::AppMemory> > >(std::_List_iterator<std::_List_val<std::_List_simple_types<google_breakpad::AppMemory> > > const &)
FUNC 95d0 31 0 std::_List_iterator<std::_List_val<std::_List_simple_types<google_breakpad::AppMemory> > >::_List_iterator<std::_List_val<std::_List_simple_types<google_breakpad::AppMemory> > >(std::_List_node<google_breakpad::AppMemory,void *> *,std::_List_val<std::_List_simple_types<google_breakpad::AppMemory> > const *)
FUNC 9610 35 0 std::_List_unchecked_const_iterator<std::_List_val<std::_List_simple_types<google_breakpad::AppMemory> >,std::_Iterator_base0>::_List_unchecked_const_iterator<std::_List_val<std::_List_simple_types<google_breakpad::AppMemory> >,std::_Iterator_base0>(std::_List_node<google_breakpad::AppMemory,void *> *,std::_List_val<std::_List_simple_types<google_breakpad::AppMemory> > const *)
FUNC 9660 39 0 std::_List_unchecked_const_iterator<std::_List_val<std::_List_simple_types<google_breakpad::AppMemory> >,std::_Iterator_base12>::_List_unchecked_const_iterator<std::_List_val<std::_List_simple_types<google_breakpad::AppMemory> >,std::_Iterator_base12>(std::_List_unchecked_const_iterator<std::_List_val<std::_List_simple_types<google_breakpad::AppMemory> >,std::_Iterator_base12> &&)
FUNC 96b0 39 0 std::_List_unchecked_const_iterator<std::_List_val<std::_List_simple_types<google_breakpad::AppMemory> >,std::_Iterator_base12>::_List_unchecked_const_iterator<std::_List_val<std::_List_simple_types<google_breakpad::AppMemory> >,std::_Iterator_base12>(std::_List_unchecked_const_iterator<std::_List_val<std::_List_simple_types<google_breakpad::AppMemory> >,std::_Iterator_base12> const &)
FUNC 9700 76 0 std::_List_unchecked_const_iterator<std::_List_val<std::_List_simple_types<google_breakpad::AppMemory> >,std::_Iterator_base12>::_List_unchecked_const_iterator<std::_List_val<std::_List_simple_types<google_breakpad::AppMemory> >,std::_Iterator_base12>(std::_List_node<google_breakpad::AppMemory,void *> *,std::_List_val<std::_List_simple_types<google_breakpad::AppMemory> > const *)
FUNC 97a0 31 0 std::_List_unchecked_const_iterator<std::_List_val<std::_List_simple_types<google_breakpad::AppMemory> >,std::_Iterator_base12>::_List_unchecked_const_iterator<std::_List_val<std::_List_simple_types<google_breakpad::AppMemory> >,std::_Iterator_base12>()
FUNC 97e0 31 0 std::_List_unchecked_iterator<std::_List_val<std::_List_simple_types<google_breakpad::AppMemory> > >::_List_unchecked_iterator<std::_List_val<std::_List_simple_types<google_breakpad::AppMemory> > >(std::_List_node<google_breakpad::AppMemory,void *> *,std::_List_val<std::_List_simple_types<google_breakpad::AppMemory> > const *)
FUNC 9820 3b 0 std::_List_val<std::_List_simple_types<google_breakpad::AppMemory> >::_List_val<std::_List_simple_types<google_breakpad::AppMemory> >()
FUNC 9870 75 0 std::_String_alloc<std::_String_base_types<wchar_t,std::allocator<wchar_t> > >::_String_alloc<std::_String_base_types<wchar_t,std::allocator<wchar_t> > >()
FUNC 9910 39 0 std::_String_const_iterator<std::_String_val<std::_Simple_types<wchar_t> > >::_String_const_iterator<std::_String_val<std::_Simple_types<wchar_t> > >(std::_String_const_iterator<std::_String_val<std::_Simple_types<wchar_t> > > &&)
FUNC 9960 39 0 std::_String_const_iterator<std::_String_val<std::_Simple_types<wchar_t> > >::_String_const_iterator<std::_String_val<std::_Simple_types<wchar_t> > >(std::_String_const_iterator<std::_String_val<std::_Simple_types<wchar_t> > > const &)
FUNC 99b0 76 0 std::_String_const_iterator<std::_String_val<std::_Simple_types<wchar_t> > >::_String_const_iterator<std::_String_val<std::_Simple_types<wchar_t> > >(wchar_t const *,std::_Container_base12 const *)
FUNC 9a50 2d 0 std::_String_iterator<std::_String_val<std::_Simple_types<wchar_t> > >::_String_iterator<std::_String_val<std::_Simple_types<wchar_t> > >(std::_String_iterator<std::_String_val<std::_Simple_types<wchar_t> > > const &)
FUNC 9a90 31 0 std::_String_iterator<std::_String_val<std::_Simple_types<wchar_t> > >::_String_iterator<std::_String_val<std::_Simple_types<wchar_t> > >(wchar_t *,std::_Container_base12 const *)
FUNC 9ad0 7e 0 std::_String_val<std::_Simple_types<wchar_t> >::_String_val<std::_Simple_types<wchar_t> >()
FUNC 9b70 75 0 std::_Vector_alloc<std::_Vec_base_types<google_breakpad::ExceptionHandler *,std::allocator<google_breakpad::ExceptionHandler *> > >::_Vector_alloc<std::_Vec_base_types<google_breakpad::ExceptionHandler *,std::allocator<google_breakpad::ExceptionHandler *> > >()
FUNC 9c10 39 0 std::_Vector_const_iterator<std::_Vector_val<std::_Simple_types<google_breakpad::ExceptionHandler *> > >::_Vector_const_iterator<std::_Vector_val<std::_Simple_types<google_breakpad::ExceptionHandler *> > >(std::_Vector_const_iterator<std::_Vector_val<std::_Simple_types<google_breakpad::ExceptionHandler *> > > const &)
FUNC 9c60 76 0 std::_Vector_const_iterator<std::_Vector_val<std::_Simple_types<google_breakpad::ExceptionHandler *> > >::_Vector_const_iterator<std::_Vector_val<std::_Simple_types<google_breakpad::ExceptionHandler *> > >(google_breakpad::ExceptionHandler * *,std::_Container_base12 const *)
FUNC 9d00 2d 0 std::_Vector_iterator<std::_Vector_val<std::_Simple_types<google_breakpad::ExceptionHandler *> > >::_Vector_iterator<std::_Vector_val<std::_Simple_types<google_breakpad::ExceptionHandler *> > >(std::_Vector_iterator<std::_Vector_val<std::_Simple_types<google_breakpad::ExceptionHandler *> > > const &)
FUNC 9d40 31 0 std::_Vector_iterator<std::_Vector_val<std::_Simple_types<google_breakpad::ExceptionHandler *> > >::_Vector_iterator<std::_Vector_val<std::_Simple_types<google_breakpad::ExceptionHandler *> > >(google_breakpad::ExceptionHandler * *,std::_Container_base12 const *)
FUNC 9d80 45 0 std::_Vector_val<std::_Simple_types<google_breakpad::ExceptionHandler *> >::_Vector_val<std::_Simple_types<google_breakpad::ExceptionHandler *> >()
FUNC 9de0 27 0 std::_Wrap_alloc<std::allocator<google_breakpad::ExceptionHandler *> >::_Wrap_alloc<std::allocator<google_breakpad::ExceptionHandler *> >()
FUNC 9e10 27 0 std::_Wrap_alloc<std::allocator<std::_List_node<google_breakpad::AppMemory,void *> > >::_Wrap_alloc<std::allocator<std::_List_node<google_breakpad::AppMemory,void *> > >()
FUNC 9e40 27 0 std::_Wrap_alloc<std::allocator<wchar_t> >::_Wrap_alloc<std::allocator<wchar_t> >()
FUNC 9e70 15 0 std::allocator<google_breakpad::ExceptionHandler *>::allocator<google_breakpad::ExceptionHandler *>()
FUNC 9e90 15 0 std::allocator<std::_List_node<google_breakpad::AppMemory,void *> >::allocator<std::_List_node<google_breakpad::AppMemory,void *> >()
FUNC 9eb0 15 0 std::allocator<wchar_t>::allocator<wchar_t>()
FUNC 9ed0 5d 0 std::basic_string<wchar_t,std::char_traits<wchar_t>,std::allocator<wchar_t> >::basic_string<wchar_t,std::char_traits<wchar_t>,std::allocator<wchar_t> >()
FUNC 9f50 27 0 std::list<google_breakpad::AppMemory,std::allocator<google_breakpad::AppMemory> >::list<google_breakpad::AppMemory,std::allocator<google_breakpad::AppMemory> >()
FUNC 9f80 1f 0 google_breakpad::scoped_ptr<google_breakpad::CrashGenerationClient>::scoped_ptr<google_breakpad::CrashGenerationClient>(google_breakpad::CrashGenerationClient *)
FUNC 9fb0 51 0 std::vector<google_breakpad::ExceptionHandler *,std::allocator<google_breakpad::ExceptionHandler *> >::vector<google_breakpad::ExceptionHandler *,std::allocator<google_breakpad::ExceptionHandler *> >()
FUNC a020 bd 0 google_breakpad::AutoExceptionHandler::AutoExceptionHandler()
FUNC a110 6a 0 google_breakpad::MinidumpCallbackContext::MinidumpCallbackContext()
FUNC a1a0 15 0 std::_String_val<std::_Simple_types<wchar_t> >::_Bxty::_Bxty()
FUNC a1c0 1e 0 std::_Container_base12::_Container_base12()
FUNC a1f0 28 0 std::_Container_proxy::_Container_proxy()
FUNC a230 40 0 std::_Iterator_base12::_Iterator_base12(std::_Iterator_base12 const &)
FUNC a280 28 0 std::_Iterator_base12::_Iterator_base12()
FUNC a2c0 24 0 std::_Compressed_pair<std::_Wrap_alloc<std::allocator<google_breakpad::ExceptionHandler *> >,std::_Vector_val<std::_Simple_types<google_breakpad::ExceptionHandler *> >,1>::~_Compressed_pair<std::_Wrap_alloc<std::allocator<google_breakpad::ExceptionHandler *> >,std::_Vector_val<std::_Simple_types<google_breakpad::ExceptionHandler *> >,1>()
FUNC a2f0 24 0 std::_Compressed_pair<std::_Wrap_alloc<std::allocator<std::_List_node<google_breakpad::AppMemory,void *> > >,std::_List_val<std::_List_simple_types<google_breakpad::AppMemory> >,1>::~_Compressed_pair<std::_Wrap_alloc<std::allocator<std::_List_node<google_breakpad::AppMemory,void *> > >,std::_List_val<std::_List_simple_types<google_breakpad::AppMemory> >,1>()
FUNC a320 24 0 std::_Compressed_pair<std::_Wrap_alloc<std::allocator<wchar_t> >,std::_String_val<std::_Simple_types<wchar_t> >,1>::~_Compressed_pair<std::_Wrap_alloc<std::allocator<wchar_t> >,std::_String_val<std::_Simple_types<wchar_t> >,1>()
FUNC a350 24 0 std::_Iterator012<std::bidirectional_iterator_tag,google_breakpad::AppMemory,int,google_breakpad::AppMemory const *,google_breakpad::AppMemory const &,std::_Iterator_base12>::~_Iterator012<std::bidirectional_iterator_tag,google_breakpad::AppMemory,int,google_breakpad::AppMemory const *,google_breakpad::AppMemory const &,std::_Iterator_base12>()
FUNC a380 24 0 std::_Iterator012<std::random_access_iterator_tag,google_breakpad::ExceptionHandler *,int,google_breakpad::ExceptionHandler * const *,google_breakpad::ExceptionHandler * const &,std::_Iterator_base12>::~_Iterator012<std::random_access_iterator_tag,google_breakpad::ExceptionHandler *,int,google_breakpad::ExceptionHandler * const *,google_breakpad::ExceptionHandler * const &,std::_Iterator_base12>()
FUNC a3b0 24 0 std::_Iterator012<std::random_access_iterator_tag,wchar_t,int,wchar_t const *,wchar_t const &,std::_Iterator_base12>::~_Iterator012<std::random_access_iterator_tag,wchar_t,int,wchar_t const *,wchar_t const &,std::_Iterator_base12>()
FUNC a3e0 69 0 std::_List_alloc<std::_List_base_types<google_breakpad::AppMemory,std::allocator<google_breakpad::AppMemory> > >::~_List_alloc<std::_List_base_types<google_breakpad::AppMemory,std::allocator<google_breakpad::AppMemory> > >()
FUNC a470 24 0 std::_List_buy<google_breakpad::AppMemory,std::allocator<google_breakpad::AppMemory> >::~_List_buy<google_breakpad::AppMemory,std::allocator<google_breakpad::AppMemory> >()
FUNC a4a0 24 0 std::_List_const_iterator<std::_List_val<std::_List_simple_types<google_breakpad::AppMemory> > >::~_List_const_iterator<std::_List_val<std::_List_simple_types<google_breakpad::AppMemory> > >()
FUNC a4d0 24 0 std::_List_iterator<std::_List_val<std::_List_simple_types<google_breakpad::AppMemory> > >::~_List_iterator<std::_List_val<std::_List_simple_types<google_breakpad::AppMemory> > >()
FUNC a500 24 0 std::_List_unchecked_const_iterator<std::_List_val<std::_List_simple_types<google_breakpad::AppMemory> >,std::_Iterator_base12>::~_List_unchecked_const_iterator<std::_List_val<std::_List_simple_types<google_breakpad::AppMemory> >,std::_Iterator_base12>()
FUNC a530 24 0 std::_List_val<std::_List_simple_types<google_breakpad::AppMemory> >::~_List_val<std::_List_simple_types<google_breakpad::AppMemory> >()
FUNC a560 56 0 std::_String_alloc<std::_String_base_types<wchar_t,std::allocator<wchar_t> > >::~_String_alloc<std::_String_base_types<wchar_t,std::allocator<wchar_t> > >()
FUNC a5d0 24 0 std::_String_const_iterator<std::_String_val<std::_Simple_types<wchar_t> > >::~_String_const_iterator<std::_String_val<std::_Simple_types<wchar_t> > >()
FUNC a600 24 0 std::_String_iterator<std::_String_val<std::_Simple_types<wchar_t> > >::~_String_iterator<std::_String_val<std::_Simple_types<wchar_t> > >()
FUNC a630 2f 0 std::_String_val<std::_Simple_types<wchar_t> >::~_String_val<std::_Simple_types<wchar_t> >()
FUNC a670 56 0 std::_Vector_alloc<std::_Vec_base_types<google_breakpad::ExceptionHandler *,std::allocator<google_breakpad::ExceptionHandler *> > >::~_Vector_alloc<std::_Vec_base_types<google_breakpad::ExceptionHandler *,std::allocator<google_breakpad::ExceptionHandler *> > >()
FUNC a6e0 24 0 std::_Vector_const_iterator<std::_Vector_val<std::_Simple_types<google_breakpad::ExceptionHandler *> > >::~_Vector_const_iterator<std::_Vector_val<std::_Simple_types<google_breakpad::ExceptionHandler *> > >()
FUNC a710 24 0 std::_Vector_iterator<std::_Vector_val<std::_Simple_types<google_breakpad::ExceptionHandler *> > >::~_Vector_iterator<std::_Vector_val<std::_Simple_types<google_breakpad::ExceptionHandler *> > >()
FUNC a740 24 0 std::_Vector_val<std::_Simple_types<google_breakpad::ExceptionHandler *> >::~_Vector_val<std::_Simple_types<google_breakpad::ExceptionHandler *> >()
FUNC a770 5a 0 std::basic_string<wchar_t,std::char_traits<wchar_t>,std::allocator<wchar_t> >::~basic_string<wchar_t,std::char_traits<wchar_t>,std::allocator<wchar_t> >()
FUNC a7e0 56 0 std::list<google_breakpad::AppMemory,std::allocator<google_breakpad::AppMemory> >::~list<google_breakpad::AppMemory,std::allocator<google_breakpad::AppMemory> >()
FUNC a850 52 0 google_breakpad::scoped_ptr<google_breakpad::CrashGenerationClient>::~scoped_ptr<google_breakpad::CrashGenerationClient>()
FUNC a8c0 56 0 std::vector<google_breakpad::ExceptionHandler *,std::allocator<google_breakpad::ExceptionHandler *> >::~vector<google_breakpad::ExceptionHandler *,std::allocator<google_breakpad::ExceptionHandler *> >()
FUNC a930 81 0 google_breakpad::AutoExceptionHandler::~AutoExceptionHandler()
FUNC a9e0 2f 0 google_breakpad::MinidumpCallbackContext::~MinidumpCallbackContext()
FUNC aa20 12 0 std::_String_val<std::_Simple_types<wchar_t> >::_Bxty::~_Bxty()
FUNC aa40 4e 0 std::_Container_base12::~_Container_base12()
FUNC aab0 ae 0 std::_Iterator_base12::~_Iterator_base12()
FUNC ab90 8 0 operator new(unsigned int,void *)
FUNC aba0 2d 0 std::_Iterator012<std::bidirectional_iterator_tag,google_breakpad::AppMemory,int,google_breakpad::AppMemory const *,google_breakpad::AppMemory const &,std::_Iterator_base12>::operator=(std::_Iterator012<std::bidirectional_iterator_tag,google_breakpad::AppMemory,int,google_breakpad::AppMemory const *,google_breakpad::AppMemory const &,std::_Iterator_base12> &&)
FUNC abe0 2d 0 std::_Iterator012<std::random_access_iterator_tag,google_breakpad::ExceptionHandler *,int,google_breakpad::ExceptionHandler * const *,google_breakpad::ExceptionHandler * const &,std::_Iterator_base12>::operator=(std::_Iterator012<std::random_access_iterator_tag,google_breakpad::ExceptionHandler *,int,google_breakpad::ExceptionHandler * const *,google_breakpad::ExceptionHandler * const &,std::_Iterator_base12> &&)
FUNC ac20 2d 0 std::_List_const_iterator<std::_List_val<std::_List_simple_types<google_breakpad::AppMemory> > >::operator=(std::_List_const_iterator<std::_List_val<std::_List_simple_types<google_breakpad::AppMemory> > > &&)
FUNC ac60 39 0 std::_List_unchecked_const_iterator<std::_List_val<std::_List_simple_types<google_breakpad::AppMemory> >,std::_Iterator_base12>::operator=(std::_List_unchecked_const_iterator<std::_List_val<std::_List_simple_types<google_breakpad::AppMemory> >,std::_Iterator_base12> &&)
FUNC acb0 39 0 std::_Vector_const_iterator<std::_Vector_val<std::_Simple_types<google_breakpad::ExceptionHandler *> > >::operator=(std::_Vector_const_iterator<std::_Vector_val<std::_Simple_types<google_breakpad::ExceptionHandler *> > > &&)
FUNC ad00 2d 0 std::_Vector_iterator<std::_Vector_val<std::_Simple_types<google_breakpad::ExceptionHandler *> > >::operator=(std::_Vector_iterator<std::_Vector_val<std::_Simple_types<google_breakpad::ExceptionHandler *> > > &&)
FUNC ad40 2d 0 std::_Wrap_alloc<std::allocator<wchar_t> >::operator=(std::_Wrap_alloc<std::allocator<wchar_t> > &&)
FUNC ad80 110 0 std::basic_string<wchar_t,std::char_traits<wchar_t>,std::allocator<wchar_t> >::operator=(std::basic_string<wchar_t,std::char_traits<wchar_t>,std::allocator<wchar_t> > &&)
FUNC aee0 77 0 std::basic_string<wchar_t,std::char_traits<wchar_t>,std::allocator<wchar_t> >::operator=(std::basic_string<wchar_t,std::char_traits<wchar_t>,std::allocator<wchar_t> > const &)
FUNC af80 2a 0 std::basic_string<wchar_t,std::char_traits<wchar_t>,std::allocator<wchar_t> >::operator=(wchar_t const *)
FUNC afc0 ea 0 std::_Iterator_base12::operator=(std::_Iterator_base12 const &)
FUNC b0f0 ea 0 std::_List_const_iterator<std::_List_val<std::_List_simple_types<google_breakpad::AppMemory> > >::operator==(std::_List_const_iterator<std::_List_val<std::_List_simple_types<google_breakpad::AppMemory> > > const &)
FUNC b220 3c 0 std::_List_unchecked_const_iterator<std::_List_val<std::_List_simple_types<google_breakpad::AppMemory> >,std::_Iterator_base0>::operator==(std::_List_unchecked_const_iterator<std::_List_val<std::_List_simple_types<google_breakpad::AppMemory> >,std::_Iterator_base0> const &)
FUNC b270 54 0 std::_String_const_iterator<std::_String_val<std::_Simple_types<wchar_t> > >::operator==(std::_String_const_iterator<std::_String_val<std::_Simple_types<wchar_t> > > const &)
FUNC b2e0 54 0 std::_Vector_const_iterator<std::_Vector_val<std::_Simple_types<google_breakpad::ExceptionHandler *> > >::operator==(std::_Vector_const_iterator<std::_Vector_val<std::_Simple_types<google_breakpad::ExceptionHandler *> > > const &)
FUNC b350 5b 0 google_breakpad::AppMemory::operator==(void const *)
FUNC b3d0 4d 0 std::_List_const_iterator<std::_List_val<std::_List_simple_types<google_breakpad::AppMemory> > >::operator!=(std::_List_const_iterator<std::_List_val<std::_List_simple_types<google_breakpad::AppMemory> > > const &)
FUNC b430 4d 0 std::_List_unchecked_const_iterator<std::_List_val<std::_List_simple_types<google_breakpad::AppMemory> >,std::_Iterator_base0>::operator!=(std::_List_unchecked_const_iterator<std::_List_val<std::_List_simple_types<google_breakpad::AppMemory> >,std::_Iterator_base0> const &)
FUNC b490 4d 0 std::_Vector_const_iterator<std::_Vector_val<std::_Simple_types<google_breakpad::ExceptionHandler *> > >::operator!=(std::_Vector_const_iterator<std::_Vector_val<std::_Simple_types<google_breakpad::ExceptionHandler *> > > const &)
FUNC b4f0 2d 0 std::_List_unchecked_const_iterator<std::_List_val<std::_List_simple_types<google_breakpad::AppMemory> >,std::_Iterator_base12>::operator->()
FUNC b530 49 0 google_breakpad::scoped_ptr<google_breakpad::CrashGenerationClient>::operator->()
FUNC b590 e8 0 std::_List_const_iterator<std::_List_val<std::_List_simple_types<google_breakpad::AppMemory> > >::operator*()
FUNC b6c0 24 0 std::_List_iterator<std::_List_val<std::_List_simple_types<google_breakpad::AppMemory> > >::operator*()
FUNC b6f0 2a 0 std::_List_unchecked_const_iterator<std::_List_val<std::_List_simple_types<google_breakpad::AppMemory> >,std::_Iterator_base0>::operator*()
FUNC b730 2b 0 std::_List_unchecked_const_iterator<std::_List_val<std::_List_simple_types<google_breakpad::AppMemory> >,std::_Iterator_base12>::operator*()
FUNC b770 24 0 std::_List_unchecked_iterator<std::_List_val<std::_List_simple_types<google_breakpad::AppMemory> > >::operator*()
FUNC b7a0 11a 0 std::_String_const_iterator<std::_String_val<std::_Simple_types<wchar_t> > >::operator*()
FUNC b900 24 0 std::_String_iterator<std::_String_val<std::_Simple_types<wchar_t> > >::operator*()
FUNC b930 e0 0 std::_Vector_const_iterator<std::_Vector_val<std::_Simple_types<google_breakpad::ExceptionHandler *> > >::operator*()
FUNC ba50 24 0 std::_Vector_iterator<std::_Vector_val<std::_Simple_types<google_breakpad::ExceptionHandler *> > >::operator*()
FUNC ba80 d1 0 std::_List_const_iterator<std::_List_val<std::_List_simple_types<google_breakpad::AppMemory> > >::operator++(int)
FUNC bb90 f3 0 std::_List_const_iterator<std::_List_val<std::_List_simple_types<google_breakpad::AppMemory> > >::operator++()
FUNC bcc0 34 0 std::_List_unchecked_const_iterator<std::_List_val<std::_List_simple_types<google_breakpad::AppMemory> >,std::_Iterator_base0>::operator++()
FUNC bd10 27 0 std::_List_unchecked_iterator<std::_List_val<std::_List_simple_types<google_breakpad::AppMemory> > >::operator++()
FUNC bd40 de 0 std::_Vector_const_iterator<std::_Vector_val<std::_Simple_types<google_breakpad::ExceptionHandler *> > >::operator++()
FUNC be60 27 0 std::_Vector_iterator<std::_Vector_val<std::_Simple_types<google_breakpad::ExceptionHandler *> > >::operator++()
FUNC be90 38 0 std::_String_const_iterator<std::_String_val<std::_Simple_types<wchar_t> > >::operator-(std::_String_const_iterator<std::_String_val<std::_Simple_types<wchar_t> > > const &)
FUNC bee0 2a 0 std::_String_iterator<std::_String_val<std::_Simple_types<wchar_t> > >::operator-(std::_String_const_iterator<std::_String_val<std::_Simple_types<wchar_t> > > const &)
FUNC bf20 d1 0 std::_Vector_iterator<std::_Vector_val<std::_Simple_types<google_breakpad::ExceptionHandler *> > >::operator-(int)
FUNC c030 10b 0 std::_Vector_const_iterator<std::_Vector_val<std::_Simple_types<google_breakpad::ExceptionHandler *> > >::operator+=(int)
FUNC c180 2d 0 std::_Vector_iterator<std::_Vector_val<std::_Simple_types<google_breakpad::ExceptionHandler *> > >::operator+=(int)
FUNC c1c0 2c 0 std::_Vector_iterator<std::_Vector_val<std::_Simple_types<google_breakpad::ExceptionHandler *> > >::operator-=(int)
FUNC c200 3f 0 std::vector<google_breakpad::ExceptionHandler *,std::allocator<google_breakpad::ExceptionHandler *> >::`scalar deleting destructor'(unsigned int)
FUNC c250 42 0 google_breakpad::CrashGenerationClient::`scalar deleting destructor'(unsigned int)
FUNC c2b0 47 0 google_breakpad::ExceptionHandler::IsOutOfProcess()
FUNC c310 14 0 std::_Iterator_base0::_Adopt(void const *)
FUNC c330 150 0 std::_Iterator_base12::_Adopt(std::_Container_base12 const *)
FUNC c4e0 c1 0 std::_List_alloc<std::_List_base_types<google_breakpad::AppMemory,std::allocator<google_breakpad::AppMemory> > >::_Alloc_proxy()
FUNC c5e0 c1 0 std::_String_alloc<std::_String_base_types<wchar_t,std::allocator<wchar_t> > >::_Alloc_proxy()
FUNC c6e0 c1 0 std::_Vector_alloc<std::_Vec_base_types<google_breakpad::ExceptionHandler *,std::allocator<google_breakpad::ExceptionHandler *> > >::_Alloc_proxy()
FUNC c7e0 1b7 0 std::_Allocate(unsigned int,unsigned int,bool)
FUNC ca10 c7 0 std::basic_string<wchar_t,std::char_traits<wchar_t>,std::allocator<wchar_t> >::_Assign_rv(std::basic_string<wchar_t,std::char_traits<wchar_t>,std::allocator<wchar_t> > &&)
FUNC cb10 28 0 std::_List_alloc<std::_List_base_types<google_breakpad::AppMemory,std::allocator<google_breakpad::AppMemory> > >::_Buyheadnode()
FUNC cb50 122 0 std::_List_alloc<std::_List_base_types<google_breakpad::AppMemory,std::allocator<google_breakpad::AppMemory> > >::_Buynode0(std::_List_node<google_breakpad::AppMemory,void *> *,std::_List_node<google_breakpad::AppMemory,void *> *)
FUNC ccc0 27 0 std::_String_alloc<std::_String_base_types<wchar_t,std::allocator<wchar_t> > >::_Bx()
FUNC ccf0 35 0 std::basic_string<wchar_t,std::char_traits<wchar_t>,std::allocator<wchar_t> >::_Check_offset(unsigned int)
FUNC cd40 49 0 std::basic_string<wchar_t,std::char_traits<wchar_t>,std::allocator<wchar_t> >::_Clamp_suffix_size(unsigned int,unsigned int)
FUNC cda0 1b 0 std::_Iterator_base12::_Clrcont()
FUNC cdd0 c0 0 std::_String_const_iterator<std::_String_val<std::_Simple_types<wchar_t> > >::_Compat(std::_String_const_iterator<std::_String_val<std::_Simple_types<wchar_t> > > const &)
FUNC cec0 c0 0 std::_Vector_const_iterator<std::_Vector_val<std::_Simple_types<google_breakpad::ExceptionHandler *> > >::_Compat(std::_Vector_const_iterator<std::_Vector_val<std::_Simple_types<google_breakpad::ExceptionHandler *> > > const &)
FUNC cfb0 225 0 std::basic_string<wchar_t,std::char_traits<wchar_t>,std::allocator<wchar_t> >::_Copy(unsigned int,unsigned int)
FUNC d260 43 0 std::_String_alloc<std::_String_base_types<wchar_t,std::allocator<wchar_t> > >::_Copy_alloc(std::_Wrap_alloc<std::allocator<wchar_t> > const &)
FUNC d2c0 2e8 0 std::_Deallocate(void *,unsigned int,unsigned int)
FUNC d670 37 0 std::vector<google_breakpad::ExceptionHandler *,std::allocator<google_breakpad::ExceptionHandler *> >::_Destroy(google_breakpad::ExceptionHandler * *,google_breakpad::ExceptionHandler * *)
FUNC d6c0 63 0 std::basic_string<wchar_t,std::char_traits<wchar_t>,std::allocator<wchar_t> >::_Eos(unsigned int)
FUNC d740 b1 0 std::_List_alloc<std::_List_base_types<google_breakpad::AppMemory,std::allocator<google_breakpad::AppMemory> > >::_Free_proxy()
FUNC d820 b1 0 std::_String_alloc<std::_String_base_types<wchar_t,std::allocator<wchar_t> > >::_Free_proxy()
FUNC d900 b1 0 std::_Vector_alloc<std::_Vec_base_types<google_breakpad::ExceptionHandler *,std::allocator<google_breakpad::ExceptionHandler *> > >::_Free_proxy()
FUNC d9e0 7d 0 std::_List_alloc<std::_List_base_types<google_breakpad::AppMemory,std::allocator<google_breakpad::AppMemory> > >::_Freeheadnode(std::_List_node<google_breakpad::AppMemory,void *> *)
FUNC da80 a2 0 std::_List_buy<google_breakpad::AppMemory,std::allocator<google_breakpad::AppMemory> >::_Freenode(std::_List_node<google_breakpad::AppMemory,void *> *)
FUNC db50 24 0 std::_List_alloc<std::_List_base_types<google_breakpad::AppMemory,std::allocator<google_breakpad::AppMemory> > >::_Get_data()
FUNC db80 24 0 std::_List_alloc<std::_List_base_types<google_breakpad::AppMemory,std::allocator<google_breakpad::AppMemory> > >::_Get_data()
FUNC dbb0 24 0 std::_String_alloc<std::_String_base_types<wchar_t,std::allocator<wchar_t> > >::_Get_data()
FUNC dbe0 24 0 std::_String_alloc<std::_String_base_types<wchar_t,std::allocator<wchar_t> > >::_Get_data()
FUNC dc10 24 0 std::_Vector_alloc<std::_Vec_base_types<google_breakpad::ExceptionHandler *,std::allocator<google_breakpad::ExceptionHandler *> > >::_Get_data()
FUNC dc40 24 0 std::_Vector_alloc<std::_Vec_base_types<google_breakpad::ExceptionHandler *,std::allocator<google_breakpad::ExceptionHandler *> > >::_Get_data()
FUNC dc70 15 0 std::_Compressed_pair<std::_Wrap_alloc<std::allocator<google_breakpad::ExceptionHandler *> >,std::_Vector_val<std::_Simple_types<google_breakpad::ExceptionHandler *> >,1>::_Get_first()
FUNC dc90 15 0 std::_Compressed_pair<std::_Wrap_alloc<std::allocator<google_breakpad::ExceptionHandler *> >,std::_Vector_val<std::_Simple_types<google_breakpad::ExceptionHandler *> >,1>::_Get_first()
FUNC dcb0 15 0 std::_Compressed_pair<std::_Wrap_alloc<std::allocator<std::_List_node<google_breakpad::AppMemory,void *> > >,std::_List_val<std::_List_simple_types<google_breakpad::AppMemory> >,1>::_Get_first()
FUNC dcd0 15 0 std::_Compressed_pair<std::_Wrap_alloc<std::allocator<std::_List_node<google_breakpad::AppMemory,void *> > >,std::_List_val<std::_List_simple_types<google_breakpad::AppMemory> >,1>::_Get_first()
FUNC dcf0 15 0 std::_Compressed_pair<std::_Wrap_alloc<std::allocator<wchar_t> >,std::_String_val<std::_Simple_types<wchar_t> >,1>::_Get_first()
FUNC dd10 15 0 std::_Compressed_pair<std::_Wrap_alloc<std::allocator<wchar_t> >,std::_String_val<std::_Simple_types<wchar_t> >,1>::_Get_first()
FUNC dd30 15 0 std::_Compressed_pair<std::_Wrap_alloc<std::allocator<google_breakpad::ExceptionHandler *> >,std::_Vector_val<std::_Simple_types<google_breakpad::ExceptionHandler *> >,1>::_Get_second()
FUNC dd50 15 0 std::_Compressed_pair<std::_Wrap_alloc<std::allocator<google_breakpad::ExceptionHandler *> >,std::_Vector_val<std::_Simple_types<google_breakpad::ExceptionHandler *> >,1>::_Get_second()
FUNC dd70 15 0 std::_Compressed_pair<std::_Wrap_alloc<std::allocator<std::_List_node<google_breakpad::AppMemory,void *> > >,std::_List_val<std::_List_simple_types<google_breakpad::AppMemory> >,1>::_Get_second()
FUNC dd90 15 0 std::_Compressed_pair<std::_Wrap_alloc<std::allocator<std::_List_node<google_breakpad::AppMemory,void *> > >,std::_List_val<std::_List_simple_types<google_breakpad::AppMemory> >,1>::_Get_second()
FUNC ddb0 15 0 std::_Compressed_pair<std::_Wrap_alloc<std::allocator<wchar_t> >,std::_String_val<std::_Simple_types<wchar_t> >,1>::_Get_second()
FUNC ddd0 15 0 std::_Compressed_pair<std::_Wrap_alloc<std::allocator<wchar_t> >,std::_String_val<std::_Simple_types<wchar_t> >,1>::_Get_second()
FUNC ddf0 24 0 std::_List_alloc<std::_List_base_types<google_breakpad::AppMemory,std::allocator<google_breakpad::AppMemory> > >::_Getal()
FUNC de20 24 0 std::_List_alloc<std::_List_base_types<google_breakpad::AppMemory,std::allocator<google_breakpad::AppMemory> > >::_Getal()
FUNC de50 24 0 std::_String_alloc<std::_String_base_types<wchar_t,std::allocator<wchar_t> > >::_Getal()
FUNC de80 24 0 std::_String_alloc<std::_String_base_types<wchar_t,std::allocator<wchar_t> > >::_Getal()
FUNC deb0 24 0 std::_Vector_alloc<std::_Vec_base_types<google_breakpad::ExceptionHandler *,std::allocator<google_breakpad::ExceptionHandler *> > >::_Getal()
FUNC dee0 24 0 std::_Vector_alloc<std::_Vec_base_types<google_breakpad::ExceptionHandler *,std::allocator<google_breakpad::ExceptionHandler *> > >::_Getal()
FUNC df10 39 0 std::_Iterator_base12::_Getcont()
FUNC df60 2b 0 std::_List_alloc<std::_List_base_types<google_breakpad::AppMemory,std::allocator<google_breakpad::AppMemory> > >::_Getpfirst()
FUNC dfa0 2b 0 std::_Vector_alloc<std::_Vec_base_types<google_breakpad::ExceptionHandler *,std::allocator<google_breakpad::ExceptionHandler *> > >::_Getpfirst()
FUNC dfe0 3a 0 std::_Container_base12::_Getpfirst()
FUNC e030 18 0 std::_Iterator_base12::_Getpnext()
FUNC e050 d6 0 std::basic_string<wchar_t,std::char_traits<wchar_t>,std::allocator<wchar_t> >::_Grow(unsigned int,bool)
FUNC e160 78 0 std::vector<google_breakpad::ExceptionHandler *,std::allocator<google_breakpad::ExceptionHandler *> >::_Grow_to(unsigned int)
FUNC e200 71 0 std::list<google_breakpad::AppMemory,std::allocator<google_breakpad::AppMemory> >::_Incsize(unsigned int)
FUNC e290 57 0 std::basic_string<wchar_t,std::char_traits<wchar_t>,std::allocator<wchar_t> >::_Inside(wchar_t const *)
FUNC e300 6a 0 std::vector<google_breakpad::ExceptionHandler *,std::allocator<google_breakpad::ExceptionHandler *> >::_Inside(google_breakpad::ExceptionHandler * const *)
FUNC e390 68 0 std::list<google_breakpad::AppMemory,std::allocator<google_breakpad::AppMemory> >::_Make_iter(std::_List_const_iterator<std::_List_val<std::_List_simple_types<google_breakpad::AppMemory> > >)
FUNC e420 8f 0 std::vector<google_breakpad::ExceptionHandler *,std::allocator<google_breakpad::ExceptionHandler *> >::_Make_iter(std::_Vector_const_iterator<std::_Vector_val<std::_Simple_types<google_breakpad::ExceptionHandler *> > >)
FUNC e4e0 43 0 std::_String_alloc<std::_String_base_types<wchar_t,std::allocator<wchar_t> > >::_Move_alloc(std::_Wrap_alloc<std::allocator<wchar_t> > &)
FUNC e540 27 0 std::_Vector_alloc<std::_Vec_base_types<google_breakpad::ExceptionHandler *,std::allocator<google_breakpad::ExceptionHandler *> > >::_Myend()
FUNC e570 27 0 std::_Vector_alloc<std::_Vec_base_types<google_breakpad::ExceptionHandler *,std::allocator<google_breakpad::ExceptionHandler *> > >::_Myend()
FUNC e5a0 27 0 std::_Vector_alloc<std::_Vec_base_types<google_breakpad::ExceptionHandler *,std::allocator<google_breakpad::ExceptionHandler *> > >::_Myfirst()
FUNC e5d0 27 0 std::_Vector_alloc<std::_Vec_base_types<google_breakpad::ExceptionHandler *,std::allocator<google_breakpad::ExceptionHandler *> > >::_Myfirst()
FUNC e600 27 0 std::_List_alloc<std::_List_base_types<google_breakpad::AppMemory,std::allocator<google_breakpad::AppMemory> > >::_Myhead()
FUNC e630 27 0 std::_Vector_alloc<std::_Vec_base_types<google_breakpad::ExceptionHandler *,std::allocator<google_breakpad::ExceptionHandler *> > >::_Mylast()
FUNC e660 27 0 std::_Vector_alloc<std::_Vec_base_types<google_breakpad::ExceptionHandler *,std::allocator<google_breakpad::ExceptionHandler *> > >::_Mylast()
FUNC e690 17 0 std::_List_unchecked_const_iterator<std::_List_val<std::_List_simple_types<google_breakpad::AppMemory> >,std::_Iterator_base0>::_Mynode()
FUNC e6b0 18 0 std::_List_unchecked_const_iterator<std::_List_val<std::_List_simple_types<google_breakpad::AppMemory> >,std::_Iterator_base12>::_Mynode()
FUNC e6d0 24 0 std::_List_alloc<std::_List_base_types<google_breakpad::AppMemory,std::allocator<google_breakpad::AppMemory> > >::_Myproxy()
FUNC e700 24 0 std::_String_alloc<std::_String_base_types<wchar_t,std::allocator<wchar_t> > >::_Myproxy()
FUNC e730 24 0 std::_Vector_alloc<std::_Vec_base_types<google_breakpad::ExceptionHandler *,std::allocator<google_breakpad::ExceptionHandler *> > >::_Myproxy()
FUNC e760 2b 0 std::_String_alloc<std::_String_base_types<wchar_t,std::allocator<wchar_t> > >::_Myptr()
FUNC e7a0 2b 0 std::_String_alloc<std::_String_base_types<wchar_t,std::allocator<wchar_t> > >::_Myptr()
FUNC e7e0 4e 0 std::_String_val<std::_Simple_types<wchar_t> >::_Myptr()
FUNC e850 4e 0 std::_String_val<std::_Simple_types<wchar_t> >::_Myptr()
FUNC e8c0 27 0 std::_String_alloc<std::_String_base_types<wchar_t,std::allocator<wchar_t> > >::_Myres()
FUNC e8f0 27 0 std::_List_alloc<std::_List_base_types<google_breakpad::AppMemory,std::allocator<google_breakpad::AppMemory> > >::_Mysize()
FUNC e920 27 0 std::_String_alloc<std::_String_base_types<wchar_t,std::allocator<wchar_t> > >::_Mysize()
FUNC e950 27 0 std::_String_alloc<std::_String_base_types<wchar_t,std::allocator<wchar_t> > >::_Mysize()
FUNC e980 18 0 std::_List_alloc<std::_List_base_types<google_breakpad::AppMemory,std::allocator<google_breakpad::AppMemory> > >::_Myval(std::_List_node<google_breakpad::AppMemory,void *> *)
FUNC e9a0 b 0 std::_List_val<std::_List_simple_types<google_breakpad::AppMemory> >::_Myval(std::_List_node<google_breakpad::AppMemory,void *> *)
FUNC e9b0 18 0 std::_List_alloc<std::_List_base_types<google_breakpad::AppMemory,std::allocator<google_breakpad::AppMemory> > >::_Nextnode(std::_List_node<google_breakpad::AppMemory,void *> *)
FUNC e9d0 8 0 std::_List_val<std::_List_simple_types<google_breakpad::AppMemory> >::_Nextnode(std::_List_node<google_breakpad::AppMemory,void *> *)
FUNC e9e0 2b 0 std::_List_alloc<std::_List_base_types<google_breakpad::AppMemory,std::allocator<google_breakpad::AppMemory> > >::_Orphan_all()
FUNC ea20 2b 0 std::_String_alloc<std::_String_base_types<wchar_t,std::allocator<wchar_t> > >::_Orphan_all()
FUNC ea60 2b 0 std::_Vector_alloc<std::_Vec_base_types<google_breakpad::ExceptionHandler *,std::allocator<google_breakpad::ExceptionHandler *> > >::_Orphan_all()
FUNC eaa0 c2 0 std::_Container_base12::_Orphan_all()
FUNC eba0 96 0 std::_Iterator_base12::_Orphan_me()
FUNC ec60 126 0 std::list<google_breakpad::AppMemory,std::allocator<google_breakpad::AppMemory> >::_Orphan_ptr(std::_List_node<google_breakpad::AppMemory,void *> *)
FUNC edd0 11a 0 std::vector<google_breakpad::ExceptionHandler *,std::allocator<google_breakpad::ExceptionHandler *> >::_Orphan_range(google_breakpad::ExceptionHandler * *,google_breakpad::ExceptionHandler * *)
FUNC ef30 18 0 std::_List_alloc<std::_List_base_types<google_breakpad::AppMemory,std::allocator<google_breakpad::AppMemory> > >::_Prevnode(std::_List_node<google_breakpad::AppMemory,void *> *)
FUNC ef50 b 0 std::_List_val<std::_List_simple_types<google_breakpad::AppMemory> >::_Prevnode(std::_List_node<google_breakpad::AppMemory,void *> *)
FUNC ef60 17e 0 std::vector<google_breakpad::ExceptionHandler *,std::allocator<google_breakpad::ExceptionHandler *> >::_Reallocate(unsigned int)
FUNC f140 20 0 std::_List_iterator<std::_List_val<std::_List_simple_types<google_breakpad::AppMemory> > >::_Rechecked(std::_List_unchecked_iterator<std::_List_val<std::_List_simple_types<google_breakpad::AppMemory> > >)
FUNC f170 6b 0 std::vector<google_breakpad::ExceptionHandler *,std::allocator<google_breakpad::ExceptionHandler *> >::_Reserve(unsigned int)
FUNC f200 d2 0 std::basic_string<wchar_t,std::char_traits<wchar_t>,std::allocator<wchar_t> >::_Tidy(bool,unsigned int)
FUNC f310 24 0 std::list<google_breakpad::AppMemory,std::allocator<google_breakpad::AppMemory> >::_Tidy()
FUNC f340 b3 0 std::vector<google_breakpad::ExceptionHandler *,std::allocator<google_breakpad::ExceptionHandler *> >::_Tidy()
FUNC f420 39 0 std::_List_iterator<std::_List_val<std::_List_simple_types<google_breakpad::AppMemory> > >::_Unchecked()
FUNC f470 3d 0 std::list<google_breakpad::AppMemory,std::allocator<google_breakpad::AppMemory> >::_Unchecked_end()
FUNC f4c0 13c 0 std::list<google_breakpad::AppMemory,std::allocator<google_breakpad::AppMemory> >::_Unlinknode(std::_List_const_iterator<std::_List_val<std::_List_simple_types<google_breakpad::AppMemory> > >)
FUNC f650 39 0 std::vector<google_breakpad::ExceptionHandler *,std::allocator<google_breakpad::ExceptionHandler *> >::_Unused_capacity()
FUNC f6a0 32 0 std::basic_string<wchar_t,std::char_traits<wchar_t>,std::allocator<wchar_t> >::_Xlen()
FUNC f6e0 32 0 std::vector<google_breakpad::ExceptionHandler *,std::allocator<google_breakpad::ExceptionHandler *> >::_Xlen()
FUNC f720 32 0 std::basic_string<wchar_t,std::char_traits<wchar_t>,std::allocator<wchar_t> >::_Xran()
FUNC f760 32 0 std::vector<google_breakpad::ExceptionHandler *,std::allocator<google_breakpad::ExceptionHandler *> >::_Xran()
FUNC f7a0 2a 0 std::_Wrap_alloc<std::allocator<std::_Container_proxy> >::address(std::_Container_proxy &)
FUNC f7e0 2a 0 std::_Wrap_alloc<std::allocator<wchar_t> >::address(wchar_t &)
FUNC f820 2a 0 std::_Wrap_alloc<std::allocator<google_breakpad::ExceptionHandler *> >::allocate(unsigned int)
FUNC f860 2a 0 std::_Wrap_alloc<std::allocator<std::_List_node<google_breakpad::AppMemory,void *> > >::allocate(unsigned int)
FUNC f8a0 2a 0 std::_Wrap_alloc<std::allocator<std::_Container_proxy> >::allocate(unsigned int)
FUNC f8e0 2a 0 std::_Wrap_alloc<std::allocator<wchar_t> >::allocate(unsigned int)
FUNC f920 2e 0 std::allocator<google_breakpad::ExceptionHandler *>::allocate(unsigned int)
FUNC f960 2e 0 std::allocator<std::_List_node<google_breakpad::AppMemory,void *> >::allocate(unsigned int)
FUNC f9a0 2e 0 std::allocator<std::_Container_proxy>::allocate(unsigned int)
FUNC f9e0 2e 0 std::allocator<wchar_t>::allocate(unsigned int)
FUNC fa20 32 0 std::basic_string<wchar_t,std::char_traits<wchar_t>,std::allocator<wchar_t> >::assign(std::basic_string<wchar_t,std::char_traits<wchar_t>,std::allocator<wchar_t> > const &)
FUNC fa60 ac 0 std::basic_string<wchar_t,std::char_traits<wchar_t>,std::allocator<wchar_t> >::assign(std::basic_string<wchar_t,std::char_traits<wchar_t>,std::allocator<wchar_t> > const &,unsigned int,unsigned int)
FUNC fb40 4d 0 std::basic_string<wchar_t,std::char_traits<wchar_t>,std::allocator<wchar_t> >::assign(wchar_t const *)
FUNC fba0 c4 0 std::basic_string<wchar_t,std::char_traits<wchar_t>,std::allocator<wchar_t> >::assign(wchar_t const *,unsigned int)
FUNC fca0 11 0 std::char_traits<wchar_t>::assign(wchar_t &,wchar_t const &)
FUNC fcc0 43 0 std::vector<google_breakpad::ExceptionHandler *,std::allocator<google_breakpad::ExceptionHandler *> >::at(unsigned int)
FUNC fd20 b4 0 std::vector<google_breakpad::ExceptionHandler *,std::allocator<google_breakpad::ExceptionHandler *> >::back()
FUNC fe10 84 0 std::basic_string<wchar_t,std::char_traits<wchar_t>,std::allocator<wchar_t> >::begin()
FUNC fec0 72 0 std::list<google_breakpad::AppMemory,std::allocator<google_breakpad::AppMemory> >::begin()
FUNC ff50 67 0 std::vector<google_breakpad::ExceptionHandler *,std::allocator<google_breakpad::ExceptionHandler *> >::begin()
FUNC ffd0 4e 0 std::basic_string<wchar_t,std::char_traits<wchar_t>,std::allocator<wchar_t> >::c_str()
FUNC 10040 39 0 std::vector<google_breakpad::ExceptionHandler *,std::allocator<google_breakpad::ExceptionHandler *> >::capacity()
FUNC 10090 100 0 std::list<google_breakpad::AppMemory,std::allocator<google_breakpad::AppMemory> >::clear()
FUNC 101d0 41 0 std::char_traits<wchar_t>::copy(wchar_t *,wchar_t const *,unsigned int)
FUNC 10230 2e 0 std::_Wrap_alloc<std::allocator<google_breakpad::ExceptionHandler *> >::deallocate(google_breakpad::ExceptionHandler * *,unsigned int)
FUNC 10270 2e 0 std::_Wrap_alloc<std::allocator<std::_List_node<google_breakpad::AppMemory,void *> > >::deallocate(std::_List_node<google_breakpad::AppMemory,void *> *,unsigned int)
FUNC 102b0 2e 0 std::_Wrap_alloc<std::allocator<std::_Container_proxy> >::deallocate(std::_Container_proxy *,unsigned int)
FUNC 102f0 2e 0 std::_Wrap_alloc<std::allocator<wchar_t> >::deallocate(wchar_t *,unsigned int)
FUNC 10330 30 0 std::allocator<google_breakpad::ExceptionHandler *>::deallocate(google_breakpad::ExceptionHandler * *,unsigned int)
FUNC 10370 30 0 std::allocator<std::_List_node<google_breakpad::AppMemory,void *> >::deallocate(std::_List_node<google_breakpad::AppMemory,void *> *,unsigned int)
FUNC 103b0 30 0 std::allocator<std::_Container_proxy>::deallocate(std::_Container_proxy *,unsigned int)
FUNC 103f0 30 0 std::allocator<wchar_t>::deallocate(wchar_t *,unsigned int)
FUNC 10430 52 0 std::vector<google_breakpad::ExceptionHandler *,std::allocator<google_breakpad::ExceptionHandler *> >::empty()
FUNC 104a0 8d 0 std::basic_string<wchar_t,std::char_traits<wchar_t>,std::allocator<wchar_t> >::end()
FUNC 10550 67 0 std::list<google_breakpad::AppMemory,std::allocator<google_breakpad::AppMemory> >::end()
FUNC 105d0 67 0 std::vector<google_breakpad::ExceptionHandler *,std::allocator<google_breakpad::ExceptionHandler *> >::end()
FUNC 10650 39 0 std::basic_string<wchar_t,std::char_traits<wchar_t>,std::allocator<wchar_t> >::erase(unsigned int)
FUNC 106a0 ad 0 std::basic_string<wchar_t,std::char_traits<wchar_t>,std::allocator<wchar_t> >::erase(unsigned int,unsigned int)
FUNC 10780 e2 0 std::list<google_breakpad::AppMemory,std::allocator<google_breakpad::AppMemory> >::erase(std::_List_const_iterator<std::_List_val<std::_List_simple_types<google_breakpad::AppMemory> > >)
FUNC 108a0 16b 0 std::vector<google_breakpad::ExceptionHandler *,std::allocator<google_breakpad::ExceptionHandler *> >::erase(std::_Vector_const_iterator<std::_Vector_val<std::_Simple_types<google_breakpad::ExceptionHandler *> > >)
FUNC 10a70 94 0 std::list<google_breakpad::AppMemory,std::allocator<google_breakpad::AppMemory> >::front()
FUNC 10b30 17 0 google_breakpad::scoped_ptr<google_breakpad::CrashGenerationClient>::get()
FUNC 10b50 1b 0 google_breakpad::ExceptionHandler::get_handle_debug_exceptions()
FUNC 10b80 17 0 google_breakpad::AutoExceptionHandler::get_handler()
FUNC 10ba0 4a 0 std::char_traits<wchar_t>::length(wchar_t const *)
FUNC 10c00 2a 0 std::_Wrap_alloc<std::allocator<google_breakpad::ExceptionHandler *> >::max_size(std::_Nil)
FUNC 10c40 2a 0 std::_Wrap_alloc<std::allocator<std::_List_node<google_breakpad::AppMemory,void *> > >::max_size(std::_Nil)
FUNC 10c80 2a 0 std::_Wrap_alloc<std::allocator<wchar_t> >::max_size(std::_Nil)
FUNC 10cc0 17 0 std::allocator<google_breakpad::ExceptionHandler *>::max_size()
FUNC 10ce0 17 0 std::allocator<std::_List_node<google_breakpad::AppMemory,void *> >::max_size()
FUNC 10d00 17 0 std::allocator<wchar_t>::max_size()
FUNC 10d20 14 0 std::allocator_traits<std::allocator<google_breakpad::ExceptionHandler *> >::max_size(std::allocator<google_breakpad::ExceptionHandler *> const &)
FUNC 10d40 14 0 std::allocator_traits<std::allocator<std::_List_node<google_breakpad::AppMemory,void *> > >::max_size(std::allocator<std::_List_node<google_breakpad::AppMemory,void *> > const &)
FUNC 10d60 14 0 std::allocator_traits<std::allocator<wchar_t> >::max_size(std::allocator<wchar_t> const &)
FUNC 10d80 5a 0 std::basic_string<wchar_t,std::char_traits<wchar_t>,std::allocator<wchar_t> >::max_size()
FUNC 10df0 39 0 std::list<google_breakpad::AppMemory,std::allocator<google_breakpad::AppMemory> >::max_size()
FUNC 10e40 39 0 std::vector<google_breakpad::ExceptionHandler *,std::allocator<google_breakpad::ExceptionHandler *> >::max_size()
FUNC 10e90 41 0 std::char_traits<wchar_t>::move(wchar_t *,wchar_t const *,unsigned int)
FUNC 10ef0 18 0 std::pointer_traits<std::_Container_proxy *>::pointer_to(std::_Container_proxy &)
FUNC 10f10 18 0 std::pointer_traits<wchar_t *>::pointer_to(wchar_t &)
FUNC 10f30 18 0 std::pointer_traits<google_breakpad::AppMemory const *>::pointer_to(google_breakpad::AppMemory const &)
FUNC 10f50 b8 0 std::vector<google_breakpad::ExceptionHandler *,std::allocator<google_breakpad::ExceptionHandler *> >::pop_back()
FUNC 11040 4f 0 std::list<google_breakpad::AppMemory,std::allocator<google_breakpad::AppMemory> >::push_back(google_breakpad::AppMemory const &)
FUNC 110b0 182 0 std::vector<google_breakpad::ExceptionHandler *,std::allocator<google_breakpad::ExceptionHandler *> >::push_back(google_breakpad::ExceptionHandler * const &)
FUNC 112a0 2f 0 google_breakpad::scoped_ptr<google_breakpad::CrashGenerationClient>::release()
FUNC 112e0 36c 0 std::basic_string<wchar_t,std::char_traits<wchar_t>,std::allocator<wchar_t> >::replace(unsigned int,unsigned int,std::basic_string<wchar_t,std::char_traits<wchar_t>,std::allocator<wchar_t> > const &,unsigned int,unsigned int)
FUNC 11730 1c6 0 std::basic_string<wchar_t,std::char_traits<wchar_t>,std::allocator<wchar_t> >::replace(unsigned int,unsigned int,wchar_t const *,unsigned int)
FUNC 11970 152 0 std::basic_string<wchar_t,std::char_traits<wchar_t>,std::allocator<wchar_t> >::replace(std::_String_const_iterator<std::_String_val<std::_Simple_types<wchar_t> > >,std::_String_const_iterator<std::_String_val<std::_Simple_types<wchar_t> > >,std::_String_iterator<std::_String_val<std::_Simple_types<wchar_t> > >,std::_String_iterator<std::_String_val<std::_Simple_types<wchar_t> > >)
FUNC 11b20 66 0 google_breakpad::scoped_ptr<google_breakpad::CrashGenerationClient>::reset(google_breakpad::CrashGenerationClient *)
FUNC 11ba0 46 0 google_breakpad::ExceptionHandler::set_dump_path(std::basic_string<wchar_t,std::char_traits<wchar_t>,std::allocator<wchar_t> > const &)
FUNC 11c00 39 0 std::vector<google_breakpad::ExceptionHandler *,std::allocator<google_breakpad::ExceptionHandler *> >::size()
FUNC 11c50 a 0 __local_stdio_printf_options
FUNC 11c60 58 0 _snwprintf_s
FUNC 11cd0 3c 0 _vfprintf_l
FUNC 11d20 75 0 _vsnwprintf_s_l
FUNC 11dc0 71 0 _vswprintf_s_l
FUNC 11e50 50 0 fprintf
FUNC 11ec0 54 0 swprintf_s
FUNC 11f30 22 0 wmemcpy
FUNC 11f60 2e 0 wmemmove
FUNC 11fa0 19d 0 google_breakpad::WindowsStringUtils::safe_mbstowcs(std::basic_string<char,std::char_traits<char>,std::allocator<char> > const &,std::basic_string<wchar_t,std::char_traits<wchar_t>,std::allocator<wchar_t> > *)
FUNC 12140 19d 0 google_breakpad::WindowsStringUtils::safe_wcstombs(std::basic_string<wchar_t,std::char_traits<wchar_t>,std::allocator<wchar_t> > const &,std::basic_string<char,std::char_traits<char>,std::allocator<char> > *)
FUNC 122e0 102 0 google_breakpad::WindowsStringUtils::GetBaseName(std::basic_string<wchar_t,std::char_traits<wchar_t>,std::allocator<wchar_t> > const &)
FUNC 12500 31 0 std::_Compressed_pair<std::_Wrap_alloc<std::allocator<char> >,std::_Vector_val<std::_Simple_types<char> >,1>::_Compressed_pair<std::_Wrap_alloc<std::allocator<char> >,std::_Vector_val<std::_Simple_types<char> >,1><>(std::_Zero_then_variadic_args_t)
FUNC 12540 31 0 std::_Compressed_pair<std::_Wrap_alloc<std::allocator<wchar_t> >,std::_Vector_val<std::_Simple_types<wchar_t> >,1>::_Compressed_pair<std::_Wrap_alloc<std::allocator<wchar_t> >,std::_Vector_val<std::_Simple_types<wchar_t> >,1><>(std::_Zero_then_variadic_args_t)
FUNC 12580 36 0 std::_Wrap_alloc<std::allocator<std::_Container_proxy> >::_Wrap_alloc<std::allocator<std::_Container_proxy> ><std::_Wrap_alloc<std::allocator<char> > &>(std::_Wrap_alloc<std::allocator<char> > &)
FUNC 125d0 17 0 std::allocator<std::_Container_proxy>::allocator<std::_Container_proxy><char>(std::allocator<char> const &)
FUNC 125f0 3e 0 std::_Compressed_pair<std::_Wrap_alloc<std::allocator<wchar_t> >,std::_String_val<std::_Simple_types<wchar_t> >,1>::_Compressed_pair<std::_Wrap_alloc<std::allocator<wchar_t> >,std::_String_val<std::_Simple_types<wchar_t> >,1><std::_Wrap_alloc<std::allocator<wchar_t> > >(std::_One_then_variadic_args_t,std::_Wrap_alloc<std::allocator<wchar_t> > &&)
FUNC 12640 84 0 std::_String_alloc<std::_String_base_types<wchar_t,std::allocator<wchar_t> > >::_String_alloc<std::_String_base_types<wchar_t,std::allocator<wchar_t> > ><std::_Wrap_alloc<std::allocator<wchar_t> >,void>(std::_Wrap_alloc<std::allocator<wchar_t> > &&)
FUNC 126f0 36 0 std::_Wrap_alloc<std::allocator<wchar_t> >::_Wrap_alloc<std::allocator<wchar_t> ><std::allocator<wchar_t> >(std::allocator<wchar_t> &&)
FUNC 12740 33 0 std::_Debug_pointer<char const >(char const *,wchar_t const *,unsigned int)
FUNC 12780 3b 0 std::_Debug_pointer_if<char const >(bool,char const *,wchar_t const *,unsigned int)
FUNC 127d0 5 0 std::_Destroy_range1<std::allocator<char>,char *>(char *,char *,std::_Wrap_alloc<std::allocator<char> > &,std::integral_constant<bool,1>)
FUNC 127e0 5 0 std::_Destroy_range1<std::allocator<wchar_t>,wchar_t *>(wchar_t *,wchar_t *,std::_Wrap_alloc<std::allocator<wchar_t> > &,std::integral_constant<bool,1>)
FUNC 127f0 32 0 std::_Destroy_range<std::allocator<char>,char *>(char *,char *,std::_Wrap_alloc<std::allocator<char> > &)
FUNC 12830 32 0 std::_Destroy_range<std::allocator<wchar_t>,wchar_t *>(wchar_t *,wchar_t *,std::_Wrap_alloc<std::allocator<wchar_t> > &)
FUNC 12870 8 0 std::_Unfancy<char>(char *)
FUNC 12880 1e 0 std::_Uninitialized_default_fill_n1<char *,unsigned int,std::allocator<char> >(char *,unsigned int,std::_Wrap_alloc<std::allocator<char> > &,std::integral_constant<bool,1>)
FUNC 128b0 20 0 std::_Uninitialized_default_fill_n1<wchar_t *,unsigned int,std::allocator<wchar_t> >(wchar_t *,unsigned int,std::_Wrap_alloc<std::allocator<wchar_t> > &,std::integral_constant<bool,1>)
FUNC 128e0 32 0 std::_Uninitialized_default_fill_n<char *,unsigned int,std::allocator<char> >(char *,unsigned int,std::_Wrap_alloc<std::allocator<char> > &)
FUNC 12920 32 0 std::_Uninitialized_default_fill_n<wchar_t *,unsigned int,std::allocator<wchar_t> >(wchar_t *,unsigned int,std::_Wrap_alloc<std::allocator<wchar_t> > &)
FUNC 12960 8 0 std::addressof<char *>(char * &)
FUNC 12970 3b 0 std::_Wrap_alloc<std::allocator<char> >::construct<char *,char * &>(char * *,char * &)
FUNC 129c0 67 0 std::allocator<char>::construct<char *,char * &>(char * *,char * &)
FUNC 12a40 25 0 std::allocator_traits<std::allocator<char> >::construct<char *,char * &>(std::allocator<char> &,char * *,char * &)
FUNC 12a70 2e 0 std::_Wrap_alloc<std::allocator<char> >::destroy<char *>(char * *)
FUNC 12ab0 14 0 std::allocator<char>::destroy<char *>(char * *)
FUNC 12ad0 18 0 std::allocator_traits<std::allocator<char> >::destroy<char *>(std::allocator<char> &,char * *)
FUNC 12af0 8 0 std::forward<char * &>(char * &)
FUNC 12b00 8 0 std::forward<std::_Wrap_alloc<std::allocator<char> > &>(std::_Wrap_alloc<std::allocator<char> > &)
FUNC 12b10 8 0 std::forward<std::_Wrap_alloc<std::allocator<wchar_t> > >(std::_Wrap_alloc<std::allocator<wchar_t> > &)
FUNC 12b20 8 0 std::forward<std::allocator<wchar_t> >(std::allocator<wchar_t> &)
FUNC 12b30 75 0 std::_Vector_alloc<std::_Vec_base_types<char,std::allocator<char> > >::_Vector_alloc<std::_Vec_base_types<char,std::allocator<char> > >()
FUNC 12bd0 75 0 std::_Vector_alloc<std::_Vec_base_types<wchar_t,std::allocator<wchar_t> > >::_Vector_alloc<std::_Vec_base_types<wchar_t,std::allocator<wchar_t> > >()
FUNC 12c70 45 0 std::_Vector_val<std::_Simple_types<char> >::_Vector_val<std::_Simple_types<char> >()
FUNC 12cd0 45 0 std::_Vector_val<std::_Simple_types<wchar_t> >::_Vector_val<std::_Simple_types<wchar_t> >()
FUNC 12d30 27 0 std::_Wrap_alloc<std::allocator<char> >::_Wrap_alloc<std::allocator<char> >()
FUNC 12d60 36 0 std::_Wrap_alloc<std::allocator<wchar_t> >::_Wrap_alloc<std::allocator<wchar_t> >(std::_Wrap_alloc<std::allocator<wchar_t> > &&)
FUNC 12db0 15 0 std::allocator<char>::allocator<char>()
FUNC 12dd0 17 0 std::allocator<wchar_t>::allocator<wchar_t>(std::allocator<wchar_t> const &)
FUNC 12df0 86 0 std::basic_string<wchar_t,std::char_traits<wchar_t>,std::allocator<wchar_t> >::basic_string<wchar_t,std::char_traits<wchar_t>,std::allocator<wchar_t> >(std::basic_string<wchar_t,std::char_traits<wchar_t>,std::allocator<wchar_t> > &&)
FUNC 12ea0 a4 0 std::basic_string<wchar_t,std::char_traits<wchar_t>,std::allocator<wchar_t> >::basic_string<wchar_t,std::char_traits<wchar_t>,std::allocator<wchar_t> >(std::basic_string<wchar_t,std::char_traits<wchar_t>,std::allocator<wchar_t> > const &)
FUNC 12f70 ec 0 std::vector<char,std::allocator<char> >::vector<char,std::allocator<char> >(unsigned int)
FUNC 130a0 ef 0 std::vector<wchar_t,std::allocator<wchar_t> >::vector<wchar_t,std::allocator<wchar_t> >(unsigned int)
FUNC 131d0 24 0 std::_Compressed_pair<std::_Wrap_alloc<std::allocator<char> >,std::_Vector_val<std::_Simple_types<char> >,1>::~_Compressed_pair<std::_Wrap_alloc<std::allocator<char> >,std::_Vector_val<std::_Simple_types<char> >,1>()
FUNC 13200 24 0 std::_Compressed_pair<std::_Wrap_alloc<std::allocator<wchar_t> >,std::_Vector_val<std::_Simple_types<wchar_t> >,1>::~_Compressed_pair<std::_Wrap_alloc<std::allocator<wchar_t> >,std::_Vector_val<std::_Simple_types<wchar_t> >,1>()
FUNC 13230 56 0 std::_Vector_alloc<std::_Vec_base_types<char,std::allocator<char> > >::~_Vector_alloc<std::_Vec_base_types<char,std::allocator<char> > >()
FUNC 132a0 56 0 std::_Vector_alloc<std::_Vec_base_types<wchar_t,std::allocator<wchar_t> > >::~_Vector_alloc<std::_Vec_base_types<wchar_t,std::allocator<wchar_t> > >()
FUNC 13310 24 0 std::_Vector_val<std::_Simple_types<char> >::~_Vector_val<std::_Simple_types<char> >()
FUNC 13340 24 0 std::_Vector_val<std::_Simple_types<wchar_t> >::~_Vector_val<std::_Simple_types<wchar_t> >()
FUNC 13370 56 0 std::vector<char,std::allocator<char> >::~vector<char,std::allocator<char> >()
FUNC 133e0 56 0 std::vector<wchar_t,std::allocator<wchar_t> >::~vector<wchar_t,std::allocator<wchar_t> >()
FUNC 13450 2a 0 std::basic_string<char,std::char_traits<char>,std::allocator<char> >::operator=(char const *)
FUNC 13490 c4 0 std::vector<char,std::allocator<char> >::operator[](unsigned int)
FUNC 13590 c7 0 std::vector<wchar_t,std::allocator<wchar_t> >::operator[](unsigned int)
FUNC 13690 c1 0 std::_Vector_alloc<std::_Vec_base_types<char,std::allocator<char> > >::_Alloc_proxy()
FUNC 13790 c1 0 std::_Vector_alloc<std::_Vec_base_types<wchar_t,std::allocator<wchar_t> > >::_Alloc_proxy()
FUNC 13890 bb 0 std::vector<char,std::allocator<char> >::_Buy(unsigned int)
FUNC 13980 be 0 std::vector<wchar_t,std::allocator<wchar_t> >::_Buy(unsigned int)
FUNC 13a70 27 0 std::_String_alloc<std::_String_base_types<char,std::allocator<char> > >::_Bx()
FUNC 13aa0 35 0 std::basic_string<char,std::char_traits<char>,std::allocator<char> >::_Check_offset(unsigned int)
FUNC 13af0 49 0 std::basic_string<char,std::char_traits<char>,std::allocator<char> >::_Clamp_suffix_size(unsigned int,unsigned int)
FUNC 13b50 225 0 std::basic_string<char,std::char_traits<char>,std::allocator<char> >::_Copy(unsigned int,unsigned int)
FUNC 13e00 37 0 std::vector<char,std::allocator<char> >::_Destroy(char *,char *)
FUNC 13e50 37 0 std::vector<wchar_t,std::allocator<wchar_t> >::_Destroy(wchar_t *,wchar_t *)
FUNC 13ea0 5e 0 std::basic_string<char,std::char_traits<char>,std::allocator<char> >::_Eos(unsigned int)
FUNC 13f20 b1 0 std::_Vector_alloc<std::_Vec_base_types<char,std::allocator<char> > >::_Free_proxy()
FUNC 14000 b1 0 std::_Vector_alloc<std::_Vec_base_types<wchar_t,std::allocator<wchar_t> > >::_Free_proxy()
FUNC 140e0 24 0 std::_String_alloc<std::_String_base_types<char,std::allocator<char> > >::_Get_data()
FUNC 14110 24 0 std::_String_alloc<std::_String_base_types<char,std::allocator<char> > >::_Get_data()
FUNC 14140 24 0 std::_Vector_alloc<std::_Vec_base_types<char,std::allocator<char> > >::_Get_data()
FUNC 14170 24 0 std::_Vector_alloc<std::_Vec_base_types<char,std::allocator<char> > >::_Get_data()
FUNC 141a0 24 0 std::_Vector_alloc<std::_Vec_base_types<wchar_t,std::allocator<wchar_t> > >::_Get_data()
FUNC 141d0 24 0 std::_Vector_alloc<std::_Vec_base_types<wchar_t,std::allocator<wchar_t> > >::_Get_data()
FUNC 14200 15 0 std::_Compressed_pair<std::_Wrap_alloc<std::allocator<char> >,std::_String_val<std::_Simple_types<char> >,1>::_Get_first()
FUNC 14220 15 0 std::_Compressed_pair<std::_Wrap_alloc<std::allocator<char> >,std::_String_val<std::_Simple_types<char> >,1>::_Get_first()
FUNC 14240 15 0 std::_Compressed_pair<std::_Wrap_alloc<std::allocator<char> >,std::_Vector_val<std::_Simple_types<char> >,1>::_Get_first()
FUNC 14260 15 0 std::_Compressed_pair<std::_Wrap_alloc<std::allocator<char> >,std::_Vector_val<std::_Simple_types<char> >,1>::_Get_first()
FUNC 14280 15 0 std::_Compressed_pair<std::_Wrap_alloc<std::allocator<wchar_t> >,std::_Vector_val<std::_Simple_types<wchar_t> >,1>::_Get_first()
FUNC 142a0 15 0 std::_Compressed_pair<std::_Wrap_alloc<std::allocator<wchar_t> >,std::_Vector_val<std::_Simple_types<wchar_t> >,1>::_Get_first()
FUNC 142c0 15 0 std::_Compressed_pair<std::_Wrap_alloc<std::allocator<char> >,std::_String_val<std::_Simple_types<char> >,1>::_Get_second()
FUNC 142e0 15 0 std::_Compressed_pair<std::_Wrap_alloc<std::allocator<char> >,std::_String_val<std::_Simple_types<char> >,1>::_Get_second()
FUNC 14300 15 0 std::_Compressed_pair<std::_Wrap_alloc<std::allocator<char> >,std::_Vector_val<std::_Simple_types<char> >,1>::_Get_second()
FUNC 14320 15 0 std::_Compressed_pair<std::_Wrap_alloc<std::allocator<char> >,std::_Vector_val<std::_Simple_types<char> >,1>::_Get_second()
FUNC 14340 15 0 std::_Compressed_pair<std::_Wrap_alloc<std::allocator<wchar_t> >,std::_Vector_val<std::_Simple_types<wchar_t> >,1>::_Get_second()
FUNC 14360 15 0 std::_Compressed_pair<std::_Wrap_alloc<std::allocator<wchar_t> >,std::_Vector_val<std::_Simple_types<wchar_t> >,1>::_Get_second()
FUNC 14380 24 0 std::_String_alloc<std::_String_base_types<char,std::allocator<char> > >::_Getal()
FUNC 143b0 24 0 std::_String_alloc<std::_String_base_types<char,std::allocator<char> > >::_Getal()
FUNC 143e0 24 0 std::_Vector_alloc<std::_Vec_base_types<char,std::allocator<char> > >::_Getal()
FUNC 14410 24 0 std::_Vector_alloc<std::_Vec_base_types<char,std::allocator<char> > >::_Getal()
FUNC 14440 24 0 std::_Vector_alloc<std::_Vec_base_types<wchar_t,std::allocator<wchar_t> > >::_Getal()
FUNC 14470 24 0 std::_Vector_alloc<std::_Vec_base_types<wchar_t,std::allocator<wchar_t> > >::_Getal()
FUNC 144a0 d6 0 std::basic_string<char,std::char_traits<char>,std::allocator<char> >::_Grow(unsigned int,bool)
FUNC 145b0 54 0 std::basic_string<char,std::char_traits<char>,std::allocator<char> >::_Inside(char const *)
FUNC 14620 27 0 std::_Vector_alloc<std::_Vec_base_types<char,std::allocator<char> > >::_Myend()
FUNC 14650 27 0 std::_Vector_alloc<std::_Vec_base_types<wchar_t,std::allocator<wchar_t> > >::_Myend()
FUNC 14680 27 0 std::_Vector_alloc<std::_Vec_base_types<char,std::allocator<char> > >::_Myfirst()
FUNC 146b0 27 0 std::_Vector_alloc<std::_Vec_base_types<char,std::allocator<char> > >::_Myfirst()
FUNC 146e0 27 0 std::_Vector_alloc<std::_Vec_base_types<wchar_t,std::allocator<wchar_t> > >::_Myfirst()
FUNC 14710 27 0 std::_Vector_alloc<std::_Vec_base_types<wchar_t,std::allocator<wchar_t> > >::_Myfirst()
FUNC 14740 27 0 std::_Vector_alloc<std::_Vec_base_types<char,std::allocator<char> > >::_Mylast()
FUNC 14770 27 0 std::_Vector_alloc<std::_Vec_base_types<char,std::allocator<char> > >::_Mylast()
FUNC 147a0 27 0 std::_Vector_alloc<std::_Vec_base_types<wchar_t,std::allocator<wchar_t> > >::_Mylast()
FUNC 147d0 27 0 std::_Vector_alloc<std::_Vec_base_types<wchar_t,std::allocator<wchar_t> > >::_Mylast()
FUNC 14800 24 0 std::_Vector_alloc<std::_Vec_base_types<char,std::allocator<char> > >::_Myproxy()
FUNC 14830 24 0 std::_Vector_alloc<std::_Vec_base_types<wchar_t,std::allocator<wchar_t> > >::_Myproxy()
FUNC 14860 2b 0 std::_String_alloc<std::_String_base_types<char,std::allocator<char> > >::_Myptr()
FUNC 148a0 2b 0 std::_String_alloc<std::_String_base_types<char,std::allocator<char> > >::_Myptr()
FUNC 148e0 4e 0 std::_String_val<std::_Simple_types<char> >::_Myptr()
FUNC 14950 4e 0 std::_String_val<std::_Simple_types<char> >::_Myptr()
FUNC 149c0 27 0 std::_String_alloc<std::_String_base_types<char,std::allocator<char> > >::_Myres()
FUNC 149f0 27 0 std::_String_alloc<std::_String_base_types<char,std::allocator<char> > >::_Mysize()
FUNC 14a20 27 0 std::_String_alloc<std::_String_base_types<char,std::allocator<char> > >::_Mysize()
FUNC 14a50 2b 0 std::_Vector_alloc<std::_Vec_base_types<char,std::allocator<char> > >::_Orphan_all()
FUNC 14a90 2b 0 std::_Vector_alloc<std::_Vec_base_types<wchar_t,std::allocator<wchar_t> > >::_Orphan_all()
FUNC 14ad0 d2 0 std::basic_string<char,std::char_traits<char>,std::allocator<char> >::_Tidy(bool,unsigned int)
FUNC 14be0 b0 0 std::vector<char,std::allocator<char> >::_Tidy()
FUNC 14cc0 b2 0 std::vector<wchar_t,std::allocator<wchar_t> >::_Tidy()
FUNC 14da0 32 0 std::basic_string<char,std::char_traits<char>,std::allocator<char> >::_Xlen()
FUNC 14de0 32 0 std::vector<char,std::allocator<char> >::_Xlen()
FUNC 14e20 32 0 std::vector<wchar_t,std::allocator<wchar_t> >::_Xlen()
FUNC 14e60 32 0 std::basic_string<char,std::char_traits<char>,std::allocator<char> >::_Xran()
FUNC 14ea0 2a 0 std::_Wrap_alloc<std::allocator<char> >::allocate(unsigned int)
FUNC 14ee0 2e 0 std::allocator<char>::allocate(unsigned int)
FUNC 14f20 a9 0 std::basic_string<char,std::char_traits<char>,std::allocator<char> >::assign(std::basic_string<char,std::char_traits<char>,std::allocator<char> > const &,unsigned int,unsigned int)
FUNC 15000 4d 0 std::basic_string<char,std::char_traits<char>,std::allocator<char> >::assign(char const *)
FUNC 15060 c2 0 std::basic_string<char,std::char_traits<char>,std::allocator<char> >::assign(char const *,unsigned int)
FUNC 15160 f 0 std::char_traits<char>::assign(char &,char const &)
FUNC 15180 4e 0 std::basic_string<char,std::char_traits<char>,std::allocator<char> >::c_str()
FUNC 151f0 41 0 std::char_traits<char>::copy(char *,char const *,unsigned int)
FUNC 15250 2e 0 std::_Wrap_alloc<std::allocator<char> >::deallocate(char *,unsigned int)
FUNC 15290 30 0 std::allocator<char>::deallocate(char *,unsigned int)
FUNC 152d0 39 0 std::basic_string<char,std::char_traits<char>,std::allocator<char> >::erase(unsigned int)
FUNC 15320 a7 0 std::basic_string<char,std::char_traits<char>,std::allocator<char> >::erase(unsigned int,unsigned int)
FUNC 153f0 45 0 std::char_traits<wchar_t>::find(wchar_t const *,unsigned int,wchar_t const &)
FUNC 15450 51 0 std::basic_string<wchar_t,std::char_traits<wchar_t>,std::allocator<wchar_t> >::find_last_of(wchar_t const *,unsigned int)
FUNC 154c0 f6 0 std::basic_string<wchar_t,std::char_traits<wchar_t>,std::allocator<wchar_t> >::find_last_of(wchar_t const *,unsigned int,unsigned int)
FUNC 15600 3e 0 std::char_traits<char>::length(char const *)
FUNC 15650 2a 0 std::_Wrap_alloc<std::allocator<char> >::max_size(std::_Nil)
FUNC 15690 15 0 std::allocator<char>::max_size()
FUNC 156b0 14 0 std::allocator_traits<std::allocator<char> >::max_size(std::allocator<char> const &)
FUNC 156d0 5a 0 std::basic_string<char,std::char_traits<char>,std::allocator<char> >::max_size()
FUNC 15740 39 0 std::vector<char,std::allocator<char> >::max_size()
FUNC 15790 39 0 std::vector<wchar_t,std::allocator<wchar_t> >::max_size()
FUNC 157e0 4d 0 std::char_traits<char>::move(char *,char const *,unsigned int)
FUNC 15840 43 0 std::_Wrap_alloc<std::allocator<wchar_t> >::select_on_container_copy_construction(std::_Nil)
FUNC 158a0 1b 0 std::allocator_traits<std::allocator<wchar_t> >::select_on_container_copy_construction(std::allocator<wchar_t> const &)
FUNC 158d0 36 0 std::vector<char,std::allocator<char> >::size()
FUNC 15920 38 0 std::vector<wchar_t,std::allocator<wchar_t> >::size()
FUNC 15970 36 0 wmemchr
FUNC 159c0 15c 0 google_breakpad::GUIDString::GUIDToWString(_GUID *)
FUNC 15b20 15c 0 google_breakpad::GUIDString::GUIDToSymbolServerWString(_GUID *)
FUNC 15d30 79 0 std::basic_string<wchar_t,std::char_traits<wchar_t>,std::allocator<wchar_t> >::basic_string<wchar_t,std::char_traits<wchar_t>,std::allocator<wchar_t> >(wchar_t const *)
FUNC 15dd0 b6 0 google_breakpad::CrashGenerationClient::CrashGenerationClient(wchar_t const *,_MINIDUMP_TYPE,google_breakpad::CustomClientInfo const *)
FUNC 15e90 b1 0 google_breakpad::CrashGenerationClient::CrashGenerationClient(void *,_MINIDUMP_TYPE,google_breakpad::CustomClientInfo const *)
FUNC 15f50 83 0 google_breakpad::CrashGenerationClient::~CrashGenerationClient()
FUNC 15fe0 7b 0 google_breakpad::CrashGenerationClient::Register()
FUNC 16060 124 0 google_breakpad::CrashGenerationClient::RequestUpload(unsigned long)
FUNC 16190 8f 0 google_breakpad::CrashGenerationClient::RequestDump(_EXCEPTION_POINTERS *,MDRawAssertionInfo *)
FUNC 16220 2c 0 google_breakpad::CrashGenerationClient::RequestDump(_EXCEPTION_POINTERS *)
FUNC 16250 2c 0 google_breakpad::CrashGenerationClient::RequestDump(MDRawAssertionInfo *)
FUNC 16280 133 0 google_breakpad::CrashGenerationClient::DuplicatePipeToClientProcess(wchar_t const *,void *)
FUNC 163c0 c5 0 google_breakpad::CrashGenerationClient::ConnectToServer()
FUNC 16490 19a 0 google_breakpad::CrashGenerationClient::RegisterClient(void *)
FUNC 16630 5c 0 google_breakpad::CrashGenerationClient::ValidateResponse(google_breakpad::ProtocolMessage const &)
FUNC 16690 37 0 google_breakpad::CrashGenerationClient::IsRegistered()
FUNC 166d0 d3 0 google_breakpad::CrashGenerationClient::ConnectToPipe(wchar_t const *,unsigned long,unsigned long)
FUNC 167b0 169 0 google_breakpad::CrashGenerationClient::SignalCrashEventAndWait()
FUNC 16bf0 78 0 google_breakpad::ProtocolMessage::ProtocolMessage(google_breakpad::MessageTag,unsigned long,_MINIDUMP_TYPE,unsigned long *,_EXCEPTION_POINTERS * *,MDRawAssertionInfo *,google_breakpad::CustomClientInfo const &,void *,void *,void *)
FUNC 16c90 7b 0 google_breakpad::ProtocolMessage::ProtocolMessage()
FUNC 16d30 a4 0 Breakpad::CrashHandler::instance()
FUNC 16de0 2c 0 Breakpad::CrashHandler::Init(QString const &)
FUNC 16e10 1c 0 Breakpad::CrashHandler::setReportCrashesToSystem(bool)
FUNC 16e30 b3 0 Breakpad::CrashHandler::writeMinidump()
FUNC 16ef0 98 0 Breakpad::CrashHandler::CrashHandler()
FUNC 16f90 52 0 Breakpad::CrashHandler::~CrashHandler()
FUNC 16ff0 126 0 Breakpad::CrashHandlerPrivate::InitCrashHandler(QString const &)
FUNC 17120 7f 0 Breakpad::DumpCallback(wchar_t const *,wchar_t const *,void *,_EXCEPTION_POINTERS *,MDRawAssertionInfo *,bool)
FUNC 172c0 1f 0 Breakpad::CrashHandlerPrivate::CrashHandlerPrivate()
FUNC 172f0 52 0 Breakpad::CrashHandlerPrivate::~CrashHandlerPrivate()
FUNC 17360 3f 0 Breakpad::CrashHandlerPrivate::`scalar deleting destructor'(unsigned int)
FUNC 173b0 42 0 google_breakpad::ExceptionHandler::`scalar deleting destructor'(unsigned int)
FUNC 17410 2a 0 qInitResources_qml()
FUNC 17440 2a 0 qCleanupResources_qml()
FUNC 17480 24 0 `anonymous namespace'::initializer::initializer
FUNC 174b0 4b 0 `anonymous namespace'::initializer::~initializer
FUNC 17690 11 0 operator delete(void *,unsigned int)
FUNC 176b0 32 4 _RTC_AllocaHelper
FUNC 176f0 d1 4 _RTC_CheckStackVars2
FUNC 17800 58 0 _RTC_CheckStackVars
FUNC 17870 31 0 _RTC_CheckEsp
FUNC 178b0 11 0 __security_check_cookie
FUNC 178d0 6 14 _CRT_RTC_INIT
FUNC 178e0 6 14 _CRT_RTC_INITW
FUNC 178f0 29 0 _RTC_InitBase
FUNC 17930 13 0 _RTC_Shutdown
FUNC 17950 46 0 operator new(unsigned int)
FUNC 179b0 13 0 operator delete(void *)
FUNC 179d0 29 0 __raise_securityfailure
FUNC 17a10 103 0 __report_gsfailure
FUNC 17b60 c 0 __report_rangecheckfailure
FUNC 17b70 d2 0 __report_securityfailure
FUNC 17c80 125 0 __report_securityfailureEx
FUNC 17df0 26 0 __crt_fast_decode_pointer<void (**)(void)>(void (** const)(void))
FUNC 17e20 2d 0 __crt_fast_encode_pointer<void (**)(void)>(void (** const)(void))
FUNC 17e60 d 0 __crt_rotate_pointer_value(unsigned int,int)
FUNC 17e70 13 0 __scrt_narrow_argv_policy::configure_argv()
FUNC 17e90 81 0 find_pe_section
FUNC 17f40 69 0 is_potentially_valid_image_base
FUNC 17fd0 b 0 NtCurrentTeb
FUNC 17fe0 49 0 __scrt_acquire_startup_lock
FUNC 18040 29 0 __scrt_dllmain_after_initialize_c
FUNC 18080 1c 0 __scrt_dllmain_before_initialize_c
FUNC 180b0 2c 0 __scrt_dllmain_crt_thread_attach
FUNC 180f0 11 0 __scrt_dllmain_crt_thread_detach
FUNC 18110 42 0 __scrt_dllmain_exception_filter
FUNC 18170 2b 0 __scrt_dllmain_uninitialize_c
FUNC 181b0 14 0 __scrt_dllmain_uninitialize_critical
FUNC 181d0 43 0 __scrt_initialize_crt
FUNC 18230 c6 0 __scrt_initialize_onexit_tables
FUNC 18330 129 0 __scrt_is_nonwritable_in_current_image
FUNC 184b0 23 0 __scrt_release_startup_lock
FUNC 184e0 38 0 __scrt_uninitialize_crt
FUNC 18530 6e 0 _onexit
FUNC 185c0 48 0 at_quick_exit
FUNC 18620 2b 0 atexit
FUNC 18660 f7 0 __scrt_initialize_thread_safe_statics
FUNC 187a0 26 0 __crt_fast_decode_pointer<int (*)(_RTL_CONDITION_VARIABLE *,_RTL_CRITICAL_SECTION *,unsigned long)>(int (*const)(_RTL_CONDITION_VARIABLE *,_RTL_CRITICAL_SECTION *,unsigned long))
FUNC 187d0 26 0 __crt_fast_decode_pointer<void (*)(_RTL_CONDITION_VARIABLE *)>(void (*const)(_RTL_CONDITION_VARIABLE *))
FUNC 18800 2d 0 __crt_fast_encode_pointer<int (*)(_RTL_CONDITION_VARIABLE *,_RTL_CRITICAL_SECTION *,unsigned long)>(int (*const)(_RTL_CONDITION_VARIABLE *,_RTL_CRITICAL_SECTION *,unsigned long))
FUNC 18840 2d 0 __crt_fast_encode_pointer<void (*)(_RTL_CONDITION_VARIABLE *)>(void (*const)(_RTL_CONDITION_VARIABLE *))
FUNC 18880 25 0 __scrt_uninitialize_thread_safe_statics
FUNC 188b0 1d 0 _Init_thread_abort
FUNC 188e0 46 0 _Init_thread_footer
FUNC 18940 69 0 _Init_thread_header
FUNC 189d0 10 0 _Init_thread_lock
FUNC 189f0 4e 0 _Init_thread_notify
FUNC 18a60 10 0 _Init_thread_unlock
FUNC 18a80 bb 0 _Init_thread_wait
FUNC 18b70 bd 0 pre_c_initialization
FUNC 18c60 c 0 post_pgo_initialization
FUNC 18c70 18 0 pre_cpp_initialization
FUNC 18c90 f 0 __scrt_common_main
FUNC 18cb0 20d 0 __scrt_common_main_seh
FUNC 18f40 a 0 __scrt_main_policy::get_app_type()
FUNC 18f50 a 0 initialize_environment
FUNC 18f60 23 0 invoke_main
FUNC 18f90 a 0 mainCRTStartup
FUNC 18fa0 99 0 DebuggerProbe
FUNC 19060 ab 0 DebuggerRuntime
FUNC 19140 11f 0 _RTC_AllocaFailure(void *,_RTC_ALLOCA_NODE *,int)
FUNC 192b0 4e 0 _RTC_Failure(void *,int)
FUNC 19320 100 0 _RTC_StackFailure(void *,char const *)
FUNC 19460 76 0 _getMemBlockDataString
FUNC 19500 14 0 _strlen_priv
FUNC 19520 1fe 0 failwithmessage
FUNC 197a0 ee 0 _RTC_UninitUse
FUNC 198d0 2d 0 _vsprintf_s_l
FUNC 19910 21 0 sprintf_s
FUNC 19940 6 4 _RTC_GetErrorFunc(void const *)
FUNC 19950 6 4 _RTC_GetErrorFuncW(void const *)
FUNC 19960 18 0 _RTC_GetErrDesc
FUNC 19980 6 0 _RTC_NumErrors
FUNC 19990 1d 0 _RTC_SetErrorFunc
FUNC 199c0 1d 0 _RTC_SetErrorFuncW
FUNC 199f0 23 0 _RTC_SetErrorType
FUNC 19a20 27 0 std::bad_alloc::bad_alloc(char const * const)
FUNC 19a50 25 0 std::bad_alloc::bad_alloc(std::bad_alloc const &)
FUNC 19a80 26 0 std::bad_alloc::bad_alloc()
FUNC 19ab0 25 0 std::bad_array_new_length::bad_array_new_length(std::bad_array_new_length const &)
FUNC 19ae0 24 0 std::bad_array_new_length::bad_array_new_length()
FUNC 19b10 3c 0 std::exception::exception(std::exception const &)
FUNC 19b60 2f 0 std::exception::exception(char const * const,int)
FUNC 19ba0 13 0 std::bad_alloc::~bad_alloc()
FUNC 19bc0 13 0 std::bad_array_new_length::~bad_array_new_length()
FUNC 19be0 23 0 std::exception::~exception()
FUNC 19c10 2e 0 std::bad_alloc::`scalar deleting destructor'(unsigned int)
FUNC 19c50 2e 0 std::bad_array_new_length::`scalar deleting destructor'(unsigned int)
FUNC 19c90 2e 0 std::exception::`scalar deleting destructor'(unsigned int)
FUNC 19cd0 20 0 __scrt_throw_std_bad_alloc()
FUNC 19d00 20 0 __scrt_throw_std_bad_array_new_length()
FUNC 19d30 2b 0 std::exception::what()
FUNC 19d70 2d3 0 __isa_available_init
FUNC 1a100 a 0 _get_startup_argv_mode
FUNC 1a110 24 0 __scrt_is_ucrt_dll_in_use
FUNC 1a140 135 0 __scrt_fastfail
FUNC 1a2d0 40 0 __scrt_get_show_window_mode
FUNC 1a320 7 0 __scrt_initialize_winrt
FUNC 1a330 83 0 __scrt_is_managed_app
FUNC 1a3e0 10 0 __scrt_set_unhandled_exception_filter
FUNC 1a400 5d 4 __scrt_unhandled_exception_filter
FUNC 1a480 f 0 _crt_debugger_hook
FUNC 1a4a0 14 0 _guard_check_icall
FUNC 1a4c0 27 0 _except_handler4
FUNC 1a4f0 dd 0 __security_init_cookie
FUNC 1a610 7 0 _matherr
FUNC 1a620 7 0 _get_startup_commit_mode
FUNC 1a630 a 0 _get_startup_file_mode
FUNC 1a640 7 0 _get_startup_new_mode
FUNC 1a650 7 0 _get_startup_thread_locale_mode
FUNC 1a660 10 0 __scrt_initialize_type_info()
FUNC 1a680 12 0 __scrt_uninitialize_type_info()
FUNC 1a6a0 7 0 _should_initialize_environment
FUNC 1a6b0 24 0 _initialize_default_precision
FUNC 1a6e0 5 0 _initialize_invalid_parameter_handler
FUNC 1a6f0 5 0 _initialize_denormal_control
FUNC 1a700 a 0 __local_stdio_scanf_options
FUNC 1a710 40 0 __scrt_initialize_default_local_stdio_options
FUNC 1a760 24 0 __scrt_is_user_matherr_present
FUNC 1a790 a 0 __scrt_get_dyn_tls_init_callback
FUNC 1a7a0 a 0 __scrt_get_dyn_tls_dtor_callback
FUNC 1a7b0 2d 0 _RTC_Initialize
FUNC 1a7f0 2d 0 _RTC_Terminate
FUNC 1a830 140 0 GetPdbDll
FUNC 1a9c0 274 0 GetPdbDllFromInstallPath
FUNC 1ace0 cf 0 GetPdbDllPathFromFilePath
FUNC 1adf0 352 0 _RTC_GetSrcLine(unsigned char *,wchar_t *,unsigned long,int *,wchar_t *,unsigned long)
FUNC 1b220 14 0 type_info::~type_info()
FUNC 1b240 2e 0 type_info::`scalar deleting destructor'(unsigned int)
FUNC 1b280 b 0 _guard_check_icall_nop
FUNC 1b290 27 0 _guard_icall_checks_enforced
FUNC 1b4a0 7 0 __scrt_stub_for_acrt_initialize
FUNC 1b4b0 7 0 __scrt_stub_for_acrt_thread_attach
FUNC 1b4c0 7 0 __scrt_stub_for_acrt_thread_detach
FUNC 1b4d0 7 0 __scrt_stub_for_acrt_uninitialize
FUNC 1b4e0 7 0 __scrt_stub_for_acrt_uninitialize_critical
FUNC 1b4f0 7 0 __scrt_stub_for_is_c_termination_complete
FUNC 1f0c0 16 0 `Breakpad::CrashHandler::instance'::`2'::`dynamic atexit destructor for 'globalHandler''
FUNC 1f0e0 16 0 `anonymous namespace'::`dynamic atexit destructor for 'dummy''
STACK WIN 4 2e90 19 3 0 0 0 0 0 1 $T0 $ebp = $eip $T0 4 + ^ = $ebp $T0 ^ = $esp $T0 8 + = 
STACK WIN 4 2eb0 19 3 0 0 0 0 0 1 $T0 $ebp = $eip $T0 4 + ^ = $ebp $T0 ^ = $esp $T0 8 + = 
STACK WIN 4 2ed0 19 3 0 0 0 0 0 1 $T0 $ebp = $eip $T0 4 + ^ = $ebp $T0 ^ = $esp $T0 8 + = 
STACK WIN 4 2ef0 19 3 0 0 0 0 0 1 $T0 $ebp = $eip $T0 4 + ^ = $ebp $T0 ^ = $esp $T0 8 + = 
STACK WIN 4 2f10 19 3 0 0 0 0 0 1 $T0 $ebp = $eip $T0 4 + ^ = $ebp $T0 ^ = $esp $T0 8 + = 
STACK WIN 4 2f30 19 3 0 0 0 0 0 1 $T0 $ebp = $eip $T0 4 + ^ = $ebp $T0 ^ = $esp $T0 8 + = 
STACK WIN 4 2f50 19 3 0 0 0 0 0 1 $T0 $ebp = $eip $T0 4 + ^ = $ebp $T0 ^ = $esp $T0 8 + = 
STACK WIN 4 2f70 19 3 0 0 0 0 0 1 $T0 $ebp = $eip $T0 4 + ^ = $ebp $T0 ^ = $esp $T0 8 + = 
STACK WIN 4 2f90 19 3 0 0 0 0 0 1 $T0 $ebp = $eip $T0 4 + ^ = $ebp $T0 ^ = $esp $T0 8 + = 
STACK WIN 4 2fb0 19 3 0 0 0 0 0 1 $T0 $ebp = $eip $T0 4 + ^ = $ebp $T0 ^ = $esp $T0 8 + = 
STACK WIN 4 2fd0 19 3 0 0 0 0 0 1 $T0 $ebp = $eip $T0 4 + ^ = $ebp $T0 ^ = $esp $T0 8 + = 
STACK WIN 4 2ff0 19 3 0 0 0 0 0 1 $T0 $ebp = $eip $T0 4 + ^ = $ebp $T0 ^ = $esp $T0 8 + = 
STACK WIN 4 3010 19 3 0 0 0 0 0 1 $T0 $ebp = $eip $T0 4 + ^ = $ebp $T0 ^ = $esp $T0 8 + = 
STACK WIN 4 3030 19 3 0 0 0 0 0 1 $T0 $ebp = $eip $T0 4 + ^ = $ebp $T0 ^ = $esp $T0 8 + = 
STACK WIN 4 3050 19 3 0 0 0 0 0 1 $T0 $ebp = $eip $T0 4 + ^ = $ebp $T0 ^ = $esp $T0 8 + = 
STACK WIN 4 3070 19 3 0 0 0 0 0 1 $T0 $ebp = $eip $T0 4 + ^ = $ebp $T0 ^ = $esp $T0 8 + = 
STACK WIN 4 3090 19 3 0 0 0 0 0 1 $T0 $ebp = $eip $T0 4 + ^ = $ebp $T0 ^ = $esp $T0 8 + = 
STACK WIN 4 30b0 19 3 0 0 0 0 0 1 $T0 $ebp = $eip $T0 4 + ^ = $ebp $T0 ^ = $esp $T0 8 + = 
STACK WIN 4 30d0 19 3 0 0 0 0 0 1 $T0 $ebp = $eip $T0 4 + ^ = $ebp $T0 ^ = $esp $T0 8 + = 
STACK WIN 4 30f0 19 3 0 0 0 0 0 1 $T0 $ebp = $eip $T0 4 + ^ = $ebp $T0 ^ = $esp $T0 8 + = 
STACK WIN 4 3110 19 3 0 0 0 0 0 1 $T0 $ebp = $eip $T0 4 + ^ = $ebp $T0 ^ = $esp $T0 8 + = 
STACK WIN 4 3130 19 3 0 0 0 0 0 1 $T0 $ebp = $eip $T0 4 + ^ = $ebp $T0 ^ = $esp $T0 8 + = 
STACK WIN 4 3150 19 3 0 0 0 0 0 1 $T0 $ebp = $eip $T0 4 + ^ = $ebp $T0 ^ = $esp $T0 8 + = 
STACK WIN 4 3170 19 3 0 0 0 0 0 1 $T0 $ebp = $eip $T0 4 + ^ = $ebp $T0 ^ = $esp $T0 8 + = 
STACK WIN 4 3190 19 3 0 0 0 0 0 1 $T0 $ebp = $eip $T0 4 + ^ = $ebp $T0 ^ = $esp $T0 8 + = 
STACK WIN 4 31b0 19 3 0 0 0 0 0 1 $T0 $ebp = $eip $T0 4 + ^ = $ebp $T0 ^ = $esp $T0 8 + = 
STACK WIN 4 31d0 19 3 0 0 0 0 0 1 $T0 $ebp = $eip $T0 4 + ^ = $ebp $T0 ^ = $esp $T0 8 + = 
STACK WIN 4 31f0 19 3 0 0 0 0 0 1 $T0 $ebp = $eip $T0 4 + ^ = $ebp $T0 ^ = $esp $T0 8 + = 
STACK WIN 4 3210 19 3 0 0 0 0 0 1 $T0 $ebp = $eip $T0 4 + ^ = $ebp $T0 ^ = $esp $T0 8 + = 
STACK WIN 4 3230 19 3 0 0 0 0 0 1 $T0 $ebp = $eip $T0 4 + ^ = $ebp $T0 ^ = $esp $T0 8 + = 
STACK WIN 4 3250 19 3 0 0 0 0 0 1 $T0 $ebp = $eip $T0 4 + ^ = $ebp $T0 ^ = $esp $T0 8 + = 
STACK WIN 4 3270 19 3 0 0 0 0 0 1 $T0 $ebp = $eip $T0 4 + ^ = $ebp $T0 ^ = $esp $T0 8 + = 
STACK WIN 4 3290 19 3 0 0 0 0 0 1 $T0 $ebp = $eip $T0 4 + ^ = $ebp $T0 ^ = $esp $T0 8 + = 
STACK WIN 4 32b0 19 3 0 0 0 0 0 1 $T0 $ebp = $eip $T0 4 + ^ = $ebp $T0 ^ = $esp $T0 8 + = 
STACK WIN 4 32d0 19 3 0 0 0 0 0 1 $T0 $ebp = $eip $T0 4 + ^ = $ebp $T0 ^ = $esp $T0 8 + = 
STACK WIN 4 32f0 19 3 0 0 0 0 0 1 $T0 $ebp = $eip $T0 4 + ^ = $ebp $T0 ^ = $esp $T0 8 + = 
STACK WIN 4 3310 23 3 0 0 0 0 0 1 $T0 $ebp = $eip $T0 4 + ^ = $ebp $T0 ^ = $esp $T0 8 + = 
STACK WIN 4 37e0 54 1b 0 0 0 c 0 1 $T0 $ebp = $eip $T0 4 + ^ = $ebp $T0 ^ = $esp $T0 8 + = 
STACK WIN 4 3840 253 36 0 8 c 6c 0 1 $T0 $ebp = $eip $T0 4 + ^ = $ebp $T0 ^ = $esp $T0 8 + =  $23 $T0 112 - ^ =  $24 $T0 116 - ^ = 
STACK WIN 4 3b40 8 3 0 4 0 0 0 1 $T0 $ebp = $eip $T0 4 + ^ = $ebp $T0 ^ = $esp $T0 8 + = 
STACK WIN 4 3b50 6c 2a 0 4 4 10 0 1 $T0 $ebp = $eip $T0 4 + ^ = $ebp $T0 ^ = $esp $T0 8 + = 
STACK WIN 4 3be0 a 3 0 4 0 0 0 1 $T0 $ebp = $eip $T0 4 + ^ = $ebp $T0 ^ = $esp $T0 8 + = 
STACK WIN 4 3bf0 6d 2d 0 0 4 10 0 1 $T0 $ebp = $eip $T0 4 + ^ = $ebp $T0 ^ = $esp $T0 8 + = 
STACK WIN 4 3c80 12 e 0 0 0 4 0 1 $T0 $ebp = $eip $T0 4 + ^ = $ebp $T0 ^ = $esp $T0 8 + = 
STACK WIN 4 3ca0 e4 27 0 4 4 20 0 1 $T0 $ebp = $eip $T0 4 + ^ = $ebp $T0 ^ = $esp $T0 8 + =  $23 $T0 36 - ^ = 
STACK WIN 4 3dc0 4b f 0 4 4 4 0 1 $T0 $ebp = $eip $T0 4 + ^ = $ebp $T0 ^ = $esp $T0 8 + =  $23 $T0 8 - ^ = 
STACK WIN 4 3e20 5 3 0 4 0 0 0 1 $T0 $ebp = $eip $T0 4 + ^ = $ebp $T0 ^ = $esp $T0 8 + = 
STACK WIN 4 3e30 5 3 0 8 0 0 0 1 $T0 $ebp = $eip $T0 4 + ^ = $ebp $T0 ^ = $esp $T0 8 + = 
STACK WIN 4 3e40 6f 18 0 0 4 8 0 1 $T0 $ebp = $eip $T0 4 + ^ = $ebp $T0 ^ = $esp $T0 8 + =  $23 $T0 12 - ^ = 
STACK WIN 4 3ed0 5a f 0 4 4 4 0 1 $T0 $ebp = $eip $T0 4 + ^ = $ebp $T0 ^ = $esp $T0 8 + =  $23 $T0 8 - ^ = 
STACK WIN 4 3f40 28 e 0 0 0 4 0 1 $T0 $ebp = $eip $T0 4 + ^ = $ebp $T0 ^ = $esp $T0 8 + = 
STACK WIN 4 3f80 4c 17 0 0 0 8 0 1 $T0 $ebp = $eip $T0 4 + ^ = $ebp $T0 ^ = $esp $T0 8 + = 
STACK WIN 4 3fe0 30 f 0 0 4 4 0 1 $T0 $ebp = $eip $T0 4 + ^ = $ebp $T0 ^ = $esp $T0 8 + =  $23 $T0 8 - ^ = 
STACK WIN 4 4020 45 17 0 0 0 8 0 1 $T0 $ebp = $eip $T0 4 + ^ = $ebp $T0 ^ = $esp $T0 8 + = 
STACK WIN 4 4080 28 e 0 0 0 4 0 1 $T0 $ebp = $eip $T0 4 + ^ = $ebp $T0 ^ = $esp $T0 8 + = 
STACK WIN 4 40c0 6d 17 0 8 0 8 0 1 $T0 $ebp = $eip $T0 4 + ^ = $ebp $T0 ^ = $esp $T0 8 + = 
STACK WIN 4 4150 5 3 0 0 0 0 0 1 $T0 $ebp = $eip $T0 4 + ^ = $ebp $T0 ^ = $esp $T0 8 + = 
STACK WIN 4 4160 cb 2d 0 14 4 10 0 1 $T0 $ebp = $eip $T0 4 + ^ = $ebp $T0 ^ = $esp $T0 8 + = 
STACK WIN 4 4230 d1 2d 0 20 4 10 0 1 $T0 $ebp = $eip $T0 4 + ^ = $ebp $T0 ^ = $esp $T0 8 + = 
STACK WIN 4 4310 d1 2d 0 20 4 10 0 1 $T0 $ebp = $eip $T0 4 + ^ = $ebp $T0 ^ = $esp $T0 8 + = 
STACK WIN 4 43f0 cd 2d 0 18 4 10 0 1 $T0 $ebp = $eip $T0 4 + ^ = $ebp $T0 ^ = $esp $T0 8 + = 
STACK WIN 4 44c0 389 3b 0 0 c 50 0 1 $T0 $ebp = $eip $T0 4 + ^ = $ebp $T0 ^ = $esp $T0 8 + =  $23 $T0 84 - ^ =  $24 $T0 88 - ^ = 
STACK WIN 4 4850 34 e 0 4 0 4 0 1 $T0 $ebp = $eip $T0 4 + ^ = $ebp $T0 ^ = $esp $T0 8 + = 
STACK WIN 4 4890 122 2c 0 0 8 344 0 1 $T0 $ebp = $eip $T0 4 + ^ = $ebp $T0 ^ = $esp $T0 8 + =  $23 $T0 840 - ^ =  $24 $T0 844 - ^ = 
STACK WIN 4 49c0 74 18 0 4 4 8 0 1 $T0 $ebp = $eip $T0 4 + ^ = $ebp $T0 ^ = $esp $T0 8 + =  $23 $T0 12 - ^ = 
STACK WIN 4 4a40 e8 3e 0 10 8 f4 0 1 $T0 $ebp = $eip $T0 4 + ^ = $ebp $T0 ^ = $esp $T0 8 + =  $24 $T0 248 - ^ = 
STACK WIN 4 4b30 29e 3f 0 18 c 440 0 1 $T0 $ebp = $eip $T0 4 + ^ = $ebp $T0 ^ = $esp $T0 8 + =  $23 $T0 1092 - ^ =  $24 $T0 1096 - ^ = 
STACK WIN 4 4dd0 178 3d 0 8 8 6c 0 1 $T0 $ebp = $eip $T0 4 + ^ = $ebp $T0 ^ = $esp $T0 8 + =  $24 $T0 112 - ^ = 
STACK WIN 4 4f50 151 3a 0 4 8 68 0 1 $T0 $ebp = $eip $T0 4 + ^ = $ebp $T0 ^ = $esp $T0 8 + =  $24 $T0 108 - ^ = 
STACK WIN 4 50b0 614 3e 0 28 c 70 0 1 $T0 $ebp = $eip $T0 4 + ^ = $ebp $T0 ^ = $esp $T0 8 + =  $23 $T0 116 - ^ =  $24 $T0 120 - ^ = 
STACK WIN 4 56d0 135 c 0 4 4 4 0 1 $T0 $ebp = $eip $T0 4 + ^ = $ebp $T0 ^ = $esp $T0 8 + =  $23 $T0 8 - ^ = 
STACK WIN 4 5810 1db 36 0 4 c 34 0 1 $T0 $ebp = $eip $T0 4 + ^ = $ebp $T0 ^ = $esp $T0 8 + =  $23 $T0 56 - ^ =  $24 $T0 60 - ^ = 
STACK WIN 4 59f0 33b 3f 0 14 c 670 0 1 $T0 $ebp = $eip $T0 4 + ^ = $ebp $T0 ^ = $esp $T0 8 + =  $23 $T0 1652 - ^ =  $24 $T0 1656 - ^ = 
STACK WIN 4 5d30 2ab 3f 0 0 c 670 0 1 $T0 $ebp = $eip $T0 4 + ^ = $ebp $T0 ^ = $esp $T0 8 + =  $23 $T0 1652 - ^ =  $24 $T0 1656 - ^ = 
STACK WIN 4 5fe0 17d 18 0 8 4 8 0 1 $T0 $ebp = $eip $T0 4 + ^ = $ebp $T0 ^ = $esp $T0 8 + =  $23 $T0 12 - ^ = 
STACK WIN 4 6160 101 18 0 c 4 8 0 1 $T0 $ebp = $eip $T0 4 + ^ = $ebp $T0 ^ = $esp $T0 8 + =  $23 $T0 12 - ^ = 
STACK WIN 4 6270 f0 1a 0 c 0 14 0 1 $T0 $ebp = $eip $T0 4 + ^ = $ebp $T0 ^ = $esp $T0 8 + = 
STACK WIN 4 6360 553 44 0 14 c 158 0 1 $T0 $ebp = $eip $T0 4 + ^ = $ebp $T0 ^ = $esp $T0 8 + =  $23 $T0 348 - ^ =  $24 $T0 352 - ^ = 
STACK WIN 4 68c0 1ad 2c 0 0 8 254 0 1 $T0 $ebp = $eip $T0 4 + ^ = $ebp $T0 ^ = $esp $T0 8 + =  $23 $T0 600 - ^ =  $24 $T0 604 - ^ = 
STACK WIN 4 74b0 31 e 0 4 0 4 0 1 $T0 $ebp = $eip $T0 4 + ^ = $ebp $T0 ^ = $esp $T0 8 + = 
STACK WIN 4 74f0 31 e 0 4 0 4 0 1 $T0 $ebp = $eip $T0 4 + ^ = $ebp $T0 ^ = $esp $T0 8 + = 
STACK WIN 4 7530 31 e 0 4 0 4 0 1 $T0 $ebp = $eip $T0 4 + ^ = $ebp $T0 ^ = $esp $T0 8 + = 
STACK WIN 4 7570 36 e 0 4 0 4 0 1 $T0 $ebp = $eip $T0 4 + ^ = $ebp $T0 ^ = $esp $T0 8 + = 
STACK WIN 4 75c0 36 e 0 4 0 4 0 1 $T0 $ebp = $eip $T0 4 + ^ = $ebp $T0 ^ = $esp $T0 8 + = 
STACK WIN 4 7610 36 e 0 4 0 4 0 1 $T0 $ebp = $eip $T0 4 + ^ = $ebp $T0 ^ = $esp $T0 8 + = 
STACK WIN 4 7660 17 e 0 4 0 4 0 1 $T0 $ebp = $eip $T0 4 + ^ = $ebp $T0 ^ = $esp $T0 8 + = 
STACK WIN 4 7680 17 e 0 4 0 4 0 1 $T0 $ebp = $eip $T0 4 + ^ = $ebp $T0 ^ = $esp $T0 8 + = 
STACK WIN 4 76a0 17 e 0 4 0 4 0 1 $T0 $ebp = $eip $T0 4 + ^ = $ebp $T0 ^ = $esp $T0 8 + = 
STACK WIN 4 76c0 1c 3 0 8 0 0 0 1 $T0 $ebp = $eip $T0 4 + ^ = $ebp $T0 ^ = $esp $T0 8 + = 
STACK WIN 4 76f0 7 3 0 8 0 0 0 1 $T0 $ebp = $eip $T0 4 + ^ = $ebp $T0 ^ = $esp $T0 8 + = 
STACK WIN 4 7700 43 b 0 8 0 4 0 1 $T0 $ebp = $eip $T0 4 + ^ = $ebp $T0 ^ = $esp $T0 8 + = 
STACK WIN 4 7760 5b 1a 0 8 0 10 0 1 $T0 $ebp = $eip $T0 4 + ^ = $ebp $T0 ^ = $esp $T0 8 + = 
STACK WIN 4 77e0 ed 44 0 c 10 1c 0 1 $T0 $ebp = $eip $T0 4 + ^ = $ebp $T0 ^ = $esp $T0 8 + =  $20 $T0 32 - ^ =  $23 $T0 36 - ^ =  $24 $T0 40 - ^ = 
STACK WIN 4 7910 66 18 0 c 4 10 0 1 $T0 $ebp = $eip $T0 4 + ^ = $ebp $T0 ^ = $esp $T0 8 + =  $23 $T0 20 - ^ = 
STACK WIN 4 7990 71 2a 0 10 4 10 0 1 $T0 $ebp = $eip $T0 4 + ^ = $ebp $T0 ^ = $esp $T0 8 + = 
STACK WIN 4 7a20 81 c 0 14 4 4 0 1 $T0 $ebp = $eip $T0 4 + ^ = $ebp $T0 ^ = $esp $T0 8 + =  $23 $T0 8 - ^ = 
STACK WIN 4 7ad0 33 4 0 c 4 0 0 1 $T0 $ebp = $eip $T0 4 + ^ = $ebp $T0 ^ = $esp $T0 8 + =  $23 $T0 4 - ^ = 
STACK WIN 4 7b10 3b 4 0 10 4 0 0 1 $T0 $ebp = $eip $T0 4 + ^ = $ebp $T0 ^ = $esp $T0 8 + =  $23 $T0 4 - ^ = 
STACK WIN 4 7b60 69 22 0 24 4 c 0 1 $T0 $ebp = $eip $T0 4 + ^ = $ebp $T0 ^ = $esp $T0 8 + = 
STACK WIN 4 7bf0 c7 3c 0 20 4 24 0 1 $T0 $ebp = $eip $T0 4 + ^ = $ebp $T0 ^ = $esp $T0 8 + = 
STACK WIN 4 7cf0 5 3 0 10 0 0 0 1 $T0 $ebp = $eip $T0 4 + ^ = $ebp $T0 ^ = $esp $T0 8 + = 
STACK WIN 4 7d00 32 b 0 c 0 4 0 1 $T0 $ebp = $eip $T0 4 + ^ = $ebp $T0 ^ = $esp $T0 8 + = 
STACK WIN 4 7d40 54 3 0 14 0 0 0 1 $T0 $ebp = $eip $T0 4 + ^ = $ebp $T0 ^ = $esp $T0 8 + = 
STACK WIN 4 7db0 39 b 0 10 0 4 0 1 $T0 $ebp = $eip $T0 4 + ^ = $ebp $T0 ^ = $esp $T0 8 + = 
STACK WIN 4 7e00 9b 1e 0 8 0 c 0 1 $T0 $ebp = $eip $T0 4 + ^ = $ebp $T0 ^ = $esp $T0 8 + = 
STACK WIN 4 7ed0 20 3 0 10 0 0 0 1 $T0 $ebp = $eip $T0 4 + ^ = $ebp $T0 ^ = $esp $T0 8 + = 
STACK WIN 4 7f00 46 b 0 c 0 4 0 1 $T0 $ebp = $eip $T0 4 + ^ = $ebp $T0 ^ = $esp $T0 8 + = 
STACK WIN 4 7f60 69 1b 0 8 0 c 0 1 $T0 $ebp = $eip $T0 4 + ^ = $ebp $T0 ^ = $esp $T0 8 + = 
STACK WIN 4 7ff0 5 3 0 c 0 0 0 1 $T0 $ebp = $eip $T0 4 + ^ = $ebp $T0 ^ = $esp $T0 8 + = 
STACK WIN 4 8000 69 1b 0 8 0 c 0 1 $T0 $ebp = $eip $T0 4 + ^ = $ebp $T0 ^ = $esp $T0 8 + = 
STACK WIN 4 8090 50 22 0 c 4 c 0 1 $T0 $ebp = $eip $T0 4 + ^ = $ebp $T0 ^ = $esp $T0 8 + = 
STACK WIN 4 8100 8 3 0 c 0 0 0 1 $T0 $ebp = $eip $T0 4 + ^ = $ebp $T0 ^ = $esp $T0 8 + = 
STACK WIN 4 8110 10 3 0 8 0 0 0 1 $T0 $ebp = $eip $T0 4 + ^ = $ebp $T0 ^ = $esp $T0 8 + = 
STACK WIN 4 8130 18 3 0 8 0 0 0 1 $T0 $ebp = $eip $T0 4 + ^ = $ebp $T0 ^ = $esp $T0 8 + = 
STACK WIN 4 8150 3b e 0 c 0 4 0 1 $T0 $ebp = $eip $T0 4 + ^ = $ebp $T0 ^ = $esp $T0 8 + = 
STACK WIN 4 81a0 8 3 0 4 0 0 0 1 $T0 $ebp = $eip $T0 4 + ^ = $ebp $T0 ^ = $esp $T0 8 + = 
STACK WIN 4 81b0 60 22 0 10 4 c 0 1 $T0 $ebp = $eip $T0 4 + ^ = $ebp $T0 ^ = $esp $T0 8 + = 
STACK WIN 4 8230 8 3 0 4 0 0 0 1 $T0 $ebp = $eip $T0 4 + ^ = $ebp $T0 ^ = $esp $T0 8 + = 
STACK WIN 4 8240 8 3 0 4 0 0 0 1 $T0 $ebp = $eip $T0 4 + ^ = $ebp $T0 ^ = $esp $T0 8 + = 
STACK WIN 4 8250 8 3 0 4 0 0 0 1 $T0 $ebp = $eip $T0 4 + ^ = $ebp $T0 ^ = $esp $T0 8 + = 
STACK WIN 4 8260 8 3 0 4 0 0 0 1 $T0 $ebp = $eip $T0 4 + ^ = $ebp $T0 ^ = $esp $T0 8 + = 
STACK WIN 4 8270 4e 3 0 10 0 0 0 1 $T0 $ebp = $eip $T0 4 + ^ = $ebp $T0 ^ = $esp $T0 8 + = 
STACK WIN 4 82e0 20 3 0 18 0 0 0 1 $T0 $ebp = $eip $T0 4 + ^ = $ebp $T0 ^ = $esp $T0 8 + = 
STACK WIN 4 8310 50 b 0 10 0 4 0 1 $T0 $ebp = $eip $T0 4 + ^ = $ebp $T0 ^ = $esp $T0 8 + = 
STACK WIN 4 8380 5 3 0 0 0 0 0 1 $T0 $ebp = $eip $T0 4 + ^ = $ebp $T0 ^ = $esp $T0 8 + = 
STACK WIN 4 8390 5 3 0 0 0 0 0 1 $T0 $ebp = $eip $T0 4 + ^ = $ebp $T0 ^ = $esp $T0 8 + = 
STACK WIN 4 83a0 8 3 0 4 0 0 0 1 $T0 $ebp = $eip $T0 4 + ^ = $ebp $T0 ^ = $esp $T0 8 + = 
STACK WIN 4 83b0 8 3 0 4 0 0 0 1 $T0 $ebp = $eip $T0 4 + ^ = $ebp $T0 ^ = $esp $T0 8 + = 
STACK WIN 4 83c0 8 3 0 4 0 0 0 1 $T0 $ebp = $eip $T0 4 + ^ = $ebp $T0 ^ = $esp $T0 8 + = 
STACK WIN 4 83d0 8 3 0 4 0 0 0 1 $T0 $ebp = $eip $T0 4 + ^ = $ebp $T0 ^ = $esp $T0 8 + = 
STACK WIN 4 83e0 8 3 0 4 0 0 0 1 $T0 $ebp = $eip $T0 4 + ^ = $ebp $T0 ^ = $esp $T0 8 + = 
STACK WIN 4 83f0 8 3 0 4 0 0 0 1 $T0 $ebp = $eip $T0 4 + ^ = $ebp $T0 ^ = $esp $T0 8 + = 
STACK WIN 4 8400 8 3 0 4 0 0 0 1 $T0 $ebp = $eip $T0 4 + ^ = $ebp $T0 ^ = $esp $T0 8 + = 
STACK WIN 4 8410 148 3a 0 18 8 6c 0 1 $T0 $ebp = $eip $T0 4 + ^ = $ebp $T0 ^ = $esp $T0 8 + =  $24 $T0 112 - ^ = 
STACK WIN 4 85b0 3b e 0 8 0 4 0 1 $T0 $ebp = $eip $T0 4 + ^ = $ebp $T0 ^ = $esp $T0 8 + = 
STACK WIN 4 8600 67 1e 0 8 0 c 0 1 $T0 $ebp = $eip $T0 4 + ^ = $ebp $T0 ^ = $esp $T0 8 + = 
STACK WIN 4 8680 25 3 0 c 0 0 0 1 $T0 $ebp = $eip $T0 4 + ^ = $ebp $T0 ^ = $esp $T0 8 + = 
STACK WIN 4 86b0 3b e 0 8 0 4 0 1 $T0 $ebp = $eip $T0 4 + ^ = $ebp $T0 ^ = $esp $T0 8 + = 
STACK WIN 4 8700 67 1e 0 8 0 c 0 1 $T0 $ebp = $eip $T0 4 + ^ = $ebp $T0 ^ = $esp $T0 8 + = 
STACK WIN 4 8780 25 3 0 c 0 0 0 1 $T0 $ebp = $eip $T0 4 + ^ = $ebp $T0 ^ = $esp $T0 8 + = 
STACK WIN 4 87b0 3b e 0 8 0 4 0 1 $T0 $ebp = $eip $T0 4 + ^ = $ebp $T0 ^ = $esp $T0 8 + = 
STACK WIN 4 8800 67 1e 0 8 0 c 0 1 $T0 $ebp = $eip $T0 4 + ^ = $ebp $T0 ^ = $esp $T0 8 + = 
STACK WIN 4 8880 25 3 0 c 0 0 0 1 $T0 $ebp = $eip $T0 4 + ^ = $ebp $T0 ^ = $esp $T0 8 + = 
STACK WIN 4 88b0 3b e 0 8 0 4 0 1 $T0 $ebp = $eip $T0 4 + ^ = $ebp $T0 ^ = $esp $T0 8 + = 
STACK WIN 4 8900 67 1e 0 8 0 c 0 1 $T0 $ebp = $eip $T0 4 + ^ = $ebp $T0 ^ = $esp $T0 8 + = 
STACK WIN 4 8980 25 3 0 c 0 0 0 1 $T0 $ebp = $eip $T0 4 + ^ = $ebp $T0 ^ = $esp $T0 8 + = 
STACK WIN 4 89b0 3b e 0 8 0 4 0 1 $T0 $ebp = $eip $T0 4 + ^ = $ebp $T0 ^ = $esp $T0 8 + = 
STACK WIN 4 8a00 79 1e 0 8 0 c 0 1 $T0 $ebp = $eip $T0 4 + ^ = $ebp $T0 ^ = $esp $T0 8 + = 
STACK WIN 4 8aa0 25 3 0 c 0 0 0 1 $T0 $ebp = $eip $T0 4 + ^ = $ebp $T0 ^ = $esp $T0 8 + = 
STACK WIN 4 8ad0 3b e 0 8 0 4 0 1 $T0 $ebp = $eip $T0 4 + ^ = $ebp $T0 ^ = $esp $T0 8 + = 
STACK WIN 4 8b20 6d 1e 0 8 0 c 0 1 $T0 $ebp = $eip $T0 4 + ^ = $ebp $T0 ^ = $esp $T0 8 + = 
STACK WIN 4 8bb0 25 3 0 c 0 0 0 1 $T0 $ebp = $eip $T0 4 + ^ = $ebp $T0 ^ = $esp $T0 8 + = 
STACK WIN 4 8be0 2e e 0 4 0 4 0 1 $T0 $ebp = $eip $T0 4 + ^ = $ebp $T0 ^ = $esp $T0 8 + = 
STACK WIN 4 8c20 14 e 0 4 0 4 0 1 $T0 $ebp = $eip $T0 4 + ^ = $ebp $T0 ^ = $esp $T0 8 + = 
STACK WIN 4 8c40 18 3 0 8 0 0 0 1 $T0 $ebp = $eip $T0 4 + ^ = $ebp $T0 ^ = $esp $T0 8 + = 
STACK WIN 4 8c60 2e e 0 4 0 4 0 1 $T0 $ebp = $eip $T0 4 + ^ = $ebp $T0 ^ = $esp $T0 8 + = 
STACK WIN 4 8ca0 14 e 0 4 0 4 0 1 $T0 $ebp = $eip $T0 4 + ^ = $ebp $T0 ^ = $esp $T0 8 + = 
STACK WIN 4 8cc0 18 3 0 8 0 0 0 1 $T0 $ebp = $eip $T0 4 + ^ = $ebp $T0 ^ = $esp $T0 8 + = 
STACK WIN 4 8ce0 2e e 0 4 0 4 0 1 $T0 $ebp = $eip $T0 4 + ^ = $ebp $T0 ^ = $esp $T0 8 + = 
STACK WIN 4 8d20 14 e 0 4 0 4 0 1 $T0 $ebp = $eip $T0 4 + ^ = $ebp $T0 ^ = $esp $T0 8 + = 
STACK WIN 4 8d40 18 3 0 8 0 0 0 1 $T0 $ebp = $eip $T0 4 + ^ = $ebp $T0 ^ = $esp $T0 8 + = 
STACK WIN 4 8d60 2e e 0 4 0 4 0 1 $T0 $ebp = $eip $T0 4 + ^ = $ebp $T0 ^ = $esp $T0 8 + = 
STACK WIN 4 8da0 14 e 0 4 0 4 0 1 $T0 $ebp = $eip $T0 4 + ^ = $ebp $T0 ^ = $esp $T0 8 + = 
STACK WIN 4 8dc0 18 3 0 8 0 0 0 1 $T0 $ebp = $eip $T0 4 + ^ = $ebp $T0 ^ = $esp $T0 8 + = 
STACK WIN 4 8de0 2e e 0 4 0 4 0 1 $T0 $ebp = $eip $T0 4 + ^ = $ebp $T0 ^ = $esp $T0 8 + = 
STACK WIN 4 8e20 14 e 0 4 0 4 0 1 $T0 $ebp = $eip $T0 4 + ^ = $ebp $T0 ^ = $esp $T0 8 + = 
STACK WIN 4 8e40 18 3 0 8 0 0 0 1 $T0 $ebp = $eip $T0 4 + ^ = $ebp $T0 ^ = $esp $T0 8 + = 
STACK WIN 4 8e60 14c 35 0 20 8 4c 0 1 $T0 $ebp = $eip $T0 4 + ^ = $ebp $T0 ^ = $esp $T0 8 + =  $24 $T0 80 - ^ = 
STACK WIN 4 9000 8 3 0 4 0 0 0 1 $T0 $ebp = $eip $T0 4 + ^ = $ebp $T0 ^ = $esp $T0 8 + = 
STACK WIN 4 9010 8 3 0 4 0 0 0 1 $T0 $ebp = $eip $T0 4 + ^ = $ebp $T0 ^ = $esp $T0 8 + = 
STACK WIN 4 9020 8 3 0 4 0 0 0 1 $T0 $ebp = $eip $T0 4 + ^ = $ebp $T0 ^ = $esp $T0 8 + = 
STACK WIN 4 9030 8 3 0 4 0 0 0 1 $T0 $ebp = $eip $T0 4 + ^ = $ebp $T0 ^ = $esp $T0 8 + = 
STACK WIN 4 9040 8 3 0 4 0 0 0 1 $T0 $ebp = $eip $T0 4 + ^ = $ebp $T0 ^ = $esp $T0 8 + = 
STACK WIN 4 9050 8 3 0 4 0 0 0 1 $T0 $ebp = $eip $T0 4 + ^ = $ebp $T0 ^ = $esp $T0 8 + = 
STACK WIN 4 9060 8 3 0 4 0 0 0 1 $T0 $ebp = $eip $T0 4 + ^ = $ebp $T0 ^ = $esp $T0 8 + = 
STACK WIN 4 9070 8 3 0 4 0 0 0 1 $T0 $ebp = $eip $T0 4 + ^ = $ebp $T0 ^ = $esp $T0 8 + = 
STACK WIN 4 9080 8 3 0 4 0 0 0 1 $T0 $ebp = $eip $T0 4 + ^ = $ebp $T0 ^ = $esp $T0 8 + = 
STACK WIN 4 9090 8 3 0 4 0 0 0 1 $T0 $ebp = $eip $T0 4 + ^ = $ebp $T0 ^ = $esp $T0 8 + = 
STACK WIN 4 90a0 8 3 0 4 0 0 0 1 $T0 $ebp = $eip $T0 4 + ^ = $ebp $T0 ^ = $esp $T0 8 + = 
STACK WIN 4 90b0 5a 14 0 8 0 8 0 1 $T0 $ebp = $eip $T0 4 + ^ = $ebp $T0 ^ = $esp $T0 8 + = 
STACK WIN 4 9120 5a 14 0 8 0 8 0 1 $T0 $ebp = $eip $T0 4 + ^ = $ebp $T0 ^ = $esp $T0 8 + = 
STACK WIN 4 9190 8 3 0 4 0 0 0 1 $T0 $ebp = $eip $T0 4 + ^ = $ebp $T0 ^ = $esp $T0 8 + = 
STACK WIN 4 91a0 2d e 0 4 0 4 0 1 $T0 $ebp = $eip $T0 4 + ^ = $ebp $T0 ^ = $esp $T0 8 + = 
STACK WIN 4 91e0 2d e 0 4 0 4 0 1 $T0 $ebp = $eip $T0 4 + ^ = $ebp $T0 ^ = $esp $T0 8 + = 
STACK WIN 4 9220 27 e 0 0 0 4 0 1 $T0 $ebp = $eip $T0 4 + ^ = $ebp $T0 ^ = $esp $T0 8 + = 
STACK WIN 4 9250 2d e 0 4 0 4 0 1 $T0 $ebp = $eip $T0 4 + ^ = $ebp $T0 ^ = $esp $T0 8 + = 
STACK WIN 4 9290 27 e 0 0 0 4 0 1 $T0 $ebp = $eip $T0 4 + ^ = $ebp $T0 ^ = $esp $T0 8 + = 
STACK WIN 4 92c0 2d e 0 4 0 4 0 1 $T0 $ebp = $eip $T0 4 + ^ = $ebp $T0 ^ = $esp $T0 8 + = 
STACK WIN 4 9300 2d e 0 4 0 4 0 1 $T0 $ebp = $eip $T0 4 + ^ = $ebp $T0 ^ = $esp $T0 8 + = 
STACK WIN 4 9340 27 e 0 0 0 4 0 1 $T0 $ebp = $eip $T0 4 + ^ = $ebp $T0 ^ = $esp $T0 8 + = 
STACK WIN 4 9370 cb 3d 0 0 10 18 0 1 $T0 $ebp = $eip $T0 4 + ^ = $ebp $T0 ^ = $esp $T0 8 + =  $20 $T0 28 - ^ =  $23 $T0 32 - ^ =  $24 $T0 36 - ^ = 
STACK WIN 4 9470 27 e 0 0 0 4 0 1 $T0 $ebp = $eip $T0 4 + ^ = $ebp $T0 ^ = $esp $T0 8 + = 
STACK WIN 4 94a0 2d e 0 4 0 4 0 1 $T0 $ebp = $eip $T0 4 + ^ = $ebp $T0 ^ = $esp $T0 8 + = 
STACK WIN 4 94e0 2d e 0 4 0 4 0 1 $T0 $ebp = $eip $T0 4 + ^ = $ebp $T0 ^ = $esp $T0 8 + = 
STACK WIN 4 9520 31 e 0 8 0 4 0 1 $T0 $ebp = $eip $T0 4 + ^ = $ebp $T0 ^ = $esp $T0 8 + = 
STACK WIN 4 9560 27 e 0 0 0 4 0 1 $T0 $ebp = $eip $T0 4 + ^ = $ebp $T0 ^ = $esp $T0 8 + = 
STACK WIN 4 9590 2d e 0 4 0 4 0 1 $T0 $ebp = $eip $T0 4 + ^ = $ebp $T0 ^ = $esp $T0 8 + = 
STACK WIN 4 95d0 31 e 0 8 0 4 0 1 $T0 $ebp = $eip $T0 4 + ^ = $ebp $T0 ^ = $esp $T0 8 + = 
STACK WIN 4 9610 35 e 0 8 0 4 0 1 $T0 $ebp = $eip $T0 4 + ^ = $ebp $T0 ^ = $esp $T0 8 + = 
STACK WIN 4 9660 39 e 0 4 0 4 0 1 $T0 $ebp = $eip $T0 4 + ^ = $ebp $T0 ^ = $esp $T0 8 + = 
STACK WIN 4 96b0 39 e 0 4 0 4 0 1 $T0 $ebp = $eip $T0 4 + ^ = $ebp $T0 ^ = $esp $T0 8 + = 
STACK WIN 4 9700 76 2d 0 8 4 10 0 1 $T0 $ebp = $eip $T0 4 + ^ = $ebp $T0 ^ = $esp $T0 8 + = 
STACK WIN 4 97a0 31 e 0 0 0 4 0 1 $T0 $ebp = $eip $T0 4 + ^ = $ebp $T0 ^ = $esp $T0 8 + = 
STACK WIN 4 97e0 31 e 0 8 0 4 0 1 $T0 $ebp = $eip $T0 4 + ^ = $ebp $T0 ^ = $esp $T0 8 + = 
STACK WIN 4 9820 3b e 0 0 0 4 0 1 $T0 $ebp = $eip $T0 4 + ^ = $ebp $T0 ^ = $esp $T0 8 + = 
STACK WIN 4 9870 75 36 0 0 4 14 0 1 $T0 $ebp = $eip $T0 4 + ^ = $ebp $T0 ^ = $esp $T0 8 + = 
STACK WIN 4 9910 39 e 0 4 0 4 0 1 $T0 $ebp = $eip $T0 4 + ^ = $ebp $T0 ^ = $esp $T0 8 + = 
STACK WIN 4 9960 39 e 0 4 0 4 0 1 $T0 $ebp = $eip $T0 4 + ^ = $ebp $T0 ^ = $esp $T0 8 + = 
STACK WIN 4 99b0 76 2d 0 8 4 10 0 1 $T0 $ebp = $eip $T0 4 + ^ = $ebp $T0 ^ = $esp $T0 8 + = 
STACK WIN 4 9a50 2d e 0 4 0 4 0 1 $T0 $ebp = $eip $T0 4 + ^ = $ebp $T0 ^ = $esp $T0 8 + = 
STACK WIN 4 9a90 31 e 0 8 0 4 0 1 $T0 $ebp = $eip $T0 4 + ^ = $ebp $T0 ^ = $esp $T0 8 + = 
STACK WIN 4 9ad0 7e 2d 0 0 4 10 0 1 $T0 $ebp = $eip $T0 4 + ^ = $ebp $T0 ^ = $esp $T0 8 + = 
STACK WIN 4 9b70 75 36 0 0 4 14 0 1 $T0 $ebp = $eip $T0 4 + ^ = $ebp $T0 ^ = $esp $T0 8 + = 
STACK WIN 4 9c10 39 e 0 4 0 4 0 1 $T0 $ebp = $eip $T0 4 + ^ = $ebp $T0 ^ = $esp $T0 8 + = 
STACK WIN 4 9c60 76 2d 0 8 4 10 0 1 $T0 $ebp = $eip $T0 4 + ^ = $ebp $T0 ^ = $esp $T0 8 + = 
STACK WIN 4 9d00 2d e 0 4 0 4 0 1 $T0 $ebp = $eip $T0 4 + ^ = $ebp $T0 ^ = $esp $T0 8 + = 
STACK WIN 4 9d40 31 e 0 8 0 4 0 1 $T0 $ebp = $eip $T0 4 + ^ = $ebp $T0 ^ = $esp $T0 8 + = 
STACK WIN 4 9d80 45 e 0 0 0 4 0 1 $T0 $ebp = $eip $T0 4 + ^ = $ebp $T0 ^ = $esp $T0 8 + = 
STACK WIN 4 9de0 27 e 0 0 0 4 0 1 $T0 $ebp = $eip $T0 4 + ^ = $ebp $T0 ^ = $esp $T0 8 + = 
STACK WIN 4 9e10 27 e 0 0 0 4 0 1 $T0 $ebp = $eip $T0 4 + ^ = $ebp $T0 ^ = $esp $T0 8 + = 
STACK WIN 4 9e40 27 e 0 0 0 4 0 1 $T0 $ebp = $eip $T0 4 + ^ = $ebp $T0 ^ = $esp $T0 8 + = 
STACK WIN 4 9e70 15 e 0 0 0 4 0 1 $T0 $ebp = $eip $T0 4 + ^ = $ebp $T0 ^ = $esp $T0 8 + = 
STACK WIN 4 9e90 15 e 0 0 0 4 0 1 $T0 $ebp = $eip $T0 4 + ^ = $ebp $T0 ^ = $esp $T0 8 + = 
STACK WIN 4 9eb0 15 e 0 0 0 4 0 1 $T0 $ebp = $eip $T0 4 + ^ = $ebp $T0 ^ = $esp $T0 8 + = 
STACK WIN 4 9ed0 5d 2d 0 0 4 10 0 1 $T0 $ebp = $eip $T0 4 + ^ = $ebp $T0 ^ = $esp $T0 8 + = 
STACK WIN 4 9f50 27 e 0 0 0 4 0 1 $T0 $ebp = $eip $T0 4 + ^ = $ebp $T0 ^ = $esp $T0 8 + = 
STACK WIN 4 9f80 1f e 0 4 0 4 0 1 $T0 $ebp = $eip $T0 4 + ^ = $ebp $T0 ^ = $esp $T0 8 + = 
STACK WIN 4 9fb0 51 2d 0 0 4 10 0 1 $T0 $ebp = $eip $T0 4 + ^ = $ebp $T0 ^ = $esp $T0 8 + = 
STACK WIN 4 a020 bd f 0 0 4 4 0 1 $T0 $ebp = $eip $T0 4 + ^ = $ebp $T0 ^ = $esp $T0 8 + =  $23 $T0 8 - ^ = 
STACK WIN 4 a110 6a 2d 0 0 4 10 0 1 $T0 $ebp = $eip $T0 4 + ^ = $ebp $T0 ^ = $esp $T0 8 + = 
STACK WIN 4 a1a0 15 e 0 0 0 4 0 1 $T0 $ebp = $eip $T0 4 + ^ = $ebp $T0 ^ = $esp $T0 8 + = 
STACK WIN 4 a1c0 1e e 0 0 0 4 0 1 $T0 $ebp = $eip $T0 4 + ^ = $ebp $T0 ^ = $esp $T0 8 + = 
STACK WIN 4 a1f0 28 e 0 0 0 4 0 1 $T0 $ebp = $eip $T0 4 + ^ = $ebp $T0 ^ = $esp $T0 8 + = 
STACK WIN 4 a230 40 e 0 4 0 4 0 1 $T0 $ebp = $eip $T0 4 + ^ = $ebp $T0 ^ = $esp $T0 8 + = 
STACK WIN 4 a280 28 e 0 0 0 4 0 1 $T0 $ebp = $eip $T0 4 + ^ = $ebp $T0 ^ = $esp $T0 8 + = 
STACK WIN 4 a2c0 24 e 0 0 0 4 0 1 $T0 $ebp = $eip $T0 4 + ^ = $ebp $T0 ^ = $esp $T0 8 + = 
STACK WIN 4 a2f0 24 e 0 0 0 4 0 1 $T0 $ebp = $eip $T0 4 + ^ = $ebp $T0 ^ = $esp $T0 8 + = 
STACK WIN 4 a320 24 e 0 0 0 4 0 1 $T0 $ebp = $eip $T0 4 + ^ = $ebp $T0 ^ = $esp $T0 8 + = 
STACK WIN 4 a350 24 e 0 0 0 4 0 1 $T0 $ebp = $eip $T0 4 + ^ = $ebp $T0 ^ = $esp $T0 8 + = 
STACK WIN 4 a380 24 e 0 0 0 4 0 1 $T0 $ebp = $eip $T0 4 + ^ = $ebp $T0 ^ = $esp $T0 8 + = 
STACK WIN 4 a3b0 24 e 0 0 0 4 0 1 $T0 $ebp = $eip $T0 4 + ^ = $ebp $T0 ^ = $esp $T0 8 + = 
STACK WIN 4 a3e0 69 2d 0 0 4 10 0 1 $T0 $ebp = $eip $T0 4 + ^ = $ebp $T0 ^ = $esp $T0 8 + = 
STACK WIN 4 a470 24 e 0 0 0 4 0 1 $T0 $ebp = $eip $T0 4 + ^ = $ebp $T0 ^ = $esp $T0 8 + = 
STACK WIN 4 a4a0 24 e 0 0 0 4 0 1 $T0 $ebp = $eip $T0 4 + ^ = $ebp $T0 ^ = $esp $T0 8 + = 
STACK WIN 4 a4d0 24 e 0 0 0 4 0 1 $T0 $ebp = $eip $T0 4 + ^ = $ebp $T0 ^ = $esp $T0 8 + = 
STACK WIN 4 a500 24 e 0 0 0 4 0 1 $T0 $ebp = $eip $T0 4 + ^ = $ebp $T0 ^ = $esp $T0 8 + = 
STACK WIN 4 a530 24 e 0 0 0 4 0 1 $T0 $ebp = $eip $T0 4 + ^ = $ebp $T0 ^ = $esp $T0 8 + = 
STACK WIN 4 a560 56 2d 0 0 4 10 0 1 $T0 $ebp = $eip $T0 4 + ^ = $ebp $T0 ^ = $esp $T0 8 + = 
STACK WIN 4 a5d0 24 e 0 0 0 4 0 1 $T0 $ebp = $eip $T0 4 + ^ = $ebp $T0 ^ = $esp $T0 8 + = 
STACK WIN 4 a600 24 e 0 0 0 4 0 1 $T0 $ebp = $eip $T0 4 + ^ = $ebp $T0 ^ = $esp $T0 8 + = 
STACK WIN 4 a630 2f e 0 0 0 4 0 1 $T0 $ebp = $eip $T0 4 + ^ = $ebp $T0 ^ = $esp $T0 8 + = 
STACK WIN 4 a670 56 2d 0 0 4 10 0 1 $T0 $ebp = $eip $T0 4 + ^ = $ebp $T0 ^ = $esp $T0 8 + = 
STACK WIN 4 a6e0 24 e 0 0 0 4 0 1 $T0 $ebp = $eip $T0 4 + ^ = $ebp $T0 ^ = $esp $T0 8 + = 
STACK WIN 4 a710 24 e 0 0 0 4 0 1 $T0 $ebp = $eip $T0 4 + ^ = $ebp $T0 ^ = $esp $T0 8 + = 
STACK WIN 4 a740 24 e 0 0 0 4 0 1 $T0 $ebp = $eip $T0 4 + ^ = $ebp $T0 ^ = $esp $T0 8 + = 
STACK WIN 4 a770 5a 2d 0 0 4 10 0 1 $T0 $ebp = $eip $T0 4 + ^ = $ebp $T0 ^ = $esp $T0 8 + = 
STACK WIN 4 a7e0 56 2d 0 0 4 10 0 1 $T0 $ebp = $eip $T0 4 + ^ = $ebp $T0 ^ = $esp $T0 8 + = 
STACK WIN 4 a850 52 1a 0 0 0 10 0 1 $T0 $ebp = $eip $T0 4 + ^ = $ebp $T0 ^ = $esp $T0 8 + = 
STACK WIN 4 a8c0 56 2d 0 0 4 10 0 1 $T0 $ebp = $eip $T0 4 + ^ = $ebp $T0 ^ = $esp $T0 8 + = 
STACK WIN 4 a930 81 f 0 0 4 4 0 1 $T0 $ebp = $eip $T0 4 + ^ = $ebp $T0 ^ = $esp $T0 8 + =  $23 $T0 8 - ^ = 
STACK WIN 4 a9e0 2f e 0 0 0 4 0 1 $T0 $ebp = $eip $T0 4 + ^ = $ebp $T0 ^ = $esp $T0 8 + = 
STACK WIN 4 aa20 12 e 0 0 0 4 0 1 $T0 $ebp = $eip $T0 4 + ^ = $ebp $T0 ^ = $esp $T0 8 + = 
STACK WIN 4 aa40 4e 2d 0 0 4 10 0 1 $T0 $ebp = $eip $T0 4 + ^ = $ebp $T0 ^ = $esp $T0 8 + = 
STACK WIN 4 aab0 ae 3a 0 0 8 1c 0 1 $T0 $ebp = $eip $T0 4 + ^ = $ebp $T0 ^ = $esp $T0 8 + =  $23 $T0 32 - ^ = 
STACK WIN 4 ab90 8 3 0 8 0 0 0 1 $T0 $ebp = $eip $T0 4 + ^ = $ebp $T0 ^ = $esp $T0 8 + = 
STACK WIN 4 aba0 2d e 0 4 0 4 0 1 $T0 $ebp = $eip $T0 4 + ^ = $ebp $T0 ^ = $esp $T0 8 + = 
STACK WIN 4 abe0 2d e 0 4 0 4 0 1 $T0 $ebp = $eip $T0 4 + ^ = $ebp $T0 ^ = $esp $T0 8 + = 
STACK WIN 4 ac20 2d e 0 4 0 4 0 1 $T0 $ebp = $eip $T0 4 + ^ = $ebp $T0 ^ = $esp $T0 8 + = 
STACK WIN 4 ac60 39 e 0 4 0 4 0 1 $T0 $ebp = $eip $T0 4 + ^ = $ebp $T0 ^ = $esp $T0 8 + = 
STACK WIN 4 acb0 39 e 0 4 0 4 0 1 $T0 $ebp = $eip $T0 4 + ^ = $ebp $T0 ^ = $esp $T0 8 + = 
STACK WIN 4 ad00 2d e 0 4 0 4 0 1 $T0 $ebp = $eip $T0 4 + ^ = $ebp $T0 ^ = $esp $T0 8 + = 
STACK WIN 4 ad40 2d e 0 4 0 4 0 1 $T0 $ebp = $eip $T0 4 + ^ = $ebp $T0 ^ = $esp $T0 8 + = 
STACK WIN 4 ad80 110 3d 0 4 4 18 0 1 $T0 $ebp = $eip $T0 4 + ^ = $ebp $T0 ^ = $esp $T0 8 + = 
STACK WIN 4 aee0 77 e 0 4 0 4 0 1 $T0 $ebp = $eip $T0 4 + ^ = $ebp $T0 ^ = $esp $T0 8 + = 
STACK WIN 4 af80 2a e 0 4 0 4 0 1 $T0 $ebp = $eip $T0 4 + ^ = $ebp $T0 ^ = $esp $T0 8 + = 
STACK WIN 4 afc0 ea 3a 0 4 8 1c 0 1 $T0 $ebp = $eip $T0 4 + ^ = $ebp $T0 ^ = $esp $T0 8 + =  $23 $T0 32 - ^ = 
STACK WIN 4 b0f0 ea 18 0 4 4 8 0 1 $T0 $ebp = $eip $T0 4 + ^ = $ebp $T0 ^ = $esp $T0 8 + =  $23 $T0 12 - ^ = 
STACK WIN 4 b220 3c 17 0 4 0 8 0 1 $T0 $ebp = $eip $T0 4 + ^ = $ebp $T0 ^ = $esp $T0 8 + = 
STACK WIN 4 b270 54 17 0 4 0 8 0 1 $T0 $ebp = $eip $T0 4 + ^ = $ebp $T0 ^ = $esp $T0 8 + = 
STACK WIN 4 b2e0 54 17 0 4 0 8 0 1 $T0 $ebp = $eip $T0 4 + ^ = $ebp $T0 ^ = $esp $T0 8 + = 
STACK WIN 4 b350 5b 1d 0 4 0 14 0 1 $T0 $ebp = $eip $T0 4 + ^ = $ebp $T0 ^ = $esp $T0 8 + = 
STACK WIN 4 b3d0 4d 17 0 4 0 8 0 1 $T0 $ebp = $eip $T0 4 + ^ = $ebp $T0 ^ = $esp $T0 8 + = 
STACK WIN 4 b430 4d 17 0 4 0 8 0 1 $T0 $ebp = $eip $T0 4 + ^ = $ebp $T0 ^ = $esp $T0 8 + = 
STACK WIN 4 b490 4d 17 0 4 0 8 0 1 $T0 $ebp = $eip $T0 4 + ^ = $ebp $T0 ^ = $esp $T0 8 + = 
STACK WIN 4 b4f0 2d e 0 0 0 4 0 1 $T0 $ebp = $eip $T0 4 + ^ = $ebp $T0 ^ = $esp $T0 8 + = 
STACK WIN 4 b530 49 f 0 0 4 4 0 1 $T0 $ebp = $eip $T0 4 + ^ = $ebp $T0 ^ = $esp $T0 8 + =  $23 $T0 8 - ^ = 
STACK WIN 4 b590 e8 18 0 0 4 8 0 1 $T0 $ebp = $eip $T0 4 + ^ = $ebp $T0 ^ = $esp $T0 8 + =  $23 $T0 12 - ^ = 
STACK WIN 4 b6c0 24 e 0 0 0 4 0 1 $T0 $ebp = $eip $T0 4 + ^ = $ebp $T0 ^ = $esp $T0 8 + = 
STACK WIN 4 b6f0 2a e 0 0 0 4 0 1 $T0 $ebp = $eip $T0 4 + ^ = $ebp $T0 ^ = $esp $T0 8 + = 
STACK WIN 4 b730 2b e 0 0 0 4 0 1 $T0 $ebp = $eip $T0 4 + ^ = $ebp $T0 ^ = $esp $T0 8 + = 
STACK WIN 4 b770 24 e 0 0 0 4 0 1 $T0 $ebp = $eip $T0 4 + ^ = $ebp $T0 ^ = $esp $T0 8 + = 
STACK WIN 4 b7a0 11a 1b 0 0 4 10 0 1 $T0 $ebp = $eip $T0 4 + ^ = $ebp $T0 ^ = $esp $T0 8 + =  $23 $T0 20 - ^ = 
STACK WIN 4 b900 24 e 0 0 0 4 0 1 $T0 $ebp = $eip $T0 4 + ^ = $ebp $T0 ^ = $esp $T0 8 + = 
STACK WIN 4 b930 e0 18 0 0 4 8 0 1 $T0 $ebp = $eip $T0 4 + ^ = $ebp $T0 ^ = $esp $T0 8 + =  $23 $T0 12 - ^ = 
STACK WIN 4 ba50 24 e 0 0 0 4 0 1 $T0 $ebp = $eip $T0 4 + ^ = $ebp $T0 ^ = $esp $T0 8 + = 
STACK WIN 4 ba80 d1 42 0 8 4 28 0 1 $T0 $ebp = $eip $T0 4 + ^ = $ebp $T0 ^ = $esp $T0 8 + = 
STACK WIN 4 bb90 f3 18 0 0 4 8 0 1 $T0 $ebp = $eip $T0 4 + ^ = $ebp $T0 ^ = $esp $T0 8 + =  $23 $T0 12 - ^ = 
STACK WIN 4 bcc0 34 e 0 0 0 4 0 1 $T0 $ebp = $eip $T0 4 + ^ = $ebp $T0 ^ = $esp $T0 8 + = 
STACK WIN 4 bd10 27 e 0 0 0 4 0 1 $T0 $ebp = $eip $T0 4 + ^ = $ebp $T0 ^ = $esp $T0 8 + = 
STACK WIN 4 bd40 de 18 0 0 4 8 0 1 $T0 $ebp = $eip $T0 4 + ^ = $ebp $T0 ^ = $esp $T0 8 + =  $23 $T0 12 - ^ = 
STACK WIN 4 be60 27 e 0 0 0 4 0 1 $T0 $ebp = $eip $T0 4 + ^ = $ebp $T0 ^ = $esp $T0 8 + = 
STACK WIN 4 be90 38 e 0 4 0 4 0 1 $T0 $ebp = $eip $T0 4 + ^ = $ebp $T0 ^ = $esp $T0 8 + = 
STACK WIN 4 bee0 2a e 0 4 0 4 0 1 $T0 $ebp = $eip $T0 4 + ^ = $ebp $T0 ^ = $esp $T0 8 + = 
STACK WIN 4 bf20 d1 42 0 8 4 28 0 1 $T0 $ebp = $eip $T0 4 + ^ = $ebp $T0 ^ = $esp $T0 8 + = 
STACK WIN 4 c030 10b 18 0 4 4 8 0 1 $T0 $ebp = $eip $T0 4 + ^ = $ebp $T0 ^ = $esp $T0 8 + =  $23 $T0 12 - ^ = 
STACK WIN 4 c180 2d e 0 4 0 4 0 1 $T0 $ebp = $eip $T0 4 + ^ = $ebp $T0 ^ = $esp $T0 8 + = 
STACK WIN 4 c1c0 2c e 0 4 0 4 0 1 $T0 $ebp = $eip $T0 4 + ^ = $ebp $T0 ^ = $esp $T0 8 + = 
STACK WIN 4 c200 3f e 0 4 0 4 0 1 $T0 $ebp = $eip $T0 4 + ^ = $ebp $T0 ^ = $esp $T0 8 + = 
STACK WIN 4 c250 42 e 0 4 0 4 0 1 $T0 $ebp = $eip $T0 4 + ^ = $ebp $T0 ^ = $esp $T0 8 + = 
STACK WIN 4 c2b0 47 17 0 0 0 8 0 1 $T0 $ebp = $eip $T0 4 + ^ = $ebp $T0 ^ = $esp $T0 8 + = 
STACK WIN 4 c310 14 e 0 4 0 4 0 1 $T0 $ebp = $eip $T0 4 + ^ = $ebp $T0 ^ = $esp $T0 8 + = 
STACK WIN 4 c330 150 46 0 4 8 2c 0 1 $T0 $ebp = $eip $T0 4 + ^ = $ebp $T0 ^ = $esp $T0 8 + =  $23 $T0 48 - ^ = 
STACK WIN 4 c4e0 c1 21 0 0 4 18 0 1 $T0 $ebp = $eip $T0 4 + ^ = $ebp $T0 ^ = $esp $T0 8 + =  $23 $T0 28 - ^ = 
STACK WIN 4 c5e0 c1 21 0 0 4 18 0 1 $T0 $ebp = $eip $T0 4 + ^ = $ebp $T0 ^ = $esp $T0 8 + =  $23 $T0 28 - ^ = 
STACK WIN 4 c6e0 c1 21 0 0 4 18 0 1 $T0 $ebp = $eip $T0 4 + ^ = $ebp $T0 ^ = $esp $T0 8 + =  $23 $T0 28 - ^ = 
STACK WIN 4 c7e0 1b7 18 0 c 4 10 0 1 $T0 $ebp = $eip $T0 4 + ^ = $ebp $T0 ^ = $esp $T0 8 + =  $23 $T0 20 - ^ = 
STACK WIN 4 ca10 c7 f 0 4 4 4 0 1 $T0 $ebp = $eip $T0 4 + ^ = $ebp $T0 ^ = $esp $T0 8 + =  $23 $T0 8 - ^ = 
STACK WIN 4 cb10 28 e 0 0 0 4 0 1 $T0 $ebp = $eip $T0 4 + ^ = $ebp $T0 ^ = $esp $T0 8 + = 
STACK WIN 4 cb50 122 40 0 8 10 20 0 1 $T0 $ebp = $eip $T0 4 + ^ = $ebp $T0 ^ = $esp $T0 8 + =  $20 $T0 36 - ^ =  $23 $T0 40 - ^ =  $24 $T0 44 - ^ = 
STACK WIN 4 ccc0 27 e 0 0 0 4 0 1 $T0 $ebp = $eip $T0 4 + ^ = $ebp $T0 ^ = $esp $T0 8 + = 
STACK WIN 4 ccf0 35 e 0 4 0 4 0 1 $T0 $ebp = $eip $T0 4 + ^ = $ebp $T0 ^ = $esp $T0 8 + = 
STACK WIN 4 cd40 49 17 0 8 0 8 0 1 $T0 $ebp = $eip $T0 4 + ^ = $ebp $T0 ^ = $esp $T0 8 + = 
STACK WIN 4 cda0 1b e 0 0 0 4 0 1 $T0 $ebp = $eip $T0 4 + ^ = $ebp $T0 ^ = $esp $T0 8 + = 
STACK WIN 4 cdd0 c0 f 0 4 4 4 0 1 $T0 $ebp = $eip $T0 4 + ^ = $ebp $T0 ^ = $esp $T0 8 + =  $23 $T0 8 - ^ = 
STACK WIN 4 cec0 c0 f 0 4 4 4 0 1 $T0 $ebp = $eip $T0 4 + ^ = $ebp $T0 ^ = $esp $T0 8 + =  $23 $T0 8 - ^ = 
STACK WIN 4 cfb0 225 49 0 8 10 2c 0 1 $T0 $ebp = $eip $T0 4 + ^ = $ebp $T0 ^ = $esp $T0 8 + =  $20 $T0 48 - ^ =  $23 $T0 52 - ^ =  $24 $T0 56 - ^ = 
STACK WIN 4 d260 43 e 0 4 0 4 0 1 $T0 $ebp = $eip $T0 4 + ^ = $ebp $T0 ^ = $esp $T0 8 + = 
STACK WIN 4 d2c0 2e8 18 0 c 4 10 0 1 $T0 $ebp = $eip $T0 4 + ^ = $ebp $T0 ^ = $esp $T0 8 + =  $23 $T0 20 - ^ = 
STACK WIN 4 d670 37 e 0 8 0 4 0 1 $T0 $ebp = $eip $T0 4 + ^ = $ebp $T0 ^ = $esp $T0 8 + = 
STACK WIN 4 d6c0 63 1e 0 4 0 c 0 1 $T0 $ebp = $eip $T0 4 + ^ = $ebp $T0 ^ = $esp $T0 8 + = 
STACK WIN 4 d740 b1 1a 0 0 0 10 0 1 $T0 $ebp = $eip $T0 4 + ^ = $ebp $T0 ^ = $esp $T0 8 + = 
STACK WIN 4 d820 b1 1a 0 0 0 10 0 1 $T0 $ebp = $eip $T0 4 + ^ = $ebp $T0 ^ = $esp $T0 8 + = 
STACK WIN 4 d900 b1 1a 0 0 0 10 0 1 $T0 $ebp = $eip $T0 4 + ^ = $ebp $T0 ^ = $esp $T0 8 + = 
STACK WIN 4 d9e0 7d e 0 4 0 4 0 1 $T0 $ebp = $eip $T0 4 + ^ = $ebp $T0 ^ = $esp $T0 8 + = 
STACK WIN 4 da80 a2 e 0 4 0 4 0 1 $T0 $ebp = $eip $T0 4 + ^ = $ebp $T0 ^ = $esp $T0 8 + = 
STACK WIN 4 db50 24 e 0 0 0 4 0 1 $T0 $ebp = $eip $T0 4 + ^ = $ebp $T0 ^ = $esp $T0 8 + = 
STACK WIN 4 db80 24 e 0 0 0 4 0 1 $T0 $ebp = $eip $T0 4 + ^ = $ebp $T0 ^ = $esp $T0 8 + = 
STACK WIN 4 dbb0 24 e 0 0 0 4 0 1 $T0 $ebp = $eip $T0 4 + ^ = $ebp $T0 ^ = $esp $T0 8 + = 
STACK WIN 4 dbe0 24 e 0 0 0 4 0 1 $T0 $ebp = $eip $T0 4 + ^ = $ebp $T0 ^ = $esp $T0 8 + = 
STACK WIN 4 dc10 24 e 0 0 0 4 0 1 $T0 $ebp = $eip $T0 4 + ^ = $ebp $T0 ^ = $esp $T0 8 + = 
STACK WIN 4 dc40 24 e 0 0 0 4 0 1 $T0 $ebp = $eip $T0 4 + ^ = $ebp $T0 ^ = $esp $T0 8 + = 
STACK WIN 4 dc70 15 e 0 0 0 4 0 1 $T0 $ebp = $eip $T0 4 + ^ = $ebp $T0 ^ = $esp $T0 8 + = 
STACK WIN 4 dc90 15 e 0 0 0 4 0 1 $T0 $ebp = $eip $T0 4 + ^ = $ebp $T0 ^ = $esp $T0 8 + = 
STACK WIN 4 dcb0 15 e 0 0 0 4 0 1 $T0 $ebp = $eip $T0 4 + ^ = $ebp $T0 ^ = $esp $T0 8 + = 
STACK WIN 4 dcd0 15 e 0 0 0 4 0 1 $T0 $ebp = $eip $T0 4 + ^ = $ebp $T0 ^ = $esp $T0 8 + = 
STACK WIN 4 dcf0 15 e 0 0 0 4 0 1 $T0 $ebp = $eip $T0 4 + ^ = $ebp $T0 ^ = $esp $T0 8 + = 
STACK WIN 4 dd10 15 e 0 0 0 4 0 1 $T0 $ebp = $eip $T0 4 + ^ = $ebp $T0 ^ = $esp $T0 8 + = 
STACK WIN 4 dd30 15 e 0 0 0 4 0 1 $T0 $ebp = $eip $T0 4 + ^ = $ebp $T0 ^ = $esp $T0 8 + = 
STACK WIN 4 dd50 15 e 0 0 0 4 0 1 $T0 $ebp = $eip $T0 4 + ^ = $ebp $T0 ^ = $esp $T0 8 + = 
STACK WIN 4 dd70 15 e 0 0 0 4 0 1 $T0 $ebp = $eip $T0 4 + ^ = $ebp $T0 ^ = $esp $T0 8 + = 
STACK WIN 4 dd90 15 e 0 0 0 4 0 1 $T0 $ebp = $eip $T0 4 + ^ = $ebp $T0 ^ = $esp $T0 8 + = 
STACK WIN 4 ddb0 15 e 0 0 0 4 0 1 $T0 $ebp = $eip $T0 4 + ^ = $ebp $T0 ^ = $esp $T0 8 + = 
STACK WIN 4 ddd0 15 e 0 0 0 4 0 1 $T0 $ebp = $eip $T0 4 + ^ = $ebp $T0 ^ = $esp $T0 8 + = 
STACK WIN 4 ddf0 24 e 0 0 0 4 0 1 $T0 $ebp = $eip $T0 4 + ^ = $ebp $T0 ^ = $esp $T0 8 + = 
STACK WIN 4 de20 24 e 0 0 0 4 0 1 $T0 $ebp = $eip $T0 4 + ^ = $ebp $T0 ^ = $esp $T0 8 + = 
STACK WIN 4 de50 24 e 0 0 0 4 0 1 $T0 $ebp = $eip $T0 4 + ^ = $ebp $T0 ^ = $esp $T0 8 + = 
STACK WIN 4 de80 24 e 0 0 0 4 0 1 $T0 $ebp = $eip $T0 4 + ^ = $ebp $T0 ^ = $esp $T0 8 + = 
STACK WIN 4 deb0 24 e 0 0 0 4 0 1 $T0 $ebp = $eip $T0 4 + ^ = $ebp $T0 ^ = $esp $T0 8 + = 
STACK WIN 4 dee0 24 e 0 0 0 4 0 1 $T0 $ebp = $eip $T0 4 + ^ = $ebp $T0 ^ = $esp $T0 8 + = 
STACK WIN 4 df10 39 17 0 0 0 8 0 1 $T0 $ebp = $eip $T0 4 + ^ = $ebp $T0 ^ = $esp $T0 8 + = 
STACK WIN 4 df60 2b e 0 0 0 4 0 1 $T0 $ebp = $eip $T0 4 + ^ = $ebp $T0 ^ = $esp $T0 8 + = 
STACK WIN 4 dfa0 2b e 0 0 0 4 0 1 $T0 $ebp = $eip $T0 4 + ^ = $ebp $T0 ^ = $esp $T0 8 + = 
STACK WIN 4 dfe0 3a 17 0 0 0 8 0 1 $T0 $ebp = $eip $T0 4 + ^ = $ebp $T0 ^ = $esp $T0 8 + = 
STACK WIN 4 e030 18 e 0 0 0 4 0 1 $T0 $ebp = $eip $T0 4 + ^ = $ebp $T0 ^ = $esp $T0 8 + = 
STACK WIN 4 e050 d6 1e 0 8 0 c 0 1 $T0 $ebp = $eip $T0 4 + ^ = $ebp $T0 ^ = $esp $T0 8 + = 
STACK WIN 4 e160 78 1e 0 4 0 c 0 1 $T0 $ebp = $eip $T0 4 + ^ = $ebp $T0 ^ = $esp $T0 8 + = 
STACK WIN 4 e200 71 18 0 4 4 8 0 1 $T0 $ebp = $eip $T0 4 + ^ = $ebp $T0 ^ = $esp $T0 8 + =  $23 $T0 12 - ^ = 
STACK WIN 4 e290 57 f 0 4 4 4 0 1 $T0 $ebp = $eip $T0 4 + ^ = $ebp $T0 ^ = $esp $T0 8 + =  $23 $T0 8 - ^ = 
STACK WIN 4 e300 6a 17 0 4 0 8 0 1 $T0 $ebp = $eip $T0 4 + ^ = $ebp $T0 ^ = $esp $T0 8 + = 
STACK WIN 4 e390 68 2d 0 10 4 10 0 1 $T0 $ebp = $eip $T0 4 + ^ = $ebp $T0 ^ = $esp $T0 8 + = 
STACK WIN 4 e420 8f 36 0 10 4 14 0 1 $T0 $ebp = $eip $T0 4 + ^ = $ebp $T0 ^ = $esp $T0 8 + = 
STACK WIN 4 e4e0 43 e 0 4 0 4 0 1 $T0 $ebp = $eip $T0 4 + ^ = $ebp $T0 ^ = $esp $T0 8 + = 
STACK WIN 4 e540 27 e 0 0 0 4 0 1 $T0 $ebp = $eip $T0 4 + ^ = $ebp $T0 ^ = $esp $T0 8 + = 
STACK WIN 4 e570 27 e 0 0 0 4 0 1 $T0 $ebp = $eip $T0 4 + ^ = $ebp $T0 ^ = $esp $T0 8 + = 
STACK WIN 4 e5a0 27 e 0 0 0 4 0 1 $T0 $ebp = $eip $T0 4 + ^ = $ebp $T0 ^ = $esp $T0 8 + = 
STACK WIN 4 e5d0 27 e 0 0 0 4 0 1 $T0 $ebp = $eip $T0 4 + ^ = $ebp $T0 ^ = $esp $T0 8 + = 
STACK WIN 4 e600 27 e 0 0 0 4 0 1 $T0 $ebp = $eip $T0 4 + ^ = $ebp $T0 ^ = $esp $T0 8 + = 
STACK WIN 4 e630 27 e 0 0 0 4 0 1 $T0 $ebp = $eip $T0 4 + ^ = $ebp $T0 ^ = $esp $T0 8 + = 
STACK WIN 4 e660 27 e 0 0 0 4 0 1 $T0 $ebp = $eip $T0 4 + ^ = $ebp $T0 ^ = $esp $T0 8 + = 
STACK WIN 4 e690 17 e 0 0 0 4 0 1 $T0 $ebp = $eip $T0 4 + ^ = $ebp $T0 ^ = $esp $T0 8 + = 
STACK WIN 4 e6b0 18 e 0 0 0 4 0 1 $T0 $ebp = $eip $T0 4 + ^ = $ebp $T0 ^ = $esp $T0 8 + = 
STACK WIN 4 e6d0 24 e 0 0 0 4 0 1 $T0 $ebp = $eip $T0 4 + ^ = $ebp $T0 ^ = $esp $T0 8 + = 
STACK WIN 4 e700 24 e 0 0 0 4 0 1 $T0 $ebp = $eip $T0 4 + ^ = $ebp $T0 ^ = $esp $T0 8 + = 
STACK WIN 4 e730 24 e 0 0 0 4 0 1 $T0 $ebp = $eip $T0 4 + ^ = $ebp $T0 ^ = $esp $T0 8 + = 
STACK WIN 4 e760 2b e 0 0 0 4 0 1 $T0 $ebp = $eip $T0 4 + ^ = $ebp $T0 ^ = $esp $T0 8 + = 
STACK WIN 4 e7a0 2b e 0 0 0 4 0 1 $T0 $ebp = $eip $T0 4 + ^ = $ebp $T0 ^ = $esp $T0 8 + = 
STACK WIN 4 e7e0 4e 17 0 0 0 8 0 1 $T0 $ebp = $eip $T0 4 + ^ = $ebp $T0 ^ = $esp $T0 8 + = 
STACK WIN 4 e850 4e 17 0 0 0 8 0 1 $T0 $ebp = $eip $T0 4 + ^ = $ebp $T0 ^ = $esp $T0 8 + = 
STACK WIN 4 e8c0 27 e 0 0 0 4 0 1 $T0 $ebp = $eip $T0 4 + ^ = $ebp $T0 ^ = $esp $T0 8 + = 
STACK WIN 4 e8f0 27 e 0 0 0 4 0 1 $T0 $ebp = $eip $T0 4 + ^ = $ebp $T0 ^ = $esp $T0 8 + = 
STACK WIN 4 e920 27 e 0 0 0 4 0 1 $T0 $ebp = $eip $T0 4 + ^ = $ebp $T0 ^ = $esp $T0 8 + = 
STACK WIN 4 e950 27 e 0 0 0 4 0 1 $T0 $ebp = $eip $T0 4 + ^ = $ebp $T0 ^ = $esp $T0 8 + = 
STACK WIN 4 e980 18 3 0 4 0 0 0 1 $T0 $ebp = $eip $T0 4 + ^ = $ebp $T0 ^ = $esp $T0 8 + = 
STACK WIN 4 e9a0 b 3 0 4 0 0 0 1 $T0 $ebp = $eip $T0 4 + ^ = $ebp $T0 ^ = $esp $T0 8 + = 
STACK WIN 4 e9b0 18 3 0 4 0 0 0 1 $T0 $ebp = $eip $T0 4 + ^ = $ebp $T0 ^ = $esp $T0 8 + = 
STACK WIN 4 e9d0 8 3 0 4 0 0 0 1 $T0 $ebp = $eip $T0 4 + ^ = $ebp $T0 ^ = $esp $T0 8 + = 
STACK WIN 4 e9e0 2b e 0 0 0 4 0 1 $T0 $ebp = $eip $T0 4 + ^ = $ebp $T0 ^ = $esp $T0 8 + = 
STACK WIN 4 ea20 2b e 0 0 0 4 0 1 $T0 $ebp = $eip $T0 4 + ^ = $ebp $T0 ^ = $esp $T0 8 + = 
STACK WIN 4 ea60 2b e 0 0 0 4 0 1 $T0 $ebp = $eip $T0 4 + ^ = $ebp $T0 ^ = $esp $T0 8 + = 
STACK WIN 4 eaa0 c2 1e 0 0 4 14 0 1 $T0 $ebp = $eip $T0 4 + ^ = $ebp $T0 ^ = $esp $T0 8 + =  $23 $T0 24 - ^ = 
STACK WIN 4 eba0 96 18 0 0 4 8 0 1 $T0 $ebp = $eip $T0 4 + ^ = $ebp $T0 ^ = $esp $T0 8 + =  $23 $T0 12 - ^ = 
STACK WIN 4 ec60 126 3d 0 4 8 20 0 1 $T0 $ebp = $eip $T0 4 + ^ = $ebp $T0 ^ = $esp $T0 8 + =  $23 $T0 36 - ^ = 
STACK WIN 4 edd0 11a 3d 0 8 8 20 0 1 $T0 $ebp = $eip $T0 4 + ^ = $ebp $T0 ^ = $esp $T0 8 + =  $23 $T0 36 - ^ = 
STACK WIN 4 ef30 18 3 0 4 0 0 0 1 $T0 $ebp = $eip $T0 4 + ^ = $ebp $T0 ^ = $esp $T0 8 + = 
STACK WIN 4 ef50 b 3 0 4 0 0 0 1 $T0 $ebp = $eip $T0 4 + ^ = $ebp $T0 ^ = $esp $T0 8 + = 
STACK WIN 4 ef60 17e 44 0 4 10 1c 0 1 $T0 $ebp = $eip $T0 4 + ^ = $ebp $T0 ^ = $esp $T0 8 + =  $20 $T0 32 - ^ =  $23 $T0 36 - ^ =  $24 $T0 40 - ^ = 
STACK WIN 4 f140 20 e 0 4 0 4 0 1 $T0 $ebp = $eip $T0 4 + ^ = $ebp $T0 ^ = $esp $T0 8 + = 
STACK WIN 4 f170 6b f 0 4 4 4 0 1 $T0 $ebp = $eip $T0 4 + ^ = $ebp $T0 ^ = $esp $T0 8 + =  $23 $T0 8 - ^ = 
STACK WIN 4 f200 d2 17 0 8 0 8 0 1 $T0 $ebp = $eip $T0 4 + ^ = $ebp $T0 ^ = $esp $T0 8 + = 
STACK WIN 4 f310 24 e 0 0 0 4 0 1 $T0 $ebp = $eip $T0 4 + ^ = $ebp $T0 ^ = $esp $T0 8 + = 
STACK WIN 4 f340 b3 f 0 0 4 4 0 1 $T0 $ebp = $eip $T0 4 + ^ = $ebp $T0 ^ = $esp $T0 8 + =  $23 $T0 8 - ^ = 
STACK WIN 4 f420 39 e 0 4 0 4 0 1 $T0 $ebp = $eip $T0 4 + ^ = $ebp $T0 ^ = $esp $T0 8 + = 
STACK WIN 4 f470 3d e 0 4 0 4 0 1 $T0 $ebp = $eip $T0 4 + ^ = $ebp $T0 ^ = $esp $T0 8 + = 
STACK WIN 4 f4c0 13c 3a 0 c 8 1c 0 1 $T0 $ebp = $eip $T0 4 + ^ = $ebp $T0 ^ = $esp $T0 8 + =  $23 $T0 32 - ^ = 
STACK WIN 4 f650 39 f 0 0 4 4 0 1 $T0 $ebp = $eip $T0 4 + ^ = $ebp $T0 ^ = $esp $T0 8 + =  $23 $T0 8 - ^ = 
STACK WIN 4 f6a0 32 f 0 0 4 4 0 1 $T0 $ebp = $eip $T0 4 + ^ = $ebp $T0 ^ = $esp $T0 8 + =  $23 $T0 8 - ^ = 
STACK WIN 4 f6e0 32 f 0 0 4 4 0 1 $T0 $ebp = $eip $T0 4 + ^ = $ebp $T0 ^ = $esp $T0 8 + =  $23 $T0 8 - ^ = 
STACK WIN 4 f720 32 f 0 0 4 4 0 1 $T0 $ebp = $eip $T0 4 + ^ = $ebp $T0 ^ = $esp $T0 8 + =  $23 $T0 8 - ^ = 
STACK WIN 4 f760 32 f 0 0 4 4 0 1 $T0 $ebp = $eip $T0 4 + ^ = $ebp $T0 ^ = $esp $T0 8 + =  $23 $T0 8 - ^ = 
STACK WIN 4 f7a0 2a e 0 4 0 4 0 1 $T0 $ebp = $eip $T0 4 + ^ = $ebp $T0 ^ = $esp $T0 8 + = 
STACK WIN 4 f7e0 2a e 0 4 0 4 0 1 $T0 $ebp = $eip $T0 4 + ^ = $ebp $T0 ^ = $esp $T0 8 + = 
STACK WIN 4 f820 2a e 0 4 0 4 0 1 $T0 $ebp = $eip $T0 4 + ^ = $ebp $T0 ^ = $esp $T0 8 + = 
STACK WIN 4 f860 2a e 0 4 0 4 0 1 $T0 $ebp = $eip $T0 4 + ^ = $ebp $T0 ^ = $esp $T0 8 + = 
STACK WIN 4 f8a0 2a e 0 4 0 4 0 1 $T0 $ebp = $eip $T0 4 + ^ = $ebp $T0 ^ = $esp $T0 8 + = 
STACK WIN 4 f8e0 2a e 0 4 0 4 0 1 $T0 $ebp = $eip $T0 4 + ^ = $ebp $T0 ^ = $esp $T0 8 + = 
STACK WIN 4 f920 2e e 0 4 0 4 0 1 $T0 $ebp = $eip $T0 4 + ^ = $ebp $T0 ^ = $esp $T0 8 + = 
STACK WIN 4 f960 2e e 0 4 0 4 0 1 $T0 $ebp = $eip $T0 4 + ^ = $ebp $T0 ^ = $esp $T0 8 + = 
STACK WIN 4 f9a0 2e e 0 4 0 4 0 1 $T0 $ebp = $eip $T0 4 + ^ = $ebp $T0 ^ = $esp $T0 8 + = 
STACK WIN 4 f9e0 2e e 0 4 0 4 0 1 $T0 $ebp = $eip $T0 4 + ^ = $ebp $T0 ^ = $esp $T0 8 + = 
STACK WIN 4 fa20 32 e 0 4 0 4 0 1 $T0 $ebp = $eip $T0 4 + ^ = $ebp $T0 ^ = $esp $T0 8 + = 
STACK WIN 4 fa60 ac e 0 c 0 4 0 1 $T0 $ebp = $eip $T0 4 + ^ = $ebp $T0 ^ = $esp $T0 8 + = 
STACK WIN 4 fb40 4d e 0 4 0 4 0 1 $T0 $ebp = $eip $T0 4 + ^ = $ebp $T0 ^ = $esp $T0 8 + = 
STACK WIN 4 fba0 c4 17 0 8 0 8 0 1 $T0 $ebp = $eip $T0 4 + ^ = $ebp $T0 ^ = $esp $T0 8 + = 
STACK WIN 4 fca0 11 3 0 8 0 0 0 1 $T0 $ebp = $eip $T0 4 + ^ = $ebp $T0 ^ = $esp $T0 8 + = 
STACK WIN 4 fcc0 43 e 0 4 0 4 0 1 $T0 $ebp = $eip $T0 4 + ^ = $ebp $T0 ^ = $esp $T0 8 + = 
STACK WIN 4 fd20 b4 3a 0 0 8 3c 0 1 $T0 $ebp = $eip $T0 4 + ^ = $ebp $T0 ^ = $esp $T0 8 + =  $24 $T0 64 - ^ = 
STACK WIN 4 fe10 84 36 0 4 4 14 0 1 $T0 $ebp = $eip $T0 4 + ^ = $ebp $T0 ^ = $esp $T0 8 + = 
STACK WIN 4 fec0 72 2d 0 4 4 10 0 1 $T0 $ebp = $eip $T0 4 + ^ = $ebp $T0 ^ = $esp $T0 8 + = 
STACK WIN 4 ff50 67 2d 0 4 4 10 0 1 $T0 $ebp = $eip $T0 4 + ^ = $ebp $T0 ^ = $esp $T0 8 + = 
STACK WIN 4 ffd0 4e 2d 0 0 4 10 0 1 $T0 $ebp = $eip $T0 4 + ^ = $ebp $T0 ^ = $esp $T0 8 + = 
STACK WIN 4 10040 39 f 0 0 4 4 0 1 $T0 $ebp = $eip $T0 4 + ^ = $ebp $T0 ^ = $esp $T0 8 + =  $23 $T0 8 - ^ = 
STACK WIN 4 10090 100 3e 0 0 8 18 0 1 $T0 $ebp = $eip $T0 4 + ^ = $ebp $T0 ^ = $esp $T0 8 + =  $23 $T0 28 - ^ = 
STACK WIN 4 101d0 41 b 0 c 0 4 0 1 $T0 $ebp = $eip $T0 4 + ^ = $ebp $T0 ^ = $esp $T0 8 + = 
STACK WIN 4 10230 2e e 0 8 0 4 0 1 $T0 $ebp = $eip $T0 4 + ^ = $ebp $T0 ^ = $esp $T0 8 + = 
STACK WIN 4 10270 2e e 0 8 0 4 0 1 $T0 $ebp = $eip $T0 4 + ^ = $ebp $T0 ^ = $esp $T0 8 + = 
STACK WIN 4 102b0 2e e 0 8 0 4 0 1 $T0 $ebp = $eip $T0 4 + ^ = $ebp $T0 ^ = $esp $T0 8 + = 
STACK WIN 4 102f0 2e e 0 8 0 4 0 1 $T0 $ebp = $eip $T0 4 + ^ = $ebp $T0 ^ = $esp $T0 8 + = 
STACK WIN 4 10330 30 e 0 8 0 4 0 1 $T0 $ebp = $eip $T0 4 + ^ = $ebp $T0 ^ = $esp $T0 8 + = 
STACK WIN 4 10370 30 e 0 8 0 4 0 1 $T0 $ebp = $eip $T0 4 + ^ = $ebp $T0 ^ = $esp $T0 8 + = 
STACK WIN 4 103b0 30 e 0 8 0 4 0 1 $T0 $ebp = $eip $T0 4 + ^ = $ebp $T0 ^ = $esp $T0 8 + = 
STACK WIN 4 103f0 30 e 0 8 0 4 0 1 $T0 $ebp = $eip $T0 4 + ^ = $ebp $T0 ^ = $esp $T0 8 + = 
STACK WIN 4 10430 52 18 0 0 4 8 0 1 $T0 $ebp = $eip $T0 4 + ^ = $ebp $T0 ^ = $esp $T0 8 + =  $23 $T0 12 - ^ = 
STACK WIN 4 104a0 8d 36 0 4 4 14 0 1 $T0 $ebp = $eip $T0 4 + ^ = $ebp $T0 ^ = $esp $T0 8 + = 
STACK WIN 4 10550 67 2d 0 4 4 10 0 1 $T0 $ebp = $eip $T0 4 + ^ = $ebp $T0 ^ = $esp $T0 8 + = 
STACK WIN 4 105d0 67 2d 0 4 4 10 0 1 $T0 $ebp = $eip $T0 4 + ^ = $ebp $T0 ^ = $esp $T0 8 + = 
STACK WIN 4 10650 39 e 0 4 0 4 0 1 $T0 $ebp = $eip $T0 4 + ^ = $ebp $T0 ^ = $esp $T0 8 + = 
STACK WIN 4 106a0 ad 1e 0 8 0 c 0 1 $T0 $ebp = $eip $T0 4 + ^ = $ebp $T0 ^ = $esp $T0 8 + = 
STACK WIN 4 10780 e2 48 0 10 4 30 0 1 $T0 $ebp = $eip $T0 4 + ^ = $ebp $T0 ^ = $esp $T0 8 + = 
STACK WIN 4 108a0 16b 40 0 10 8 24 0 1 $T0 $ebp = $eip $T0 4 + ^ = $ebp $T0 ^ = $esp $T0 8 + =  $23 $T0 40 - ^ = 
STACK WIN 4 10a70 94 42 0 0 4 28 0 1 $T0 $ebp = $eip $T0 4 + ^ = $ebp $T0 ^ = $esp $T0 8 + = 
STACK WIN 4 10b30 17 e 0 0 0 4 0 1 $T0 $ebp = $eip $T0 4 + ^ = $ebp $T0 ^ = $esp $T0 8 + = 
STACK WIN 4 10b50 1b e 0 0 0 4 0 1 $T0 $ebp = $eip $T0 4 + ^ = $ebp $T0 ^ = $esp $T0 8 + = 
STACK WIN 4 10b80 17 e 0 0 0 4 0 1 $T0 $ebp = $eip $T0 4 + ^ = $ebp $T0 ^ = $esp $T0 8 + = 
STACK WIN 4 10ba0 4a c 0 4 4 4 0 1 $T0 $ebp = $eip $T0 4 + ^ = $ebp $T0 ^ = $esp $T0 8 + =  $23 $T0 8 - ^ = 
STACK WIN 4 10c00 2a e 0 4 0 4 0 1 $T0 $ebp = $eip $T0 4 + ^ = $ebp $T0 ^ = $esp $T0 8 + = 
STACK WIN 4 10c40 2a e 0 4 0 4 0 1 $T0 $ebp = $eip $T0 4 + ^ = $ebp $T0 ^ = $esp $T0 8 + = 
STACK WIN 4 10c80 2a e 0 4 0 4 0 1 $T0 $ebp = $eip $T0 4 + ^ = $ebp $T0 ^ = $esp $T0 8 + = 
STACK WIN 4 10cc0 17 e 0 0 0 4 0 1 $T0 $ebp = $eip $T0 4 + ^ = $ebp $T0 ^ = $esp $T0 8 + = 
STACK WIN 4 10ce0 17 e 0 0 0 4 0 1 $T0 $ebp = $eip $T0 4 + ^ = $ebp $T0 ^ = $esp $T0 8 + = 
STACK WIN 4 10d00 17 e 0 0 0 4 0 1 $T0 $ebp = $eip $T0 4 + ^ = $ebp $T0 ^ = $esp $T0 8 + = 
STACK WIN 4 10d20 14 3 0 4 0 0 0 1 $T0 $ebp = $eip $T0 4 + ^ = $ebp $T0 ^ = $esp $T0 8 + = 
STACK WIN 4 10d40 14 3 0 4 0 0 0 1 $T0 $ebp = $eip $T0 4 + ^ = $ebp $T0 ^ = $esp $T0 8 + = 
STACK WIN 4 10d60 14 3 0 4 0 0 0 1 $T0 $ebp = $eip $T0 4 + ^ = $ebp $T0 ^ = $esp $T0 8 + = 
STACK WIN 4 10d80 5a 1a 0 0 0 10 0 1 $T0 $ebp = $eip $T0 4 + ^ = $ebp $T0 ^ = $esp $T0 8 + = 
STACK WIN 4 10df0 39 17 0 0 0 8 0 1 $T0 $ebp = $eip $T0 4 + ^ = $ebp $T0 ^ = $esp $T0 8 + = 
STACK WIN 4 10e40 39 17 0 0 0 8 0 1 $T0 $ebp = $eip $T0 4 + ^ = $ebp $T0 ^ = $esp $T0 8 + = 
STACK WIN 4 10e90 41 b 0 c 0 4 0 1 $T0 $ebp = $eip $T0 4 + ^ = $ebp $T0 ^ = $esp $T0 8 + = 
STACK WIN 4 10ef0 18 3 0 4 0 0 0 1 $T0 $ebp = $eip $T0 4 + ^ = $ebp $T0 ^ = $esp $T0 8 + = 
STACK WIN 4 10f10 18 3 0 4 0 0 0 1 $T0 $ebp = $eip $T0 4 + ^ = $ebp $T0 ^ = $esp $T0 8 + = 
STACK WIN 4 10f30 18 3 0 4 0 0 0 1 $T0 $ebp = $eip $T0 4 + ^ = $ebp $T0 ^ = $esp $T0 8 + = 
STACK WIN 4 10f50 b8 18 0 0 4 8 0 1 $T0 $ebp = $eip $T0 4 + ^ = $ebp $T0 ^ = $esp $T0 8 + =  $23 $T0 12 - ^ = 
STACK WIN 4 11040 4f 1e 0 4 0 c 0 1 $T0 $ebp = $eip $T0 4 + ^ = $ebp $T0 ^ = $esp $T0 8 + = 
STACK WIN 4 110b0 182 1b 0 4 4 10 0 1 $T0 $ebp = $eip $T0 4 + ^ = $ebp $T0 ^ = $esp $T0 8 + =  $23 $T0 20 - ^ = 
STACK WIN 4 112a0 2f 17 0 0 0 8 0 1 $T0 $ebp = $eip $T0 4 + ^ = $ebp $T0 ^ = $esp $T0 8 + = 
STACK WIN 4 112e0 36c 1f 0 14 4 c 0 1 $T0 $ebp = $eip $T0 4 + ^ = $ebp $T0 ^ = $esp $T0 8 + =  $23 $T0 16 - ^ = 
STACK WIN 4 11730 1c6 1b 0 10 4 10 0 1 $T0 $ebp = $eip $T0 4 + ^ = $ebp $T0 ^ = $esp $T0 8 + =  $23 $T0 20 - ^ = 
STACK WIN 4 11970 152 3a 0 30 8 3c 0 1 $T0 $ebp = $eip $T0 4 + ^ = $ebp $T0 ^ = $esp $T0 8 + =  $24 $T0 64 - ^ = 
STACK WIN 4 11b20 66 1a 0 4 0 10 0 1 $T0 $ebp = $eip $T0 4 + ^ = $ebp $T0 ^ = $esp $T0 8 + = 
STACK WIN 4 11ba0 46 e 0 4 0 4 0 1 $T0 $ebp = $eip $T0 4 + ^ = $ebp $T0 ^ = $esp $T0 8 + = 
STACK WIN 4 11c00 39 f 0 0 4 4 0 1 $T0 $ebp = $eip $T0 4 + ^ = $ebp $T0 ^ = $esp $T0 8 + =  $23 $T0 8 - ^ = 
STACK WIN 4 11c50 a 3 0 0 0 0 0 1 $T0 $ebp = $eip $T0 4 + ^ = $ebp $T0 ^ = $esp $T0 8 + = 
STACK WIN 4 11c60 58 14 0 10 0 8 0 1 $T0 $ebp = $eip $T0 4 + ^ = $ebp $T0 ^ = $esp $T0 8 + = 
STACK WIN 4 11cd0 3c 4 0 10 4 0 0 1 $T0 $ebp = $eip $T0 4 + ^ = $ebp $T0 ^ = $esp $T0 8 + =  $23 $T0 4 - ^ = 
STACK WIN 4 11d20 75 15 0 18 4 8 0 1 $T0 $ebp = $eip $T0 4 + ^ = $ebp $T0 ^ = $esp $T0 8 + =  $23 $T0 12 - ^ = 
STACK WIN 4 11dc0 71 15 0 14 4 8 0 1 $T0 $ebp = $eip $T0 4 + ^ = $ebp $T0 ^ = $esp $T0 8 + =  $23 $T0 12 - ^ = 
STACK WIN 4 11e50 50 14 0 8 0 8 0 1 $T0 $ebp = $eip $T0 4 + ^ = $ebp $T0 ^ = $esp $T0 8 + = 
STACK WIN 4 11ec0 54 14 0 c 0 8 0 1 $T0 $ebp = $eip $T0 4 + ^ = $ebp $T0 ^ = $esp $T0 8 + = 
STACK WIN 4 11f30 22 3 0 c 0 0 0 1 $T0 $ebp = $eip $T0 4 + ^ = $ebp $T0 ^ = $esp $T0 8 + = 
STACK WIN 4 11f60 2e 4 0 c 4 0 0 1 $T0 $ebp = $eip $T0 4 + ^ = $ebp $T0 ^ = $esp $T0 8 + =  $23 $T0 4 - ^ = 
STACK WIN 4 11fa0 19d 36 0 8 c 38 0 1 $T0 $ebp = $eip $T0 4 + ^ = $ebp $T0 ^ = $esp $T0 8 + =  $23 $T0 60 - ^ =  $24 $T0 64 - ^ = 
STACK WIN 4 12140 19d 36 0 8 c 38 0 1 $T0 $ebp = $eip $T0 4 + ^ = $ebp $T0 ^ = $esp $T0 8 + =  $23 $T0 60 - ^ =  $24 $T0 64 - ^ = 
STACK WIN 4 122e0 102 38 0 8 8 3c 0 1 $T0 $ebp = $eip $T0 4 + ^ = $ebp $T0 ^ = $esp $T0 8 + =  $24 $T0 64 - ^ = 
STACK WIN 4 12500 31 e 0 4 0 4 0 1 $T0 $ebp = $eip $T0 4 + ^ = $ebp $T0 ^ = $esp $T0 8 + = 
STACK WIN 4 12540 31 e 0 4 0 4 0 1 $T0 $ebp = $eip $T0 4 + ^ = $ebp $T0 ^ = $esp $T0 8 + = 
STACK WIN 4 12580 36 e 0 4 0 4 0 1 $T0 $ebp = $eip $T0 4 + ^ = $ebp $T0 ^ = $esp $T0 8 + = 
STACK WIN 4 125d0 17 e 0 4 0 4 0 1 $T0 $ebp = $eip $T0 4 + ^ = $ebp $T0 ^ = $esp $T0 8 + = 
STACK WIN 4 125f0 3e e 0 8 0 4 0 1 $T0 $ebp = $eip $T0 4 + ^ = $ebp $T0 ^ = $esp $T0 8 + = 
STACK WIN 4 12640 84 36 0 4 4 14 0 1 $T0 $ebp = $eip $T0 4 + ^ = $ebp $T0 ^ = $esp $T0 8 + = 
STACK WIN 4 126f0 36 e 0 4 0 4 0 1 $T0 $ebp = $eip $T0 4 + ^ = $ebp $T0 ^ = $esp $T0 8 + = 
STACK WIN 4 12740 33 4 0 c 4 0 0 1 $T0 $ebp = $eip $T0 4 + ^ = $ebp $T0 ^ = $esp $T0 8 + =  $23 $T0 4 - ^ = 
STACK WIN 4 12780 3b 4 0 10 4 0 0 1 $T0 $ebp = $eip $T0 4 + ^ = $ebp $T0 ^ = $esp $T0 8 + =  $23 $T0 4 - ^ = 
STACK WIN 4 127d0 5 3 0 10 0 0 0 1 $T0 $ebp = $eip $T0 4 + ^ = $ebp $T0 ^ = $esp $T0 8 + = 
STACK WIN 4 127e0 5 3 0 10 0 0 0 1 $T0 $ebp = $eip $T0 4 + ^ = $ebp $T0 ^ = $esp $T0 8 + = 
STACK WIN 4 127f0 32 b 0 c 0 4 0 1 $T0 $ebp = $eip $T0 4 + ^ = $ebp $T0 ^ = $esp $T0 8 + = 
STACK WIN 4 12830 32 b 0 c 0 4 0 1 $T0 $ebp = $eip $T0 4 + ^ = $ebp $T0 ^ = $esp $T0 8 + = 
STACK WIN 4 12870 8 3 0 4 0 0 0 1 $T0 $ebp = $eip $T0 4 + ^ = $ebp $T0 ^ = $esp $T0 8 + = 
STACK WIN 4 12880 1e 3 0 10 0 0 0 1 $T0 $ebp = $eip $T0 4 + ^ = $ebp $T0 ^ = $esp $T0 8 + = 
STACK WIN 4 128b0 20 3 0 10 0 0 0 1 $T0 $ebp = $eip $T0 4 + ^ = $ebp $T0 ^ = $esp $T0 8 + = 
STACK WIN 4 128e0 32 b 0 c 0 4 0 1 $T0 $ebp = $eip $T0 4 + ^ = $ebp $T0 ^ = $esp $T0 8 + = 
STACK WIN 4 12920 32 b 0 c 0 4 0 1 $T0 $ebp = $eip $T0 4 + ^ = $ebp $T0 ^ = $esp $T0 8 + = 
STACK WIN 4 12960 8 3 0 4 0 0 0 1 $T0 $ebp = $eip $T0 4 + ^ = $ebp $T0 ^ = $esp $T0 8 + = 
STACK WIN 4 12970 3b e 0 8 0 4 0 1 $T0 $ebp = $eip $T0 4 + ^ = $ebp $T0 ^ = $esp $T0 8 + = 
STACK WIN 4 129c0 67 1e 0 8 0 c 0 1 $T0 $ebp = $eip $T0 4 + ^ = $ebp $T0 ^ = $esp $T0 8 + = 
STACK WIN 4 12a40 25 3 0 c 0 0 0 1 $T0 $ebp = $eip $T0 4 + ^ = $ebp $T0 ^ = $esp $T0 8 + = 
STACK WIN 4 12a70 2e e 0 4 0 4 0 1 $T0 $ebp = $eip $T0 4 + ^ = $ebp $T0 ^ = $esp $T0 8 + = 
STACK WIN 4 12ab0 14 e 0 4 0 4 0 1 $T0 $ebp = $eip $T0 4 + ^ = $ebp $T0 ^ = $esp $T0 8 + = 
STACK WIN 4 12ad0 18 3 0 8 0 0 0 1 $T0 $ebp = $eip $T0 4 + ^ = $ebp $T0 ^ = $esp $T0 8 + = 
STACK WIN 4 12af0 8 3 0 4 0 0 0 1 $T0 $ebp = $eip $T0 4 + ^ = $ebp $T0 ^ = $esp $T0 8 + = 
STACK WIN 4 12b00 8 3 0 4 0 0 0 1 $T0 $ebp = $eip $T0 4 + ^ = $ebp $T0 ^ = $esp $T0 8 + = 
STACK WIN 4 12b10 8 3 0 4 0 0 0 1 $T0 $ebp = $eip $T0 4 + ^ = $ebp $T0 ^ = $esp $T0 8 + = 
STACK WIN 4 12b20 8 3 0 4 0 0 0 1 $T0 $ebp = $eip $T0 4 + ^ = $ebp $T0 ^ = $esp $T0 8 + = 
STACK WIN 4 12b30 75 36 0 0 4 14 0 1 $T0 $ebp = $eip $T0 4 + ^ = $ebp $T0 ^ = $esp $T0 8 + = 
STACK WIN 4 12bd0 75 36 0 0 4 14 0 1 $T0 $ebp = $eip $T0 4 + ^ = $ebp $T0 ^ = $esp $T0 8 + = 
STACK WIN 4 12c70 45 e 0 0 0 4 0 1 $T0 $ebp = $eip $T0 4 + ^ = $ebp $T0 ^ = $esp $T0 8 + = 
STACK WIN 4 12cd0 45 e 0 0 0 4 0 1 $T0 $ebp = $eip $T0 4 + ^ = $ebp $T0 ^ = $esp $T0 8 + = 
STACK WIN 4 12d30 27 e 0 0 0 4 0 1 $T0 $ebp = $eip $T0 4 + ^ = $ebp $T0 ^ = $esp $T0 8 + = 
STACK WIN 4 12d60 36 e 0 4 0 4 0 1 $T0 $ebp = $eip $T0 4 + ^ = $ebp $T0 ^ = $esp $T0 8 + = 
STACK WIN 4 12db0 15 e 0 0 0 4 0 1 $T0 $ebp = $eip $T0 4 + ^ = $ebp $T0 ^ = $esp $T0 8 + = 
STACK WIN 4 12dd0 17 e 0 4 0 4 0 1 $T0 $ebp = $eip $T0 4 + ^ = $ebp $T0 ^ = $esp $T0 8 + = 
STACK WIN 4 12df0 86 2d 0 4 4 10 0 1 $T0 $ebp = $eip $T0 4 + ^ = $ebp $T0 ^ = $esp $T0 8 + = 
STACK WIN 4 12ea0 a4 36 0 4 4 14 0 1 $T0 $ebp = $eip $T0 4 + ^ = $ebp $T0 ^ = $esp $T0 8 + = 
STACK WIN 4 12f70 ec 3d 0 4 10 18 0 1 $T0 $ebp = $eip $T0 4 + ^ = $ebp $T0 ^ = $esp $T0 8 + =  $20 $T0 28 - ^ =  $23 $T0 32 - ^ =  $24 $T0 36 - ^ = 
STACK WIN 4 130a0 ef 3d 0 4 10 18 0 1 $T0 $ebp = $eip $T0 4 + ^ = $ebp $T0 ^ = $esp $T0 8 + =  $20 $T0 28 - ^ =  $23 $T0 32 - ^ =  $24 $T0 36 - ^ = 
STACK WIN 4 131d0 24 e 0 0 0 4 0 1 $T0 $ebp = $eip $T0 4 + ^ = $ebp $T0 ^ = $esp $T0 8 + = 
STACK WIN 4 13200 24 e 0 0 0 4 0 1 $T0 $ebp = $eip $T0 4 + ^ = $ebp $T0 ^ = $esp $T0 8 + = 
STACK WIN 4 13230 56 2d 0 0 4 10 0 1 $T0 $ebp = $eip $T0 4 + ^ = $ebp $T0 ^ = $esp $T0 8 + = 
STACK WIN 4 132a0 56 2d 0 0 4 10 0 1 $T0 $ebp = $eip $T0 4 + ^ = $ebp $T0 ^ = $esp $T0 8 + = 
STACK WIN 4 13310 24 e 0 0 0 4 0 1 $T0 $ebp = $eip $T0 4 + ^ = $ebp $T0 ^ = $esp $T0 8 + = 
STACK WIN 4 13340 24 e 0 0 0 4 0 1 $T0 $ebp = $eip $T0 4 + ^ = $ebp $T0 ^ = $esp $T0 8 + = 
STACK WIN 4 13370 56 2d 0 0 4 10 0 1 $T0 $ebp = $eip $T0 4 + ^ = $ebp $T0 ^ = $esp $T0 8 + = 
STACK WIN 4 133e0 56 2d 0 0 4 10 0 1 $T0 $ebp = $eip $T0 4 + ^ = $ebp $T0 ^ = $esp $T0 8 + = 
STACK WIN 4 13450 2a e 0 4 0 4 0 1 $T0 $ebp = $eip $T0 4 + ^ = $ebp $T0 ^ = $esp $T0 8 + = 
STACK WIN 4 13490 c4 f 0 4 4 4 0 1 $T0 $ebp = $eip $T0 4 + ^ = $ebp $T0 ^ = $esp $T0 8 + =  $23 $T0 8 - ^ = 
STACK WIN 4 13590 c7 f 0 4 4 4 0 1 $T0 $ebp = $eip $T0 4 + ^ = $ebp $T0 ^ = $esp $T0 8 + =  $23 $T0 8 - ^ = 
STACK WIN 4 13690 c1 21 0 0 4 18 0 1 $T0 $ebp = $eip $T0 4 + ^ = $ebp $T0 ^ = $esp $T0 8 + =  $23 $T0 28 - ^ = 
STACK WIN 4 13790 c1 21 0 0 4 18 0 1 $T0 $ebp = $eip $T0 4 + ^ = $ebp $T0 ^ = $esp $T0 8 + =  $23 $T0 28 - ^ = 
STACK WIN 4 13890 bb f 0 4 4 4 0 1 $T0 $ebp = $eip $T0 4 + ^ = $ebp $T0 ^ = $esp $T0 8 + =  $23 $T0 8 - ^ = 
STACK WIN 4 13980 be f 0 4 4 4 0 1 $T0 $ebp = $eip $T0 4 + ^ = $ebp $T0 ^ = $esp $T0 8 + =  $23 $T0 8 - ^ = 
STACK WIN 4 13a70 27 e 0 0 0 4 0 1 $T0 $ebp = $eip $T0 4 + ^ = $ebp $T0 ^ = $esp $T0 8 + = 
STACK WIN 4 13aa0 35 e 0 4 0 4 0 1 $T0 $ebp = $eip $T0 4 + ^ = $ebp $T0 ^ = $esp $T0 8 + = 
STACK WIN 4 13af0 49 17 0 8 0 8 0 1 $T0 $ebp = $eip $T0 4 + ^ = $ebp $T0 ^ = $esp $T0 8 + = 
STACK WIN 4 13b50 225 49 0 8 10 2c 0 1 $T0 $ebp = $eip $T0 4 + ^ = $ebp $T0 ^ = $esp $T0 8 + =  $20 $T0 48 - ^ =  $23 $T0 52 - ^ =  $24 $T0 56 - ^ = 
STACK WIN 4 13e00 37 e 0 8 0 4 0 1 $T0 $ebp = $eip $T0 4 + ^ = $ebp $T0 ^ = $esp $T0 8 + = 
STACK WIN 4 13e50 37 e 0 8 0 4 0 1 $T0 $ebp = $eip $T0 4 + ^ = $ebp $T0 ^ = $esp $T0 8 + = 
STACK WIN 4 13ea0 5e 1e 0 4 0 c 0 1 $T0 $ebp = $eip $T0 4 + ^ = $ebp $T0 ^ = $esp $T0 8 + = 
STACK WIN 4 13f20 b1 1a 0 0 0 10 0 1 $T0 $ebp = $eip $T0 4 + ^ = $ebp $T0 ^ = $esp $T0 8 + = 
STACK WIN 4 14000 b1 1a 0 0 0 10 0 1 $T0 $ebp = $eip $T0 4 + ^ = $ebp $T0 ^ = $esp $T0 8 + = 
STACK WIN 4 140e0 24 e 0 0 0 4 0 1 $T0 $ebp = $eip $T0 4 + ^ = $ebp $T0 ^ = $esp $T0 8 + = 
STACK WIN 4 14110 24 e 0 0 0 4 0 1 $T0 $ebp = $eip $T0 4 + ^ = $ebp $T0 ^ = $esp $T0 8 + = 
STACK WIN 4 14140 24 e 0 0 0 4 0 1 $T0 $ebp = $eip $T0 4 + ^ = $ebp $T0 ^ = $esp $T0 8 + = 
STACK WIN 4 14170 24 e 0 0 0 4 0 1 $T0 $ebp = $eip $T0 4 + ^ = $ebp $T0 ^ = $esp $T0 8 + = 
STACK WIN 4 141a0 24 e 0 0 0 4 0 1 $T0 $ebp = $eip $T0 4 + ^ = $ebp $T0 ^ = $esp $T0 8 + = 
STACK WIN 4 141d0 24 e 0 0 0 4 0 1 $T0 $ebp = $eip $T0 4 + ^ = $ebp $T0 ^ = $esp $T0 8 + = 
STACK WIN 4 14200 15 e 0 0 0 4 0 1 $T0 $ebp = $eip $T0 4 + ^ = $ebp $T0 ^ = $esp $T0 8 + = 
STACK WIN 4 14220 15 e 0 0 0 4 0 1 $T0 $ebp = $eip $T0 4 + ^ = $ebp $T0 ^ = $esp $T0 8 + = 
STACK WIN 4 14240 15 e 0 0 0 4 0 1 $T0 $ebp = $eip $T0 4 + ^ = $ebp $T0 ^ = $esp $T0 8 + = 
STACK WIN 4 14260 15 e 0 0 0 4 0 1 $T0 $ebp = $eip $T0 4 + ^ = $ebp $T0 ^ = $esp $T0 8 + = 
STACK WIN 4 14280 15 e 0 0 0 4 0 1 $T0 $ebp = $eip $T0 4 + ^ = $ebp $T0 ^ = $esp $T0 8 + = 
STACK WIN 4 142a0 15 e 0 0 0 4 0 1 $T0 $ebp = $eip $T0 4 + ^ = $ebp $T0 ^ = $esp $T0 8 + = 
STACK WIN 4 142c0 15 e 0 0 0 4 0 1 $T0 $ebp = $eip $T0 4 + ^ = $ebp $T0 ^ = $esp $T0 8 + = 
STACK WIN 4 142e0 15 e 0 0 0 4 0 1 $T0 $ebp = $eip $T0 4 + ^ = $ebp $T0 ^ = $esp $T0 8 + = 
STACK WIN 4 14300 15 e 0 0 0 4 0 1 $T0 $ebp = $eip $T0 4 + ^ = $ebp $T0 ^ = $esp $T0 8 + = 
STACK WIN 4 14320 15 e 0 0 0 4 0 1 $T0 $ebp = $eip $T0 4 + ^ = $ebp $T0 ^ = $esp $T0 8 + = 
STACK WIN 4 14340 15 e 0 0 0 4 0 1 $T0 $ebp = $eip $T0 4 + ^ = $ebp $T0 ^ = $esp $T0 8 + = 
STACK WIN 4 14360 15 e 0 0 0 4 0 1 $T0 $ebp = $eip $T0 4 + ^ = $ebp $T0 ^ = $esp $T0 8 + = 
STACK WIN 4 14380 24 e 0 0 0 4 0 1 $T0 $ebp = $eip $T0 4 + ^ = $ebp $T0 ^ = $esp $T0 8 + = 
STACK WIN 4 143b0 24 e 0 0 0 4 0 1 $T0 $ebp = $eip $T0 4 + ^ = $ebp $T0 ^ = $esp $T0 8 + = 
STACK WIN 4 143e0 24 e 0 0 0 4 0 1 $T0 $ebp = $eip $T0 4 + ^ = $ebp $T0 ^ = $esp $T0 8 + = 
STACK WIN 4 14410 24 e 0 0 0 4 0 1 $T0 $ebp = $eip $T0 4 + ^ = $ebp $T0 ^ = $esp $T0 8 + = 
STACK WIN 4 14440 24 e 0 0 0 4 0 1 $T0 $ebp = $eip $T0 4 + ^ = $ebp $T0 ^ = $esp $T0 8 + = 
STACK WIN 4 14470 24 e 0 0 0 4 0 1 $T0 $ebp = $eip $T0 4 + ^ = $ebp $T0 ^ = $esp $T0 8 + = 
STACK WIN 4 144a0 d6 1e 0 8 0 c 0 1 $T0 $ebp = $eip $T0 4 + ^ = $ebp $T0 ^ = $esp $T0 8 + = 
STACK WIN 4 145b0 54 f 0 4 4 4 0 1 $T0 $ebp = $eip $T0 4 + ^ = $ebp $T0 ^ = $esp $T0 8 + =  $23 $T0 8 - ^ = 
STACK WIN 4 14620 27 e 0 0 0 4 0 1 $T0 $ebp = $eip $T0 4 + ^ = $ebp $T0 ^ = $esp $T0 8 + = 
STACK WIN 4 14650 27 e 0 0 0 4 0 1 $T0 $ebp = $eip $T0 4 + ^ = $ebp $T0 ^ = $esp $T0 8 + = 
STACK WIN 4 14680 27 e 0 0 0 4 0 1 $T0 $ebp = $eip $T0 4 + ^ = $ebp $T0 ^ = $esp $T0 8 + = 
STACK WIN 4 146b0 27 e 0 0 0 4 0 1 $T0 $ebp = $eip $T0 4 + ^ = $ebp $T0 ^ = $esp $T0 8 + = 
STACK WIN 4 146e0 27 e 0 0 0 4 0 1 $T0 $ebp = $eip $T0 4 + ^ = $ebp $T0 ^ = $esp $T0 8 + = 
STACK WIN 4 14710 27 e 0 0 0 4 0 1 $T0 $ebp = $eip $T0 4 + ^ = $ebp $T0 ^ = $esp $T0 8 + = 
STACK WIN 4 14740 27 e 0 0 0 4 0 1 $T0 $ebp = $eip $T0 4 + ^ = $ebp $T0 ^ = $esp $T0 8 + = 
STACK WIN 4 14770 27 e 0 0 0 4 0 1 $T0 $ebp = $eip $T0 4 + ^ = $ebp $T0 ^ = $esp $T0 8 + = 
STACK WIN 4 147a0 27 e 0 0 0 4 0 1 $T0 $ebp = $eip $T0 4 + ^ = $ebp $T0 ^ = $esp $T0 8 + = 
STACK WIN 4 147d0 27 e 0 0 0 4 0 1 $T0 $ebp = $eip $T0 4 + ^ = $ebp $T0 ^ = $esp $T0 8 + = 
STACK WIN 4 14800 24 e 0 0 0 4 0 1 $T0 $ebp = $eip $T0 4 + ^ = $ebp $T0 ^ = $esp $T0 8 + = 
STACK WIN 4 14830 24 e 0 0 0 4 0 1 $T0 $ebp = $eip $T0 4 + ^ = $ebp $T0 ^ = $esp $T0 8 + = 
STACK WIN 4 14860 2b e 0 0 0 4 0 1 $T0 $ebp = $eip $T0 4 + ^ = $ebp $T0 ^ = $esp $T0 8 + = 
STACK WIN 4 148a0 2b e 0 0 0 4 0 1 $T0 $ebp = $eip $T0 4 + ^ = $ebp $T0 ^ = $esp $T0 8 + = 
STACK WIN 4 148e0 4e 17 0 0 0 8 0 1 $T0 $ebp = $eip $T0 4 + ^ = $ebp $T0 ^ = $esp $T0 8 + = 
STACK WIN 4 14950 4e 17 0 0 0 8 0 1 $T0 $ebp = $eip $T0 4 + ^ = $ebp $T0 ^ = $esp $T0 8 + = 
STACK WIN 4 149c0 27 e 0 0 0 4 0 1 $T0 $ebp = $eip $T0 4 + ^ = $ebp $T0 ^ = $esp $T0 8 + = 
STACK WIN 4 149f0 27 e 0 0 0 4 0 1 $T0 $ebp = $eip $T0 4 + ^ = $ebp $T0 ^ = $esp $T0 8 + = 
STACK WIN 4 14a20 27 e 0 0 0 4 0 1 $T0 $ebp = $eip $T0 4 + ^ = $ebp $T0 ^ = $esp $T0 8 + = 
STACK WIN 4 14a50 2b e 0 0 0 4 0 1 $T0 $ebp = $eip $T0 4 + ^ = $ebp $T0 ^ = $esp $T0 8 + = 
STACK WIN 4 14a90 2b e 0 0 0 4 0 1 $T0 $ebp = $eip $T0 4 + ^ = $ebp $T0 ^ = $esp $T0 8 + = 
STACK WIN 4 14ad0 d2 17 0 8 0 8 0 1 $T0 $ebp = $eip $T0 4 + ^ = $ebp $T0 ^ = $esp $T0 8 + = 
STACK WIN 4 14be0 b0 f 0 0 4 4 0 1 $T0 $ebp = $eip $T0 4 + ^ = $ebp $T0 ^ = $esp $T0 8 + =  $23 $T0 8 - ^ = 
STACK WIN 4 14cc0 b2 f 0 0 4 4 0 1 $T0 $ebp = $eip $T0 4 + ^ = $ebp $T0 ^ = $esp $T0 8 + =  $23 $T0 8 - ^ = 
STACK WIN 4 14da0 32 f 0 0 4 4 0 1 $T0 $ebp = $eip $T0 4 + ^ = $ebp $T0 ^ = $esp $T0 8 + =  $23 $T0 8 - ^ = 
STACK WIN 4 14de0 32 f 0 0 4 4 0 1 $T0 $ebp = $eip $T0 4 + ^ = $ebp $T0 ^ = $esp $T0 8 + =  $23 $T0 8 - ^ = 
STACK WIN 4 14e20 32 f 0 0 4 4 0 1 $T0 $ebp = $eip $T0 4 + ^ = $ebp $T0 ^ = $esp $T0 8 + =  $23 $T0 8 - ^ = 
STACK WIN 4 14e60 32 f 0 0 4 4 0 1 $T0 $ebp = $eip $T0 4 + ^ = $ebp $T0 ^ = $esp $T0 8 + =  $23 $T0 8 - ^ = 
STACK WIN 4 14ea0 2a e 0 4 0 4 0 1 $T0 $ebp = $eip $T0 4 + ^ = $ebp $T0 ^ = $esp $T0 8 + = 
STACK WIN 4 14ee0 2e e 0 4 0 4 0 1 $T0 $ebp = $eip $T0 4 + ^ = $ebp $T0 ^ = $esp $T0 8 + = 
STACK WIN 4 14f20 a9 e 0 c 0 4 0 1 $T0 $ebp = $eip $T0 4 + ^ = $ebp $T0 ^ = $esp $T0 8 + = 
STACK WIN 4 15000 4d e 0 4 0 4 0 1 $T0 $ebp = $eip $T0 4 + ^ = $ebp $T0 ^ = $esp $T0 8 + = 
STACK WIN 4 15060 c2 17 0 8 0 8 0 1 $T0 $ebp = $eip $T0 4 + ^ = $ebp $T0 ^ = $esp $T0 8 + = 
STACK WIN 4 15160 f 3 0 8 0 0 0 1 $T0 $ebp = $eip $T0 4 + ^ = $ebp $T0 ^ = $esp $T0 8 + = 
STACK WIN 4 15180 4e 2d 0 0 4 10 0 1 $T0 $ebp = $eip $T0 4 + ^ = $ebp $T0 ^ = $esp $T0 8 + = 
STACK WIN 4 151f0 41 b 0 c 0 4 0 1 $T0 $ebp = $eip $T0 4 + ^ = $ebp $T0 ^ = $esp $T0 8 + = 
STACK WIN 4 15250 2e e 0 8 0 4 0 1 $T0 $ebp = $eip $T0 4 + ^ = $ebp $T0 ^ = $esp $T0 8 + = 
STACK WIN 4 15290 30 e 0 8 0 4 0 1 $T0 $ebp = $eip $T0 4 + ^ = $ebp $T0 ^ = $esp $T0 8 + = 
STACK WIN 4 152d0 39 e 0 4 0 4 0 1 $T0 $ebp = $eip $T0 4 + ^ = $ebp $T0 ^ = $esp $T0 8 + = 
STACK WIN 4 15320 a7 1e 0 8 0 c 0 1 $T0 $ebp = $eip $T0 4 + ^ = $ebp $T0 ^ = $esp $T0 8 + = 
STACK WIN 4 153f0 45 b 0 c 0 4 0 1 $T0 $ebp = $eip $T0 4 + ^ = $ebp $T0 ^ = $esp $T0 8 + = 
STACK WIN 4 15450 51 e 0 8 0 4 0 1 $T0 $ebp = $eip $T0 4 + ^ = $ebp $T0 ^ = $esp $T0 8 + = 
STACK WIN 4 154c0 f6 1a 0 c 0 10 0 1 $T0 $ebp = $eip $T0 4 + ^ = $ebp $T0 ^ = $esp $T0 8 + = 
STACK WIN 4 15600 3e b 0 4 0 4 0 1 $T0 $ebp = $eip $T0 4 + ^ = $ebp $T0 ^ = $esp $T0 8 + = 
STACK WIN 4 15650 2a e 0 4 0 4 0 1 $T0 $ebp = $eip $T0 4 + ^ = $ebp $T0 ^ = $esp $T0 8 + = 
STACK WIN 4 15690 15 e 0 0 0 4 0 1 $T0 $ebp = $eip $T0 4 + ^ = $ebp $T0 ^ = $esp $T0 8 + = 
STACK WIN 4 156b0 14 3 0 4 0 0 0 1 $T0 $ebp = $eip $T0 4 + ^ = $ebp $T0 ^ = $esp $T0 8 + = 
STACK WIN 4 156d0 5a 1a 0 0 0 10 0 1 $T0 $ebp = $eip $T0 4 + ^ = $ebp $T0 ^ = $esp $T0 8 + = 
STACK WIN 4 15740 39 17 0 0 0 8 0 1 $T0 $ebp = $eip $T0 4 + ^ = $ebp $T0 ^ = $esp $T0 8 + = 
STACK WIN 4 15790 39 17 0 0 0 8 0 1 $T0 $ebp = $eip $T0 4 + ^ = $ebp $T0 ^ = $esp $T0 8 + = 
STACK WIN 4 157e0 4d c 0 c 4 4 0 1 $T0 $ebp = $eip $T0 4 + ^ = $ebp $T0 ^ = $esp $T0 8 + =  $23 $T0 8 - ^ = 
STACK WIN 4 15840 43 17 0 8 0 8 0 1 $T0 $ebp = $eip $T0 4 + ^ = $ebp $T0 ^ = $esp $T0 8 + = 
STACK WIN 4 158a0 1b 3 0 8 0 0 0 1 $T0 $ebp = $eip $T0 4 + ^ = $ebp $T0 ^ = $esp $T0 8 + = 
STACK WIN 4 158d0 36 f 0 0 4 4 0 1 $T0 $ebp = $eip $T0 4 + ^ = $ebp $T0 ^ = $esp $T0 8 + =  $23 $T0 8 - ^ = 
STACK WIN 4 15920 38 f 0 0 4 4 0 1 $T0 $ebp = $eip $T0 4 + ^ = $ebp $T0 ^ = $esp $T0 8 + =  $23 $T0 8 - ^ = 
STACK WIN 4 15970 36 3 0 c 0 0 0 1 $T0 $ebp = $eip $T0 4 + ^ = $ebp $T0 ^ = $esp $T0 8 + = 
STACK WIN 4 159c0 15c 20 0 8 4 60 0 1 $T0 $ebp = $eip $T0 4 + ^ = $ebp $T0 ^ = $esp $T0 8 + =  $24 $T0 100 - ^ = 
STACK WIN 4 15b20 15c 20 0 8 4 58 0 1 $T0 $ebp = $eip $T0 4 + ^ = $ebp $T0 ^ = $esp $T0 8 + =  $24 $T0 92 - ^ = 
STACK WIN 4 15d30 79 2d 0 4 4 10 0 1 $T0 $ebp = $eip $T0 4 + ^ = $ebp $T0 ^ = $esp $T0 8 + = 
STACK WIN 4 15dd0 b6 e 0 c 0 4 0 1 $T0 $ebp = $eip $T0 4 + ^ = $ebp $T0 ^ = $esp $T0 8 + = 
STACK WIN 4 15e90 b1 e 0 c 0 4 0 1 $T0 $ebp = $eip $T0 4 + ^ = $ebp $T0 ^ = $esp $T0 8 + = 
STACK WIN 4 15f50 83 f 0 0 4 4 0 1 $T0 $ebp = $eip $T0 4 + ^ = $ebp $T0 ^ = $esp $T0 8 + =  $23 $T0 8 - ^ = 
STACK WIN 4 15fe0 7b 1f 0 0 4 c 0 1 $T0 $ebp = $eip $T0 4 + ^ = $ebp $T0 ^ = $esp $T0 8 + =  $23 $T0 16 - ^ = 
STACK WIN 4 16060 124 1c 0 4 8 60 0 1 $T0 $ebp = $eip $T0 4 + ^ = $ebp $T0 ^ = $esp $T0 8 + =  $23 $T0 100 - ^ =  $24 $T0 104 - ^ = 
STACK WIN 4 16190 8f f 0 8 4 4 0 1 $T0 $ebp = $eip $T0 4 + ^ = $ebp $T0 ^ = $esp $T0 8 + =  $23 $T0 8 - ^ = 
STACK WIN 4 16220 2c e 0 4 0 4 0 1 $T0 $ebp = $eip $T0 4 + ^ = $ebp $T0 ^ = $esp $T0 8 + = 
STACK WIN 4 16250 2c e 0 4 0 4 0 1 $T0 $ebp = $eip $T0 4 + ^ = $ebp $T0 ^ = $esp $T0 8 + = 
STACK WIN 4 16280 133 1c 0 8 8 14 0 1 $T0 $ebp = $eip $T0 4 + ^ = $ebp $T0 ^ = $esp $T0 8 + =  $23 $T0 24 - ^ =  $24 $T0 28 - ^ = 
STACK WIN 4 163c0 c5 1e 0 0 4 14 0 1 $T0 $ebp = $eip $T0 4 + ^ = $ebp $T0 ^ = $esp $T0 8 + =  $23 $T0 24 - ^ = 
STACK WIN 4 16490 19a 22 0 4 8 ac 0 1 $T0 $ebp = $eip $T0 4 + ^ = $ebp $T0 ^ = $esp $T0 8 + =  $23 $T0 176 - ^ =  $24 $T0 180 - ^ = 
STACK WIN 4 16630 5c 17 0 4 0 8 0 1 $T0 $ebp = $eip $T0 4 + ^ = $ebp $T0 ^ = $esp $T0 8 + = 
STACK WIN 4 16690 37 17 0 0 0 8 0 1 $T0 $ebp = $eip $T0 4 + ^ = $ebp $T0 ^ = $esp $T0 8 + = 
STACK WIN 4 166d0 d3 1b 0 c 4 10 0 1 $T0 $ebp = $eip $T0 4 + ^ = $ebp $T0 ^ = $esp $T0 8 + =  $23 $T0 20 - ^ = 
STACK WIN 4 167b0 169 24 0 0 4 1c 0 1 $T0 $ebp = $eip $T0 4 + ^ = $ebp $T0 ^ = $esp $T0 8 + =  $23 $T0 32 - ^ = 
STACK WIN 4 16bf0 78 e 0 28 0 4 0 1 $T0 $ebp = $eip $T0 4 + ^ = $ebp $T0 ^ = $esp $T0 8 + = 
STACK WIN 4 16c90 7b e 0 0 0 4 0 1 $T0 $ebp = $eip $T0 4 + ^ = $ebp $T0 ^ = $esp $T0 8 + = 
STACK WIN 4 16d30 a4 22 0 0 4 c 0 1 $T0 $ebp = $eip $T0 4 + ^ = $ebp $T0 ^ = $esp $T0 8 + = 
STACK WIN 4 16de0 2c e 0 4 0 4 0 1 $T0 $ebp = $eip $T0 4 + ^ = $ebp $T0 ^ = $esp $T0 8 + = 
STACK WIN 4 16e10 1c e 0 4 0 4 0 1 $T0 $ebp = $eip $T0 4 + ^ = $ebp $T0 ^ = $esp $T0 8 + = 
STACK WIN 4 16e30 b3 1c 0 0 8 30 0 1 $T0 $ebp = $eip $T0 4 + ^ = $ebp $T0 ^ = $esp $T0 8 + =  $23 $T0 52 - ^ =  $24 $T0 56 - ^ = 
STACK WIN 4 16ef0 98 39 0 0 4 1c 0 1 $T0 $ebp = $eip $T0 4 + ^ = $ebp $T0 ^ = $esp $T0 8 + = 
STACK WIN 4 16f90 52 1a 0 0 0 10 0 1 $T0 $ebp = $eip $T0 4 + ^ = $ebp $T0 ^ = $esp $T0 8 + = 
STACK WIN 4 16ff0 126 3e 0 4 c 44 0 1 $T0 $ebp = $eip $T0 4 + ^ = $ebp $T0 ^ = $esp $T0 8 + =  $23 $T0 72 - ^ =  $24 $T0 76 - ^ = 
STACK WIN 4 17120 7f 1f 0 18 8 18 0 1 $T0 $ebp = $eip $T0 4 + ^ = $ebp $T0 ^ = $esp $T0 8 + =  $23 $T0 28 - ^ =  $24 $T0 32 - ^ = 
STACK WIN 4 172c0 1f e 0 0 0 4 0 1 $T0 $ebp = $eip $T0 4 + ^ = $ebp $T0 ^ = $esp $T0 8 + = 
STACK WIN 4 172f0 52 1a 0 0 0 10 0 1 $T0 $ebp = $eip $T0 4 + ^ = $ebp $T0 ^ = $esp $T0 8 + = 
STACK WIN 4 17360 3f e 0 4 0 4 0 1 $T0 $ebp = $eip $T0 4 + ^ = $ebp $T0 ^ = $esp $T0 8 + = 
STACK WIN 4 173b0 42 e 0 4 0 4 0 1 $T0 $ebp = $eip $T0 4 + ^ = $ebp $T0 ^ = $esp $T0 8 + = 
STACK WIN 4 17410 2a 3 0 0 0 0 0 1 $T0 $ebp = $eip $T0 4 + ^ = $ebp $T0 ^ = $esp $T0 8 + = 
STACK WIN 4 17440 2a 3 0 0 0 0 0 1 $T0 $ebp = $eip $T0 4 + ^ = $ebp $T0 ^ = $esp $T0 8 + = 
STACK WIN 4 17480 24 e 0 0 0 4 0 1 $T0 $ebp = $eip $T0 4 + ^ = $ebp $T0 ^ = $esp $T0 8 + = 
STACK WIN 4 174b0 4b 2d 0 0 4 10 0 1 $T0 $ebp = $eip $T0 4 + ^ = $ebp $T0 ^ = $esp $T0 8 + = 
STACK WIN 4 17690 11 3 0 8 0 0 0 1 $T0 $ebp = $eip $T0 4 + ^ = $ebp $T0 ^ = $esp $T0 8 + = 
STACK WIN 4 176b0 32 7 0 4 0 0 0 1 $T0 $ebp = $eip $T0 4 + ^ = $ebp $T0 ^ = $esp $T0 8 + = 
STACK WIN 4 176b4 2a 3 0 4 4 0 0 1 $T0 $ebp = $eip $T0 4 + ^ = $ebp $T0 ^ = $esp $T0 8 + =  $20 $T0 4 - ^ = 
STACK WIN 4 176b5 28 2 0 4 8 0 0 1 $T0 $ebp = $eip $T0 4 + ^ = $ebp $T0 ^ = $esp $T0 8 + =  $20 $T0 4 - ^ =  $23 $T0 8 - ^ = 
STACK WIN 4 176c9 13 0 0 4 c 0 0 1 $T0 $ebp = $eip $T0 4 + ^ = $ebp $T0 ^ = $esp $T0 8 + =  $20 $T0 4 - ^ =  $23 $T0 8 - ^ =  $24 $T0 12 - ^ = 
STACK WIN 4 176f0 d1 a 0 4 0 4 0 1 $T0 $ebp = $eip $T0 4 + ^ = $ebp $T0 ^ = $esp $T0 8 + = 
STACK WIN 4 176f5 c6 5 0 4 4 4 0 1 $T0 $ebp = $eip $T0 4 + ^ = $ebp $T0 ^ = $esp $T0 8 + =  $20 $T0 8 - ^ = 
STACK WIN 4 176fb bf 0 0 4 8 4 0 1 $T0 $ebp = $eip $T0 4 + ^ = $ebp $T0 ^ = $esp $T0 8 + =  $20 $T0 8 - ^ =  $23 $T0 12 - ^ = 
STACK WIN 4 176fc bd 0 0 4 c 4 0 1 $T0 $ebp = $eip $T0 4 + ^ = $ebp $T0 ^ = $esp $T0 8 + =  $20 $T0 8 - ^ =  $23 $T0 12 - ^ =  $24 $T0 16 - ^ = 
STACK WIN 4 17800 58 a 0 0 0 4 0 1 $T0 $ebp = $eip $T0 4 + ^ = $ebp $T0 ^ = $esp $T0 8 + = 
STACK WIN 4 17805 4f 5 0 0 4 4 0 1 $T0 $ebp = $eip $T0 4 + ^ = $ebp $T0 ^ = $esp $T0 8 + =  $20 $T0 8 - ^ = 
STACK WIN 4 1780b 48 0 0 0 8 4 0 1 $T0 $ebp = $eip $T0 4 + ^ = $ebp $T0 ^ = $esp $T0 8 + =  $20 $T0 8 - ^ =  $23 $T0 12 - ^ = 
STACK WIN 4 17812 40 0 0 0 c 4 0 1 $T0 $ebp = $eip $T0 4 + ^ = $ebp $T0 ^ = $esp $T0 8 + =  $20 $T0 8 - ^ =  $23 $T0 12 - ^ =  $24 $T0 16 - ^ = 
STACK WIN 4 17870 31 0 0 0 0 0 0 1 $T0 .raSearch = $eip $T0 ^ = $esp $T0 4 + = 
STACK WIN 4 178b0 11 0 0 0 0 0 0 1 $T0 .raSearch = $eip $T0 ^ = $esp $T0 4 + = 
STACK WIN 4 178d0 6 0 0 14 0 0 0 1 $T0 .raSearch = $eip $T0 ^ = $esp $T0 4 + = 
STACK WIN 4 178e0 6 0 0 14 0 0 0 1 $T0 .raSearch = $eip $T0 ^ = $esp $T0 4 + = 
STACK WIN 4 178f0 29 0 0 0 0 0 0 1 $T0 .raSearch = $eip $T0 ^ = $esp $T0 4 + = 
STACK WIN 4 17930 13 0 0 0 0 0 0 1 $T0 .raSearch = $eip $T0 ^ = $esp $T0 4 + = 
STACK WIN 4 17950 46 4 0 4 0 4 0 1 $T0 $ebp = $eip $T0 4 + ^ = $ebp $T0 ^ = $esp $T0 8 + = 
STACK WIN 4 179b0 13 3 0 4 0 0 0 1 $T0 $ebp = $eip $T0 4 + ^ = $ebp $T0 ^ = $esp $T0 8 + = 
STACK WIN 4 179d0 29 3 0 4 0 0 0 1 $T0 $ebp = $eip $T0 4 + ^ = $ebp $T0 ^ = $esp $T0 8 + = 
STACK WIN 4 17a10 103 9 0 0 0 324 0 1 $T0 $ebp = $eip $T0 4 + ^ = $ebp $T0 ^ = $esp $T0 8 + = 
STACK WIN 4 17b60 c 3 0 0 0 0 0 1 $T0 $ebp = $eip $T0 4 + ^ = $ebp $T0 ^ = $esp $T0 8 + = 
STACK WIN 4 17b70 d2 9 0 4 0 31c 0 1 $T0 $ebp = $eip $T0 4 + ^ = $ebp $T0 ^ = $esp $T0 8 + = 
STACK WIN 4 17c80 125 9 0 c 0 320 0 1 $T0 $ebp = $eip $T0 4 + ^ = $ebp $T0 ^ = $esp $T0 8 + = 
STACK WIN 4 17df0 26 3 0 4 0 0 0 1 $T0 $ebp = $eip $T0 4 + ^ = $ebp $T0 ^ = $esp $T0 8 + = 
STACK WIN 4 17e20 2d 3 0 4 0 0 0 1 $T0 $ebp = $eip $T0 4 + ^ = $ebp $T0 ^ = $esp $T0 8 + = 
STACK WIN 4 17e60 d 3 0 8 0 0 0 1 $T0 $ebp = $eip $T0 4 + ^ = $ebp $T0 ^ = $esp $T0 8 + = 
STACK WIN 4 17e70 13 3 0 0 0 0 0 1 $T0 $ebp = $eip $T0 4 + ^ = $ebp $T0 ^ = $esp $T0 8 + = 
STACK WIN 4 17e90 81 6 0 8 0 18 0 1 $T0 $ebp = $eip $T0 4 + ^ = $ebp $T0 ^ = $esp $T0 8 + = 
STACK WIN 4 17f40 69 6 0 4 0 10 0 1 $T0 $ebp = $eip $T0 4 + ^ = $ebp $T0 ^ = $esp $T0 8 + = 
STACK WIN 4 17fd0 b 3 0 0 0 0 0 1 $T0 $ebp = $eip $T0 4 + ^ = $ebp $T0 ^ = $esp $T0 8 + = 
STACK WIN 4 17fe0 49 6 0 0 0 8 0 1 $T0 $ebp = $eip $T0 4 + ^ = $ebp $T0 ^ = $esp $T0 8 + = 
STACK WIN 4 18040 29 3 0 0 0 0 0 1 $T0 $ebp = $eip $T0 4 + ^ = $ebp $T0 ^ = $esp $T0 8 + = 
STACK WIN 4 18080 1c 3 0 0 0 0 0 1 $T0 $ebp = $eip $T0 4 + ^ = $ebp $T0 ^ = $esp $T0 8 + = 
STACK WIN 4 180b0 2c 3 0 0 0 0 0 1 $T0 $ebp = $eip $T0 4 + ^ = $ebp $T0 ^ = $esp $T0 8 + = 
STACK WIN 4 180f0 11 3 0 0 0 0 0 1 $T0 $ebp = $eip $T0 4 + ^ = $ebp $T0 ^ = $esp $T0 8 + = 
STACK WIN 4 18110 42 4 0 18 0 4 0 1 $T0 $ebp = $eip $T0 4 + ^ = $ebp $T0 ^ = $esp $T0 8 + = 
STACK WIN 4 18170 2b 3 0 0 0 0 0 1 $T0 $ebp = $eip $T0 4 + ^ = $ebp $T0 ^ = $esp $T0 8 + = 
STACK WIN 4 181b0 14 3 0 0 0 0 0 1 $T0 $ebp = $eip $T0 4 + ^ = $ebp $T0 ^ = $esp $T0 8 + = 
STACK WIN 4 181d0 43 3 0 4 0 0 0 1 $T0 $ebp = $eip $T0 4 + ^ = $ebp $T0 ^ = $esp $T0 8 + = 
STACK WIN 4 18230 c6 6 0 4 0 1c 0 1 $T0 $ebp = $eip $T0 4 + ^ = $ebp $T0 ^ = $esp $T0 8 + = 
STACK WIN 4 18330 129 33 0 4 10 38 0 1 $T0 $ebp = $eip $T0 4 + ^ = $ebp $T0 ^ = $esp $T0 8 + =  $20 $T0 20 - ^ =  $23 $T0 24 - ^ =  $24 $T0 28 - ^ = 
STACK WIN 4 18406 27 0 0 4 10 38 0 1 $T0 $ebp = $T2 $esp = $T1 .raSearchStart = $eip $T1 ^ = $ebp $T0 = $esp $T1 4 + = 
STACK WIN 4 184b0 23 3 0 4 0 0 0 1 $T0 $ebp = $eip $T0 4 + ^ = $ebp $T0 ^ = $esp $T0 8 + = 
STACK WIN 4 184e0 38 3 0 8 0 0 0 1 $T0 $ebp = $eip $T0 4 + ^ = $ebp $T0 ^ = $esp $T0 8 + = 
STACK WIN 4 18530 6e 6 0 4 0 c 0 1 $T0 $ebp = $eip $T0 4 + ^ = $ebp $T0 ^ = $esp $T0 8 + = 
STACK WIN 4 185c0 48 6 0 4 0 8 0 1 $T0 $ebp = $eip $T0 4 + ^ = $ebp $T0 ^ = $esp $T0 8 + = 
STACK WIN 4 18620 2b 4 0 4 0 4 0 1 $T0 $ebp = $eip $T0 4 + ^ = $ebp $T0 ^ = $esp $T0 8 + = 
STACK WIN 4 18660 f7 6 0 0 0 14 0 1 $T0 $ebp = $eip $T0 4 + ^ = $ebp $T0 ^ = $esp $T0 8 + = 
STACK WIN 4 187a0 26 3 0 4 0 0 0 1 $T0 $ebp = $eip $T0 4 + ^ = $ebp $T0 ^ = $esp $T0 8 + = 
STACK WIN 4 187d0 26 3 0 4 0 0 0 1 $T0 $ebp = $eip $T0 4 + ^ = $ebp $T0 ^ = $esp $T0 8 + = 
STACK WIN 4 18800 2d 3 0 4 0 0 0 1 $T0 $ebp = $eip $T0 4 + ^ = $ebp $T0 ^ = $esp $T0 8 + = 
STACK WIN 4 18840 2d 3 0 4 0 0 0 1 $T0 $ebp = $eip $T0 4 + ^ = $ebp $T0 ^ = $esp $T0 8 + = 
STACK WIN 4 18880 25 3 0 0 0 0 0 1 $T0 $ebp = $eip $T0 4 + ^ = $ebp $T0 ^ = $esp $T0 8 + = 
STACK WIN 4 188b0 1d 3 0 4 0 0 0 1 $T0 $ebp = $eip $T0 4 + ^ = $ebp $T0 ^ = $esp $T0 8 + = 
STACK WIN 4 188e0 46 3 0 4 0 0 0 1 $T0 $ebp = $eip $T0 4 + ^ = $ebp $T0 ^ = $esp $T0 8 + = 
STACK WIN 4 18940 69 3 0 4 0 0 0 1 $T0 $ebp = $eip $T0 4 + ^ = $ebp $T0 ^ = $esp $T0 8 + = 
STACK WIN 4 189d0 10 3 0 0 0 0 0 1 $T0 $ebp = $eip $T0 4 + ^ = $ebp $T0 ^ = $esp $T0 8 + = 
STACK WIN 4 189f0 4e 4 0 0 0 4 0 1 $T0 $ebp = $eip $T0 4 + ^ = $ebp $T0 ^ = $esp $T0 8 + = 
STACK WIN 4 18a60 10 3 0 0 0 0 0 1 $T0 $ebp = $eip $T0 4 + ^ = $ebp $T0 ^ = $esp $T0 8 + = 
STACK WIN 4 18a80 bb 6 0 4 0 10 0 1 $T0 $ebp = $eip $T0 4 + ^ = $ebp $T0 ^ = $esp $T0 8 + = 
STACK WIN 4 18b70 bd 4 0 0 4 0 0 1 $T0 $ebp = $eip $T0 4 + ^ = $ebp $T0 ^ = $esp $T0 8 + =  $23 $T0 4 - ^ = 
STACK WIN 4 18c60 c 3 0 0 0 0 0 1 $T0 $ebp = $eip $T0 4 + ^ = $ebp $T0 ^ = $esp $T0 8 + = 
STACK WIN 4 18c70 18 3 0 0 0 0 0 1 $T0 $ebp = $eip $T0 4 + ^ = $ebp $T0 ^ = $esp $T0 8 + = 
STACK WIN 4 18c90 f 3 0 0 0 0 0 1 $T0 $ebp = $eip $T0 4 + ^ = $ebp $T0 ^ = $esp $T0 8 + = 
STACK WIN 4 18cb0 20d 33 0 0 10 40 0 1 $T0 $ebp = $eip $T0 4 + ^ = $ebp $T0 ^ = $esp $T0 8 + =  $20 $T0 20 - ^ =  $23 $T0 24 - ^ =  $24 $T0 28 - ^ = 
STACK WIN 4 18e4c 1b 0 0 0 10 40 0 1 $T0 $ebp = $T2 $esp = $T1 .raSearchStart = $eip $T1 ^ = $ebp $T0 = $esp $T1 4 + = 
STACK WIN 4 18f40 a 3 0 0 0 0 0 1 $T0 $ebp = $eip $T0 4 + ^ = $ebp $T0 ^ = $esp $T0 8 + = 
STACK WIN 4 18f50 a 3 0 0 0 0 0 1 $T0 $ebp = $eip $T0 4 + ^ = $ebp $T0 ^ = $esp $T0 8 + = 
STACK WIN 4 18f60 23 3 0 0 0 0 0 1 $T0 $ebp = $eip $T0 4 + ^ = $ebp $T0 ^ = $esp $T0 8 + = 
STACK WIN 4 18f90 a 3 0 0 0 0 0 1 $T0 $ebp = $eip $T0 4 + ^ = $ebp $T0 ^ = $esp $T0 8 + = 
STACK WIN 4 18fa0 99 33 0 4 10 34 0 1 $T0 $ebp = $eip $T0 4 + ^ = $ebp $T0 ^ = $esp $T0 8 + =  $20 $T0 56 - ^ =  $23 $T0 60 - ^ =  $24 $T0 64 - ^ = 
STACK WIN 4 19006 13 0 0 4 10 34 0 1 $T0 $ebp = $T2 $esp = $T1 .raSearchStart = $eip $T1 ^ = $ebp $T0 = $esp $T1 4 + = 
STACK WIN 4 19060 ab 33 0 10 10 34 0 1 $T0 $ebp = $eip $T0 4 + ^ = $ebp $T0 ^ = $esp $T0 8 + =  $20 $T0 56 - ^ =  $23 $T0 60 - ^ =  $24 $T0 64 - ^ = 
STACK WIN 4 190d8 13 0 0 10 10 34 0 1 $T0 $ebp = $T2 $esp = $T1 .raSearchStart = $eip $T1 ^ = $ebp $T0 = $esp $T1 4 + = 
STACK WIN 4 19140 11f 1b 0 c 0 144 0 1 $T0 $ebp = $eip $T0 4 + ^ = $ebp $T0 ^ = $esp $T0 8 + = 
STACK WIN 4 19157 ff 4 0 c 4 144 0 1 $T0 $ebp = $eip $T0 4 + ^ = $ebp $T0 ^ = $esp $T0 8 + =  $20 $T0 328 - ^ = 
STACK WIN 4 1915b f8 0 0 c 8 144 0 1 $T0 $ebp = $eip $T0 4 + ^ = $ebp $T0 ^ = $esp $T0 8 + =  $20 $T0 328 - ^ =  $24 $T0 332 - ^ = 
STACK WIN 4 19199 b6 0 0 c c 144 0 1 $T0 $ebp = $eip $T0 4 + ^ = $ebp $T0 ^ = $esp $T0 8 + =  $20 $T0 328 - ^ =  $24 $T0 332 - ^ =  $23 $T0 336 - ^ = 
STACK WIN 4 192b0 4e 3 0 8 0 0 0 1 $T0 $ebp = $eip $T0 4 + ^ = $ebp $T0 ^ = $esp $T0 8 + = 
STACK WIN 4 19320 100 28 0 8 0 40c 0 1 $T0 $ebp = $eip $T0 4 + ^ = $ebp $T0 ^ = $esp $T0 8 + = 
STACK WIN 4 19348 cf 0 0 8 4 40c 0 1 $T0 $ebp = $eip $T0 4 + ^ = $ebp $T0 ^ = $esp $T0 8 + =  $20 $T0 1040 - ^ = 
STACK WIN 4 19395 5e 0 0 8 8 40c 0 1 $T0 $ebp = $eip $T0 4 + ^ = $ebp $T0 ^ = $esp $T0 8 + =  $20 $T0 1040 - ^ =  $23 $T0 1044 - ^ = 
STACK WIN 4 19396 5c 0 0 8 c 40c 0 1 $T0 $ebp = $eip $T0 4 + ^ = $ebp $T0 ^ = $esp $T0 8 + =  $20 $T0 1040 - ^ =  $23 $T0 1044 - ^ =  $24 $T0 1048 - ^ = 
STACK WIN 4 19460 76 11 0 10 0 8 0 1 $T0 $ebp = $eip $T0 4 + ^ = $ebp $T0 ^ = $esp $T0 8 + = 
STACK WIN 4 1946a 68 7 0 10 4 8 0 1 $T0 $ebp = $eip $T0 4 + ^ = $ebp $T0 ^ = $esp $T0 8 + =  $20 $T0 12 - ^ = 
STACK WIN 4 1946e 63 3 0 10 8 8 0 1 $T0 $ebp = $eip $T0 4 + ^ = $ebp $T0 ^ = $esp $T0 8 + =  $20 $T0 12 - ^ =  $23 $T0 16 - ^ = 
STACK WIN 4 19471 51 0 0 10 c 8 0 1 $T0 $ebp = $eip $T0 4 + ^ = $ebp $T0 ^ = $esp $T0 8 + =  $20 $T0 12 - ^ =  $23 $T0 16 - ^ =  $24 $T0 20 - ^ = 
STACK WIN 4 19500 14 3 0 4 0 0 0 1 $T0 $ebp = $eip $T0 4 + ^ = $ebp $T0 ^ = $esp $T0 8 + = 
STACK WIN 4 19520 1fe 1f 0 10 0 e3c 0 1 $T0 $ebp = $eip $T0 4 + ^ = $ebp $T0 ^ = $esp $T0 8 + = 
STACK WIN 4 19537 1de 8 0 10 4 e3c 0 1 $T0 $ebp = $eip $T0 4 + ^ = $ebp $T0 ^ = $esp $T0 8 + =  $20 $T0 3648 - ^ = 
STACK WIN 4 1953b 1d7 4 0 10 8 e3c 0 1 $T0 $ebp = $eip $T0 4 + ^ = $ebp $T0 ^ = $esp $T0 8 + =  $20 $T0 3648 - ^ =  $23 $T0 3652 - ^ = 
STACK WIN 4 1953f 1d2 0 0 10 c e3c 0 1 $T0 $ebp = $eip $T0 4 + ^ = $ebp $T0 ^ = $esp $T0 8 + =  $20 $T0 3648 - ^ =  $23 $T0 3652 - ^ =  $24 $T0 3656 - ^ = 
STACK WIN 4 197a0 ee 1f 0 4 0 408 0 1 $T0 $ebp = $eip $T0 4 + ^ = $ebp $T0 ^ = $esp $T0 8 + = 
STACK WIN 4 197bf c6 0 0 4 4 408 0 1 $T0 $ebp = $eip $T0 4 + ^ = $ebp $T0 ^ = $esp $T0 8 + =  $20 $T0 1036 - ^ = 
STACK WIN 4 19805 5e 0 0 4 8 408 0 1 $T0 $ebp = $eip $T0 4 + ^ = $ebp $T0 ^ = $esp $T0 8 + =  $20 $T0 1036 - ^ =  $23 $T0 1040 - ^ = 
STACK WIN 4 19806 5c 0 0 4 c 408 0 1 $T0 $ebp = $eip $T0 4 + ^ = $ebp $T0 ^ = $esp $T0 8 + =  $20 $T0 1036 - ^ =  $23 $T0 1040 - ^ =  $24 $T0 1044 - ^ = 
STACK WIN 4 198d0 2d 3 0 14 0 0 0 1 $T0 $ebp = $eip $T0 4 + ^ = $ebp $T0 ^ = $esp $T0 8 + = 
STACK WIN 4 19910 21 3 0 c 0 0 0 1 $T0 $ebp = $eip $T0 4 + ^ = $ebp $T0 ^ = $esp $T0 8 + = 
STACK WIN 4 19940 6 0 0 4 0 0 0 1 $T0 .raSearch = $eip $T0 ^ = $esp $T0 4 + = 
STACK WIN 4 19950 6 0 0 4 0 0 0 1 $T0 .raSearch = $eip $T0 ^ = $esp $T0 4 + = 
STACK WIN 4 19960 18 3 0 4 0 0 0 1 $T0 $ebp = $eip $T0 4 + ^ = $ebp $T0 ^ = $esp $T0 8 + = 
STACK WIN 4 19980 6 0 0 0 0 0 0 1 $T0 .raSearch = $eip $T0 ^ = $esp $T0 4 + = 
STACK WIN 4 19990 1d 3 0 4 0 0 0 1 $T0 $ebp = $eip $T0 4 + ^ = $ebp $T0 ^ = $esp $T0 8 + = 
STACK WIN 4 199c0 1d 3 0 4 0 0 0 1 $T0 $ebp = $eip $T0 4 + ^ = $ebp $T0 ^ = $esp $T0 8 + = 
STACK WIN 4 199f0 23 3 0 8 0 0 0 1 $T0 $ebp = $eip $T0 4 + ^ = $ebp $T0 ^ = $esp $T0 8 + = 
STACK WIN 4 19a20 27 7 0 4 0 4 0 1 $T0 $ebp = $eip $T0 4 + ^ = $ebp $T0 ^ = $esp $T0 8 + = 
STACK WIN 4 19a50 25 7 0 4 0 4 0 1 $T0 $ebp = $eip $T0 4 + ^ = $ebp $T0 ^ = $esp $T0 8 + = 
STACK WIN 4 19a80 26 7 0 0 0 4 0 1 $T0 $ebp = $eip $T0 4 + ^ = $ebp $T0 ^ = $esp $T0 8 + = 
STACK WIN 4 19ab0 25 7 0 4 0 4 0 1 $T0 $ebp = $eip $T0 4 + ^ = $ebp $T0 ^ = $esp $T0 8 + = 
STACK WIN 4 19ae0 24 7 0 0 0 4 0 1 $T0 $ebp = $eip $T0 4 + ^ = $ebp $T0 ^ = $esp $T0 8 + = 
STACK WIN 4 19b10 3c 7 0 4 0 4 0 1 $T0 $ebp = $eip $T0 4 + ^ = $ebp $T0 ^ = $esp $T0 8 + = 
STACK WIN 4 19b60 2f 7 0 8 0 4 0 1 $T0 $ebp = $eip $T0 4 + ^ = $ebp $T0 ^ = $esp $T0 8 + = 
STACK WIN 4 19ba0 13 7 0 0 0 4 0 1 $T0 $ebp = $eip $T0 4 + ^ = $ebp $T0 ^ = $esp $T0 8 + = 
STACK WIN 4 19bc0 13 7 0 0 0 4 0 1 $T0 $ebp = $eip $T0 4 + ^ = $ebp $T0 ^ = $esp $T0 8 + = 
STACK WIN 4 19be0 23 7 0 0 0 4 0 1 $T0 $ebp = $eip $T0 4 + ^ = $ebp $T0 ^ = $esp $T0 8 + = 
STACK WIN 4 19c10 2e 7 0 4 0 4 0 1 $T0 $ebp = $eip $T0 4 + ^ = $ebp $T0 ^ = $esp $T0 8 + = 
STACK WIN 4 19c50 2e 7 0 4 0 4 0 1 $T0 $ebp = $eip $T0 4 + ^ = $ebp $T0 ^ = $esp $T0 8 + = 
STACK WIN 4 19c90 2e 7 0 4 0 4 0 1 $T0 $ebp = $eip $T0 4 + ^ = $ebp $T0 ^ = $esp $T0 8 + = 
STACK WIN 4 19cd0 20 6 0 0 0 c 0 1 $T0 $ebp = $eip $T0 4 + ^ = $ebp $T0 ^ = $esp $T0 8 + = 
STACK WIN 4 19d00 20 6 0 0 0 c 0 1 $T0 $ebp = $eip $T0 4 + ^ = $ebp $T0 ^ = $esp $T0 8 + = 
STACK WIN 4 19d30 2b 9 0 0 0 8 0 1 $T0 $ebp = $eip $T0 4 + ^ = $ebp $T0 ^ = $esp $T0 8 + = 
STACK WIN 4 19d70 2d3 12 0 0 8 40 0 1 $T0 $ebp = $eip $T0 4 + ^ = $ebp $T0 ^ = $esp $T0 8 + =  $20 $T0 68 - ^ =  $23 $T0 72 - ^ = 
STACK WIN 4 1a100 a 3 0 0 0 0 0 1 $T0 $ebp = $eip $T0 4 + ^ = $ebp $T0 ^ = $esp $T0 8 + = 
STACK WIN 4 1a110 24 4 0 0 0 4 0 1 $T0 $ebp = $eip $T0 4 + ^ = $ebp $T0 ^ = $esp $T0 8 + = 
STACK WIN 4 1a140 135 9 0 4 0 32c 0 1 $T0 $ebp = $eip $T0 4 + ^ = $ebp $T0 ^ = $esp $T0 8 + = 
STACK WIN 4 1a2d0 40 6 0 0 0 48 0 1 $T0 $ebp = $eip $T0 4 + ^ = $ebp $T0 ^ = $esp $T0 8 + = 
STACK WIN 4 1a320 7 3 0 0 0 0 0 1 $T0 $ebp = $eip $T0 4 + ^ = $ebp $T0 ^ = $esp $T0 8 + = 
STACK WIN 4 1a330 83 6 0 0 0 8 0 1 $T0 $ebp = $eip $T0 4 + ^ = $ebp $T0 ^ = $esp $T0 8 + = 
STACK WIN 4 1a3e0 10 3 0 0 0 0 0 1 $T0 $ebp = $eip $T0 4 + ^ = $ebp $T0 ^ = $esp $T0 8 + = 
STACK WIN 4 1a400 5d 4 0 4 0 4 0 1 $T0 $ebp = $eip $T0 4 + ^ = $ebp $T0 ^ = $esp $T0 8 + = 
STACK WIN 4 1a480 f 3 0 4 0 0 0 1 $T0 $ebp = $eip $T0 4 + ^ = $ebp $T0 ^ = $esp $T0 8 + = 
STACK WIN 4 1a4a0 14 7 0 0 0 4 0 1 $T0 $ebp = $eip $T0 4 + ^ = $ebp $T0 ^ = $esp $T0 8 + = 
STACK WIN 4 1a4c0 27 3 0 10 0 0 0 1 $T0 $ebp = $eip $T0 4 + ^ = $ebp $T0 ^ = $esp $T0 8 + = 
STACK WIN 4 1a4f0 dd 6 0 0 0 14 0 1 $T0 $ebp = $eip $T0 4 + ^ = $ebp $T0 ^ = $esp $T0 8 + = 
STACK WIN 4 1a610 7 3 0 4 0 0 0 1 $T0 $ebp = $eip $T0 4 + ^ = $ebp $T0 ^ = $esp $T0 8 + = 
STACK WIN 4 1a620 7 3 0 0 0 0 0 1 $T0 $ebp = $eip $T0 4 + ^ = $ebp $T0 ^ = $esp $T0 8 + = 
STACK WIN 4 1a630 a 3 0 0 0 0 0 1 $T0 $ebp = $eip $T0 4 + ^ = $ebp $T0 ^ = $esp $T0 8 + = 
STACK WIN 4 1a640 7 3 0 0 0 0 0 1 $T0 $ebp = $eip $T0 4 + ^ = $ebp $T0 ^ = $esp $T0 8 + = 
STACK WIN 4 1a650 7 3 0 0 0 0 0 1 $T0 $ebp = $eip $T0 4 + ^ = $ebp $T0 ^ = $esp $T0 8 + = 
STACK WIN 4 1a660 10 3 0 0 0 0 0 1 $T0 $ebp = $eip $T0 4 + ^ = $ebp $T0 ^ = $esp $T0 8 + = 
STACK WIN 4 1a680 12 3 0 0 0 0 0 1 $T0 $ebp = $eip $T0 4 + ^ = $ebp $T0 ^ = $esp $T0 8 + = 
STACK WIN 4 1a6a0 7 3 0 0 0 0 0 1 $T0 $ebp = $eip $T0 4 + ^ = $ebp $T0 ^ = $esp $T0 8 + = 
STACK WIN 4 1a6b0 24 3 0 0 0 0 0 1 $T0 $ebp = $eip $T0 4 + ^ = $ebp $T0 ^ = $esp $T0 8 + = 
STACK WIN 4 1a6e0 5 3 0 0 0 0 0 1 $T0 $ebp = $eip $T0 4 + ^ = $ebp $T0 ^ = $esp $T0 8 + = 
STACK WIN 4 1a6f0 5 3 0 0 0 0 0 1 $T0 $ebp = $eip $T0 4 + ^ = $ebp $T0 ^ = $esp $T0 8 + = 
STACK WIN 4 1a700 a 3 0 0 0 0 0 1 $T0 $ebp = $eip $T0 4 + ^ = $ebp $T0 ^ = $esp $T0 8 + = 
STACK WIN 4 1a710 40 6 0 0 0 8 0 1 $T0 $ebp = $eip $T0 4 + ^ = $ebp $T0 ^ = $esp $T0 8 + = 
STACK WIN 4 1a760 24 4 0 0 0 4 0 1 $T0 $ebp = $eip $T0 4 + ^ = $ebp $T0 ^ = $esp $T0 8 + = 
STACK WIN 4 1a790 a 3 0 0 0 0 0 1 $T0 $ebp = $eip $T0 4 + ^ = $ebp $T0 ^ = $esp $T0 8 + = 
STACK WIN 4 1a7a0 a 3 0 0 0 0 0 1 $T0 $ebp = $eip $T0 4 + ^ = $ebp $T0 ^ = $esp $T0 8 + = 
STACK WIN 4 1a7b0 2d 1 0 0 0 0 0 1 $T0 .raSearch = $eip $T0 ^ = $esp $T0 4 + = 
STACK WIN 4 1a7b1 2b 0 0 0 4 0 0 1 $T0 .raSearch = $eip $T0 ^ = $esp $T0 4 + =  $23 $T0 4 - ^ = 
STACK WIN 4 1a7c0 1b 0 0 0 8 0 0 1 $T0 .raSearch = $eip $T0 ^ = $esp $T0 4 + =  $23 $T0 4 - ^ =  $24 $T0 8 - ^ = 
STACK WIN 4 1a7f0 2d 1 0 0 0 0 0 1 $T0 .raSearch = $eip $T0 ^ = $esp $T0 4 + = 
STACK WIN 4 1a7f1 2b 0 0 0 4 0 0 1 $T0 .raSearch = $eip $T0 ^ = $esp $T0 4 + =  $23 $T0 4 - ^ = 
STACK WIN 4 1a800 1b 0 0 0 8 0 0 1 $T0 .raSearch = $eip $T0 ^ = $esp $T0 4 + =  $23 $T0 4 - ^ =  $24 $T0 8 - ^ = 
STACK WIN 4 1a830 140 13 0 0 0 414 0 1 $T0 $ebp = $eip $T0 4 + ^ = $ebp $T0 ^ = $esp $T0 8 + = 
STACK WIN 4 1a9c0 274 14 0 0 0 21c 0 1 $T0 $ebp = $eip $T0 4 + ^ = $ebp $T0 ^ = $esp $T0 8 + = 
STACK WIN 4 1a9d4 257 0 0 0 4 21c 0 1 $T0 $ebp = $eip $T0 4 + ^ = $ebp $T0 ^ = $esp $T0 8 + =  $24 $T0 544 - ^ = 
STACK WIN 4 1aa39 1ef 0 0 0 8 21c 0 1 $T0 $ebp = $eip $T0 4 + ^ = $ebp $T0 ^ = $esp $T0 8 + =  $24 $T0 544 - ^ =  $23 $T0 548 - ^ = 
STACK WIN 4 1aa5c 1cb 0 0 0 c 21c 0 1 $T0 $ebp = $eip $T0 4 + ^ = $ebp $T0 ^ = $esp $T0 8 + =  $24 $T0 544 - ^ =  $23 $T0 548 - ^ =  $20 $T0 552 - ^ = 
STACK WIN 4 1ace0 cf 1d 0 c 0 60c 0 1 $T0 $ebp = $eip $T0 4 + ^ = $ebp $T0 ^ = $esp $T0 8 + = 
STACK WIN 4 1acfd a9 0 0 c 4 60c 0 1 $T0 $ebp = $eip $T0 4 + ^ = $ebp $T0 ^ = $esp $T0 8 + =  $23 $T0 1552 - ^ = 
STACK WIN 4 1adf0 352 15 0 18 0 4c 0 1 $T0 $ebp = $eip $T0 4 + ^ = $ebp $T0 ^ = $esp $T0 8 + = 
STACK WIN 4 1ae05 279 0 0 18 4 4c 0 1 $T0 $ebp = $eip $T0 4 + ^ = $ebp $T0 ^ = $esp $T0 8 + =  $23 $T0 80 - ^ = 
STACK WIN 4 1ae60 21d 0 0 18 8 4c 0 1 $T0 $ebp = $eip $T0 4 + ^ = $ebp $T0 ^ = $esp $T0 8 + =  $23 $T0 80 - ^ =  $20 $T0 96 - ^ = 
STACK WIN 4 1ae61 21b 0 0 18 c 4c 0 1 $T0 $ebp = $eip $T0 4 + ^ = $ebp $T0 ^ = $esp $T0 8 + =  $23 $T0 80 - ^ =  $20 $T0 96 - ^ =  $24 $T0 100 - ^ = 
STACK WIN 4 1b220 14 7 0 0 0 4 0 1 $T0 $ebp = $eip $T0 4 + ^ = $ebp $T0 ^ = $esp $T0 8 + = 
STACK WIN 4 1b240 2e 7 0 4 0 4 0 1 $T0 $ebp = $eip $T0 4 + ^ = $ebp $T0 ^ = $esp $T0 8 + = 
STACK WIN 4 1b280 b 7 0 0 0 4 0 1 $T0 $ebp = $eip $T0 4 + ^ = $ebp $T0 ^ = $esp $T0 8 + = 
STACK WIN 4 1b290 27 4 0 0 0 4 0 1 $T0 $ebp = $eip $T0 4 + ^ = $ebp $T0 ^ = $esp $T0 8 + = 
STACK WIN 4 1b4a0 7 3 0 0 0 0 0 1 $T0 $ebp = $eip $T0 4 + ^ = $ebp $T0 ^ = $esp $T0 8 + = 
STACK WIN 4 1b4b0 7 3 0 0 0 0 0 1 $T0 $ebp = $eip $T0 4 + ^ = $ebp $T0 ^ = $esp $T0 8 + = 
STACK WIN 4 1b4c0 7 3 0 0 0 0 0 1 $T0 $ebp = $eip $T0 4 + ^ = $ebp $T0 ^ = $esp $T0 8 + = 
STACK WIN 4 1b4d0 7 3 0 4 0 0 0 1 $T0 $ebp = $eip $T0 4 + ^ = $ebp $T0 ^ = $esp $T0 8 + = 
STACK WIN 4 1b4e0 7 3 0 4 0 0 0 1 $T0 $ebp = $eip $T0 4 + ^ = $ebp $T0 ^ = $esp $T0 8 + = 
STACK WIN 4 1b4f0 7 3 0 0 0 0 0 1 $T0 $ebp = $eip $T0 4 + ^ = $ebp $T0 ^ = $esp $T0 8 + = 
STACK WIN 4 1f0c0 16 3 0 0 0 0 0 1 $T0 $ebp = $eip $T0 4 + ^ = $ebp $T0 ^ = $esp $T0 8 + = 
STACK WIN 4 1f0e0 16 3 0 0 0 0 0 1 $T0 $ebp = $eip $T0 4 + ^ = $ebp $T0 ^ = $esp $T0 8 + = 
STACK WIN 0 18406 27 0 0 0 0 0 0 0 0
STACK WIN 0 18e4c 1b 0 0 0 0 0 0 0 0
STACK WIN 0 19006 13 0 0 0 0 0 0 0 0
STACK WIN 0 190d8 13 0 0 0 0 0 0 0 0
