MODULE windows x86 27E2D91E07AE4A8E85C65F43C7E446722 windows_client_vc2015_v2.pdb
INFO CODE_ID 593DF5EA25000 windows_client_vc2015_v2.exe
PUBLIC 1005 0 @ILT+0(??$_Debug_range2@V?$_List_iterator@V?$_List_val@U?$_List_simple_types@UAppMemory@google_breakpad@@@std@@@std@@@std@@@std@@YAXV?$_List_iterator@V?$_List_val@U?$_List_simple_types@UAppMemory@google_breakpad@@@std@@@std@@@0@0PB_WIUinput_iterator_tag@0@@Z)
PUBLIC 100a 0 @ILT+5(?_Myproxy@?$_List_alloc@U?$_List_base_types@UAppMemory@google_breakpad@@V?$allocator@UAppMemory@google_breakpad@@@std@@@std@@@std@@QAEAAPAU_Container_proxy@2@XZ)
PUBLIC 100f 0 @ILT+10(??$_Uninitialized_move@PAPAVExceptionHandler@google_breakpad@@PAPAV12@V?$allocator@PAVExceptionHandler@google_breakpad@@@std@@@std@@YAPAPAVExceptionHandler@google_breakpad@@PAPAV12@00AAU?$_Wrap_alloc@V?$allocator@PAVExceptionHandler@google_breakpad@@@std@@@0@@Z)
PUBLIC 1014 0 @ILT+15(??$_Debug_pointer@$$CB_W@std@@YAXPB_W0I@Z)
PUBLIC 1019 0 @ILT+20(??0ExceptionHandler@google_breakpad@@QAE@ABV?$basic_string@_WU?$char_traits@_W@std@@V?$allocator@_W@2@@std@@P6A_NPAXPAU_EXCEPTION_POINTERS@@PAUMDRawAssertionInfo@@@ZP6A_NPB_W5123_N@Z1H@Z)
PUBLIC 101e 0 @ILT+25(?allocate@?$allocator@D@std@@QAEPADI@Z)
PUBLIC 1023 0 @ILT+30(??1bad_alloc@std@@UAE@XZ)
PUBLIC 1028 0 @ILT+35(??8AppMemory@google_breakpad@@QBE_NPBX@Z)
PUBLIC 102d 0 @ILT+40(?_Myfirst@?$_Vector_alloc@U?$_Vec_base_types@_WV?$allocator@_W@std@@@std@@@std@@QBEABQA_WXZ)
PUBLIC 1032 0 @ILT+45(??$_Debug_pointer_if@$$CB_W@std@@YAX_NPB_W1I@Z)
PUBLIC 1037 0 @ILT+50(??$forward@V?$basic_string@_WU?$char_traits@_W@std@@V?$allocator@_W@2@@std@@@std@@YA$$QAV?$basic_string@_WU?$char_traits@_W@std@@V?$allocator@_W@2@@0@AAV10@@Z)
PUBLIC 103c 0 @ILT+55(?deallocate@?$allocator@U_Container_proxy@std@@@std@@QAEXPAU_Container_proxy@2@I@Z)
PUBLIC 1041 0 @ILT+60(?_Orphan_all@?$_Vector_alloc@U?$_Vec_base_types@PAVExceptionHandler@google_breakpad@@V?$allocator@PAVExceptionHandler@google_breakpad@@@std@@@std@@@std@@QAEXXZ)
PUBLIC 1046 0 @ILT+65(__get_startup_argv_mode)
PUBLIC 104b 0 @ILT+70(??Y?$_Vector_const_iterator@V?$_Vector_val@U?$_Simple_types@PAVExceptionHandler@google_breakpad@@@std@@@std@@@std@@QAEAAV01@H@Z)
PUBLIC 1050 0 @ILT+75(??$_Umove@PAPAVExceptionHandler@google_breakpad@@@?$vector@PAVExceptionHandler@google_breakpad@@V?$allocator@PAVExceptionHandler@google_breakpad@@@std@@@std@@IAEPAPAVExceptionHandler@google_breakpad@@PAPAV23@00@Z)
PUBLIC 1055 0 @ILT+80(??A?$vector@DV?$allocator@D@std@@@std@@QAEAADI@Z)
PUBLIC 105a 0 @ILT+85(?UnregisterAppMemory@ExceptionHandler@google_breakpad@@QAEXPAX@Z)
PUBLIC 105f 0 @ILT+90(??1?$_Vector_const_iterator@V?$_Vector_val@U?$_Simple_types@PAVExceptionHandler@google_breakpad@@@std@@@std@@@std@@QAE@XZ)
PUBLIC 1064 0 @ILT+95(___acrt_uninitialize)
PUBLIC 1069 0 @ILT+100(?_Nextnode@?$_List_alloc@U?$_List_base_types@UAppMemory@google_breakpad@@V?$allocator@UAppMemory@google_breakpad@@@std@@@std@@@std@@SAAAPAU?$_List_node@UAppMemory@google_breakpad@@PAX@2@PAU32@@Z)
PUBLIC 106e 0 @ILT+105(??0?$_Vector_alloc@U?$_Vec_base_types@_WV?$allocator@_W@std@@@std@@@std@@QAE@XZ)
PUBLIC 1073 0 @ILT+110(?_Getal@?$_Vector_alloc@U?$_Vec_base_types@DV?$allocator@D@std@@@std@@@std@@QAEAAU?$_Wrap_alloc@V?$allocator@D@std@@@2@XZ)
PUBLIC 1078 0 @ILT+115(??1MinidumpCallbackContext@google_breakpad@@QAE@XZ)
PUBLIC 107d 0 @ILT+120(?_Get_second@?$_Compressed_pair@U?$_Wrap_alloc@V?$allocator@U?$_List_node@UAppMemory@google_breakpad@@PAX@std@@@std@@@std@@V?$_List_val@U?$_List_simple_types@UAppMemory@google_breakpad@@@std@@@2@$00@std@@QAEAAV?$_List_val@U?$_List_simple_types@UAppMemory@google_breakpad@@@std@@@2@XZ)
PUBLIC 1082 0 @ILT+125(?_Xlen@?$basic_string@_WU?$char_traits@_W@std@@V?$allocator@_W@2@@std@@QBEXXZ)
PUBLIC 1087 0 @ILT+130(??D?$_Vector_const_iterator@V?$_Vector_val@U?$_Simple_types@PAVExceptionHandler@google_breakpad@@@std@@@std@@@std@@QBEABQAVExceptionHandler@google_breakpad@@XZ)
PUBLIC 108c 0 @ILT+135(?GetBaseName@WindowsStringUtils@google_breakpad@@SA?AV?$basic_string@_WU?$char_traits@_W@std@@V?$allocator@_W@2@@std@@ABV34@@Z)
PUBLIC 1091 0 @ILT+140(___acrt_initialize)
PUBLIC 1096 0 @ILT+145(??0?$vector@PAVExceptionHandler@google_breakpad@@V?$allocator@PAVExceptionHandler@google_breakpad@@@std@@@std@@QAE@XZ)
PUBLIC 109b 0 @ILT+150(___acrt_uninitialize_critical)
PUBLIC 10a0 0 @ILT+155(??$construct@U_Container_proxy@std@@U12@@?$_Wrap_alloc@V?$allocator@U_Container_proxy@std@@@std@@@std@@QAEXPAU_Container_proxy@1@$$QAU21@@Z)
PUBLIC 10a5 0 @ILT+160(??$move@AAU?$_Wrap_alloc@V?$allocator@_W@std@@@std@@@std@@YA$$QAU?$_Wrap_alloc@V?$allocator@_W@std@@@0@AAU10@@Z)
PUBLIC 10aa 0 @ILT+165(??3@YAXPAX@Z)
PUBLIC 10af 0 @ILT+170(?_Get_first@?$_Compressed_pair@U?$_Wrap_alloc@V?$allocator@_W@std@@@std@@V?$_Vector_val@U?$_Simple_types@_W@std@@@2@$00@std@@QAEAAU?$_Wrap_alloc@V?$allocator@_W@std@@@2@XZ)
PUBLIC 10b4 0 @ILT+175(??0?$_Wrap_alloc@V?$allocator@D@std@@@std@@QAE@XZ)
PUBLIC 10b9 0 @ILT+180(??4_Iterator_base12@std@@QAEAAU01@ABU01@@Z)
PUBLIC 10be 0 @ILT+185(??$_Unchecked@PAPAVExceptionHandler@google_breakpad@@@std@@YAPAPAVExceptionHandler@google_breakpad@@PAPAV12@@Z)
PUBLIC 10c3 0 @ILT+190(??_Ebad_alloc@std@@UAEPAXI@Z)
PUBLIC 10c8 0 @ILT+195(??1_Bxty@?$_String_val@U?$_Simple_types@_W@std@@@std@@QAE@XZ)
PUBLIC 10cd 0 @ILT+200(??0CrashGenerationClient@google_breakpad@@QAE@PAXW4_MINIDUMP_TYPE@@PBUCustomClientInfo@1@@Z)
PUBLIC 10d2 0 @ILT+205(??_GCrashGenerationClient@google_breakpad@@QAEPAXI@Z)
PUBLIC 10d7 0 @ILT+210(??$construct@PADAAPAD@?$_Wrap_alloc@V?$allocator@D@std@@@std@@QAEXPAPADAAPAD@Z)
PUBLIC 10dc 0 @ILT+215(??$addressof@PA_W@std@@YAPAPA_WAAPA_W@Z)
PUBLIC 10e1 0 @ILT+220(?_Inside@?$vector@PAVExceptionHandler@google_breakpad@@V?$allocator@PAVExceptionHandler@google_breakpad@@@std@@@std@@IBE_NPBQAVExceptionHandler@google_breakpad@@@Z)
PUBLIC 10e6 0 @ILT+225(??1?$_Compressed_pair@U?$_Wrap_alloc@V?$allocator@_W@std@@@std@@V?$_String_val@U?$_Simple_types@_W@std@@@2@$00@std@@QAE@XZ)
PUBLIC 10eb 0 @ILT+230(?_Reserve@?$vector@PAVExceptionHandler@google_breakpad@@V?$allocator@PAVExceptionHandler@google_breakpad@@@std@@@std@@IAEXI@Z)
PUBLIC 10f0 0 @ILT+235(?_Grow@?$basic_string@DU?$char_traits@D@std@@V?$allocator@D@2@@std@@QAE_NI_N@Z)
PUBLIC 10f5 0 @ILT+240(?allocate@?$_Wrap_alloc@V?$allocator@D@std@@@std@@QAEPADI@Z)
PUBLIC 10fa 0 @ILT+245(?_Get_data@?$_String_alloc@U?$_String_base_types@_WV?$allocator@_W@std@@@std@@@std@@QBEABV?$_String_val@U?$_Simple_types@_W@std@@@2@XZ)
PUBLIC 10ff 0 @ILT+250(??$destroy@PA_W@?$allocator@_W@std@@QAEXPAPA_W@Z)
PUBLIC 1104 0 @ILT+255(??0?$_Iterator012@Urandom_access_iterator_tag@std@@PAVExceptionHandler@google_breakpad@@HPBQAV34@ABQAV34@U_Iterator_base12@2@@std@@QAE@ABU01@@Z)
PUBLIC 1109 0 @ILT+260(?copy@?$char_traits@_W@std@@SAPA_WPA_WPB_WI@Z)
PUBLIC 110e 0 @ILT+265(?deallocate@?$_Wrap_alloc@V?$allocator@U_Container_proxy@std@@@std@@@std@@QAEXPAU_Container_proxy@2@I@Z)
PUBLIC 1113 0 @ILT+270(?_Get_second@?$_Compressed_pair@U?$_Wrap_alloc@V?$allocator@_W@std@@@std@@V?$_String_val@U?$_Simple_types@_W@std@@@2@$00@std@@QBEABV?$_String_val@U?$_Simple_types@_W@std@@@2@XZ)
PUBLIC 1118 0 @ILT+275(?set_dump_path@ExceptionHandler@google_breakpad@@QAEXABV?$basic_string@_WU?$char_traits@_W@std@@V?$allocator@_W@2@@std@@@Z)
PUBLIC 111d 0 @ILT+280(??0?$_Vector_const_iterator@V?$_Vector_val@U?$_Simple_types@PAVExceptionHandler@google_breakpad@@@std@@@std@@@std@@QAE@PAPAVExceptionHandler@google_breakpad@@PBU_Container_base12@1@@Z)
PUBLIC 1122 0 @ILT+285(__crt_debugger_hook)
PUBLIC 1127 0 @ILT+290(?_Get_first@?$_Compressed_pair@U?$_Wrap_alloc@V?$allocator@D@std@@@std@@V?$_String_val@U?$_Simple_types@D@std@@@2@$00@std@@QAEAAU?$_Wrap_alloc@V?$allocator@D@std@@@2@XZ)
PUBLIC 112c 0 @ILT+295(??4?$basic_string@_WU?$char_traits@_W@std@@V?$allocator@_W@2@@std@@QAEAAV01@PB_W@Z)
PUBLIC 1131 0 @ILT+300(??0?$_String_const_iterator@V?$_String_val@U?$_Simple_types@_W@std@@@std@@@std@@QAE@ABV01@@Z)
PUBLIC 1136 0 @ILT+305(?back@?$vector@PAVExceptionHandler@google_breakpad@@V?$allocator@PAVExceptionHandler@google_breakpad@@@std@@@std@@QAEAAPAVExceptionHandler@google_breakpad@@XZ)
PUBLIC 113b 0 @ILT+310(??0?$basic_string@_WU?$char_traits@_W@std@@V?$allocator@_W@2@@std@@QAE@PB_W@Z)
PUBLIC 1140 0 @ILT+315(??$?0AAU?$_Wrap_alloc@V?$allocator@D@std@@@std@@@?$_Wrap_alloc@V?$allocator@U_Container_proxy@std@@@std@@@std@@QAE@AAU?$_Wrap_alloc@V?$allocator@D@std@@@1@@Z)
PUBLIC 1145 0 @ILT+320(??D?$_String_iterator@V?$_String_val@U?$_Simple_types@_W@std@@@std@@@std@@QBEAA_WXZ)
PUBLIC 114a 0 @ILT+325(?append@?$basic_string@_WU?$char_traits@_W@std@@V?$allocator@_W@2@@std@@QAEAAV12@PB_W@Z)
PUBLIC 114f 0 @ILT+330(?_Getpnext@_Iterator_base12@std@@QAEPAPAU12@XZ)
PUBLIC 1154 0 @ILT+335(?deallocate@?$_Wrap_alloc@V?$allocator@PAVExceptionHandler@google_breakpad@@@std@@@std@@QAEXPAPAVExceptionHandler@google_breakpad@@I@Z)
PUBLIC 1159 0 @ILT+340(__vswprintf_s_l)
PUBLIC 115e 0 @ILT+345(??3@YAXPAXI@Z)
PUBLIC 1163 0 @ILT+350(?_Myend@?$_Vector_alloc@U?$_Vec_base_types@PAVExceptionHandler@google_breakpad@@V?$allocator@PAVExceptionHandler@google_breakpad@@@std@@@std@@@std@@QAEAAPAPAVExceptionHandler@google_breakpad@@XZ)
PUBLIC 1168 0 @ILT+355(__vsnwprintf_s_l)
PUBLIC 116d 0 @ILT+360(?select_on_container_copy_construction@?$_Wrap_alloc@V?$allocator@_W@std@@@std@@QBE?AU12@U_Nil@2@@Z)
PUBLIC 1172 0 @ILT+365(?assign@?$basic_string@_WU?$char_traits@_W@std@@V?$allocator@_W@2@@std@@QAEAAV12@PB_W@Z)
PUBLIC 1177 0 @ILT+370(??0?$vector@_WV?$allocator@_W@std@@@std@@QAE@I@Z)
PUBLIC 117c 0 @ILT+375(??0_Bxty@?$_String_val@U?$_Simple_types@_W@std@@@std@@QAE@XZ)
PUBLIC 1181 0 @ILT+380(?_Orphan_all@?$_List_alloc@U?$_List_base_types@UAppMemory@google_breakpad@@V?$allocator@UAppMemory@google_breakpad@@@std@@@std@@@std@@QAEXXZ)
PUBLIC 1186 0 @ILT+385(?max_size@?$allocator_traits@V?$allocator@PAVExceptionHandler@google_breakpad@@@std@@@std@@SAIABV?$allocator@PAVExceptionHandler@google_breakpad@@@2@@Z)
PUBLIC 118b 0 @ILT+390(?_Getcont@_Iterator_base12@std@@QBEPBU_Container_base12@2@XZ)
PUBLIC 1190 0 @ILT+395(??4?$basic_string@_WU?$char_traits@_W@std@@V?$allocator@_W@2@@std@@QAEAAV01@$$QAV01@@Z)
PUBLIC 1195 0 @ILT+400(__initialize_default_precision)
PUBLIC 119a 0 @ILT+405(??0?$_Iterator012@Urandom_access_iterator_tag@std@@_WHPB_WAB_WU_Iterator_base12@2@@std@@QAE@ABU01@@Z)
PUBLIC 119f 0 @ILT+410(_mainCRTStartup)
PUBLIC 11a4 0 @ILT+415(?assign@?$basic_string@_WU?$char_traits@_W@std@@V?$allocator@_W@2@@std@@QAEAAV12@ABV12@II@Z)
PUBLIC 11a9 0 @ILT+420(?deallocate@?$_Wrap_alloc@V?$allocator@_W@std@@@std@@QAEXPA_WI@Z)
PUBLIC 11ae 0 @ILT+425(??0_Iterator_base12@std@@QAE@ABU01@@Z)
PUBLIC 11b3 0 @ILT+430(??$?0$$V@?$_Compressed_pair@U?$_Wrap_alloc@V?$allocator@D@std@@@std@@V?$_Vector_val@U?$_Simple_types@D@std@@@2@$00@std@@QAE@U_Zero_then_variadic_args_t@1@@Z)
PUBLIC 11b8 0 @ILT+435(?end@?$basic_string@_WU?$char_traits@_W@std@@V?$allocator@_W@2@@std@@QAE?AV?$_String_iterator@V?$_String_val@U?$_Simple_types@_W@std@@@std@@@2@XZ)
PUBLIC 11bd 0 @ILT+440(??Z?$_Vector_iterator@V?$_Vector_val@U?$_Simple_types@PAVExceptionHandler@google_breakpad@@@std@@@std@@@std@@QAEAAV01@H@Z)
PUBLIC 11c2 0 @ILT+445(_wmemmove)
PUBLIC 11c7 0 @ILT+450(??Y?$basic_string@_WU?$char_traits@_W@std@@V?$allocator@_W@2@@std@@QAEAAV01@PB_W@Z)
PUBLIC 11cc 0 @ILT+455(??0?$_Wrap_alloc@V?$allocator@U?$_List_node@UAppMemory@google_breakpad@@PAX@std@@@std@@@std@@QAE@XZ)
PUBLIC 11d1 0 @ILT+460(?_Getal@?$_List_alloc@U?$_List_base_types@UAppMemory@google_breakpad@@V?$allocator@UAppMemory@google_breakpad@@@std@@@std@@@std@@QAEAAU?$_Wrap_alloc@V?$allocator@U?$_List_node@UAppMemory@google_breakpad@@PAX@std@@@std@@@2@XZ)
PUBLIC 11d6 0 @ILT+465(___acrt_initialize)
PUBLIC 11db 0 @ILT+470(??$_Pocma@U?$_Wrap_alloc@V?$allocator@_W@std@@@std@@@std@@YAXAAU?$_Wrap_alloc@V?$allocator@_W@std@@@0@0U?$integral_constant@_N$00@0@@Z)
PUBLIC 11e0 0 @ILT+475(??$destroy@PAD@?$_Wrap_alloc@V?$allocator@D@std@@@std@@QAEXPAPAD@Z)
PUBLIC 11e5 0 @ILT+480(??$forward@AAPAVExceptionHandler@google_breakpad@@@std@@YAAAPAVExceptionHandler@google_breakpad@@AAPAV12@@Z)
PUBLIC 11ea 0 @ILT+485(??0?$_List_iterator@V?$_List_val@U?$_List_simple_types@UAppMemory@google_breakpad@@@std@@@std@@@std@@QAE@ABV01@@Z)
PUBLIC 11ef 0 @ILT+490(?_Tidy@?$vector@PAVExceptionHandler@google_breakpad@@V?$allocator@PAVExceptionHandler@google_breakpad@@@std@@@std@@IAEXXZ)
PUBLIC 11f4 0 @ILT+495(?_Tidy@?$basic_string@DU?$char_traits@D@std@@V?$allocator@D@2@@std@@QAEX_NI@Z)
PUBLIC 11f9 0 @ILT+500(?__empty_global_delete@@YAXPAXI@Z)
PUBLIC 11fe 0 @ILT+505(?safe_wcstombs@WindowsStringUtils@google_breakpad@@SA_NABV?$basic_string@_WU?$char_traits@_W@std@@V?$allocator@_W@2@@std@@PAV?$basic_string@DU?$char_traits@D@std@@V?$allocator@D@2@@4@@Z)
PUBLIC 1203 0 @ILT+510(??$_Debug_lt_pred@U?$less@X@std@@AB_KAB_K@std@@YA_N$$QAU?$less@X@0@AB_K1PB_WI@Z)
PUBLIC 1208 0 @ILT+515(??$_Destroy_range1@V?$allocator@_W@std@@PA_W@std@@YAXPA_W0AAU?$_Wrap_alloc@V?$allocator@_W@std@@@0@U?$integral_constant@_N$00@0@@Z)
PUBLIC 120d 0 @ILT+520(??$destroy@U_Container_proxy@std@@@?$allocator_traits@V?$allocator@U_Container_proxy@std@@@std@@@std@@SAXAAV?$allocator@U_Container_proxy@std@@@1@PAU_Container_proxy@1@@Z)
PUBLIC 1212 0 @ILT+525(___scrt_fastfail)
PUBLIC 1217 0 @ILT+530(??$construct@PA_WAAPA_W@?$allocator@_W@std@@QAEXPAPA_WAAPA_W@Z)
PUBLIC 121c 0 @ILT+535(??$?0PAVExceptionHandler@google_breakpad@@@?$allocator@U_Container_proxy@std@@@std@@QAE@ABV?$allocator@PAVExceptionHandler@google_breakpad@@@1@@Z)
PUBLIC 1221 0 @ILT+540(?_Free_proxy@?$_String_alloc@U?$_String_base_types@_WV?$allocator@_W@std@@@std@@@std@@QAEXXZ)
PUBLIC 1226 0 @ILT+545(??$destroy@PAU?$_List_node@UAppMemory@google_breakpad@@PAX@std@@@?$allocator_traits@V?$allocator@U?$_List_node@UAppMemory@google_breakpad@@PAX@std@@@std@@@std@@SAXAAV?$allocator@U?$_List_node@UAppMemory@google_breakpad@@PAX@std@@@1@PAPAU?$_List_node@UAppMemory@google_breakpad@@PAX@1@@Z)
PUBLIC 122b 0 @ILT+550(?_Getal@?$_Vector_alloc@U?$_Vec_base_types@DV?$allocator@D@std@@@std@@@std@@QBEABU?$_Wrap_alloc@V?$allocator@D@std@@@2@XZ)
PUBLIC 1230 0 @ILT+555(?_Getal@?$_List_alloc@U?$_List_base_types@UAppMemory@google_breakpad@@V?$allocator@UAppMemory@google_breakpad@@@std@@@std@@@std@@QBEABU?$_Wrap_alloc@V?$allocator@U?$_List_node@UAppMemory@google_breakpad@@PAX@std@@@std@@@2@XZ)
PUBLIC 1235 0 @ILT+560(?_Move_alloc@?$_String_alloc@U?$_String_base_types@_WV?$allocator@_W@std@@@std@@@std@@QAEXAAU?$_Wrap_alloc@V?$allocator@_W@std@@@2@@Z)
PUBLIC 123a 0 @ILT+565(??0bad_alloc@std@@QAE@XZ)
PUBLIC 123f 0 @ILT+570(??0MinidumpCallbackContext@google_breakpad@@QAE@XZ)
PUBLIC 1244 0 @ILT+575(___scrt_is_ucrt_dll_in_use)
PUBLIC 1249 0 @ILT+580(??$addressof@_W@std@@YAPA_WAA_W@Z)
PUBLIC 124e 0 @ILT+585(??1?$_String_val@U?$_Simple_types@_W@std@@@std@@QAE@XZ)
PUBLIC 1253 0 @ILT+590(?_Myptr@?$_String_alloc@U?$_String_base_types@DV?$allocator@D@std@@@std@@@std@@QAEPADXZ)
PUBLIC 1258 0 @ILT+595(??1bad_array_new_length@std@@UAE@XZ)
PUBLIC 125d 0 @ILT+600(?_Xlen@?$vector@DV?$allocator@D@std@@@std@@IBEXXZ)
PUBLIC 1262 0 @ILT+605(?_Orphan_me@_Iterator_base12@std@@QAEXXZ)
PUBLIC 1267 0 @ILT+610(??1?$_Vector_iterator@V?$_Vector_val@U?$_Simple_types@PAVExceptionHandler@google_breakpad@@@std@@@std@@@std@@QAE@XZ)
PUBLIC 126c 0 @ILT+615(??$construct@UAppMemory@google_breakpad@@ABU12@@?$allocator_traits@V?$allocator@U?$_List_node@UAppMemory@google_breakpad@@PAX@std@@@std@@@std@@SAXAAV?$allocator@U?$_List_node@UAppMemory@google_breakpad@@PAX@std@@@1@PAUAppMemory@google_breakpad@@ABU34@@Z)
PUBLIC 1271 0 @ILT+620(??$__vcrt_va_start_verify_argument_type@QB_W@@YAXXZ)
PUBLIC 1276 0 @ILT+625(??$_Destroy_range@V?$allocator@PAVExceptionHandler@google_breakpad@@@std@@PAPAVExceptionHandler@google_breakpad@@@std@@YAXPAPAVExceptionHandler@google_breakpad@@0AAU?$_Wrap_alloc@V?$allocator@PAVExceptionHandler@google_breakpad@@@std@@@0@@Z)
PUBLIC 127b 0 @ILT+630(??$_Rechecked@PAPAVExceptionHandler@google_breakpad@@PAPAV12@@std@@YAAAPAPAVExceptionHandler@google_breakpad@@AAPAPAV12@PAPAV12@@Z)
PUBLIC 1280 0 @ILT+635(??$_Insert@ABUAppMemory@google_breakpad@@@?$list@UAppMemory@google_breakpad@@V?$allocator@UAppMemory@google_breakpad@@@std@@@std@@QAEXV?$_List_unchecked_const_iterator@V?$_List_val@U?$_List_simple_types@UAppMemory@google_breakpad@@@std@@@std@@U_Iterator_base0@2@@1@ABUAppMemory@google_breakpad@@@Z)
PUBLIC 1285 0 @ILT+640(_NtCurrentTeb)
PUBLIC 128a 0 @ILT+645(__get_startup_commit_mode)
PUBLIC 128f 0 @ILT+650(?_Assign_rv@?$basic_string@_WU?$char_traits@_W@std@@V?$allocator@_W@2@@std@@QAEX$$QAV12@@Z)
PUBLIC 1294 0 @ILT+655(??$addressof@U_Container_proxy@std@@@std@@YAPAU_Container_proxy@0@AAU10@@Z)
PUBLIC 1299 0 @ILT+660(??$construct@UAppMemory@google_breakpad@@ABU12@@?$allocator@U?$_List_node@UAppMemory@google_breakpad@@PAX@std@@@std@@QAEXPAUAppMemory@google_breakpad@@ABU23@@Z)
PUBLIC 129e 0 @ILT+665(??0?$_Vector_val@U?$_Simple_types@D@std@@@std@@QAE@XZ)
PUBLIC 12a3 0 @ILT+670(??$_Debug_pointer@$$CBD@std@@YAXPBDPB_WI@Z)
PUBLIC 12a8 0 @ILT+675(?ExceptionHandlerThreadMain@ExceptionHandler@google_breakpad@@CGKPAX@Z)
PUBLIC 12ad 0 @ILT+680(___acrt_thread_detach)
PUBLIC 12b2 0 @ILT+685(?RequestDump@CrashGenerationClient@google_breakpad@@QAE_NPAUMDRawAssertionInfo@@@Z)
PUBLIC 12b7 0 @ILT+690(?max_size@?$allocator_traits@V?$allocator@D@std@@@std@@SAIABV?$allocator@D@2@@Z)
PUBLIC 12bc 0 @ILT+695(?_Myproxy@?$_Vector_alloc@U?$_Vec_base_types@DV?$allocator@D@std@@@std@@@std@@QAEAAPAU_Container_proxy@2@XZ)
PUBLIC 12c1 0 @ILT+700(?append@?$basic_string@_WU?$char_traits@_W@std@@V?$allocator@_W@2@@std@@QAEAAV12@PB_WI@Z)
PUBLIC 12c6 0 @ILT+705(?_Getal@?$_Vector_alloc@U?$_Vec_base_types@_WV?$allocator@_W@std@@@std@@@std@@QAEAAU?$_Wrap_alloc@V?$allocator@_W@std@@@2@XZ)
PUBLIC 12cb 0 @ILT+710(?max_size@?$vector@PAVExceptionHandler@google_breakpad@@V?$allocator@PAVExceptionHandler@google_breakpad@@@std@@@std@@QBEIXZ)
PUBLIC 12d0 0 @ILT+715(?_Myfirst@?$_Vector_alloc@U?$_Vec_base_types@PAVExceptionHandler@google_breakpad@@V?$allocator@PAVExceptionHandler@google_breakpad@@@std@@@std@@@std@@QAEAAPAPAVExceptionHandler@google_breakpad@@XZ)
PUBLIC 12d5 0 @ILT+720(?_Inside@?$basic_string@_WU?$char_traits@_W@std@@V?$allocator@_W@2@@std@@QAE_NPB_W@Z)
PUBLIC 12da 0 @ILT+725(??$?8V?$allocator@_W@std@@V01@@std@@YA_NABU?$_Wrap_alloc@V?$allocator@_W@std@@@0@0@Z)
PUBLIC 12df 0 @ILT+730(?_Alloc_proxy@?$_Vector_alloc@U?$_Vec_base_types@_WV?$allocator@_W@std@@@std@@@std@@QAEXXZ)
PUBLIC 12e4 0 @ILT+735(?_Orphan_all@_Container_base12@std@@QAEXXZ)
PUBLIC 12e9 0 @ILT+740(?_Get_data@?$_List_alloc@U?$_List_base_types@UAppMemory@google_breakpad@@V?$allocator@UAppMemory@google_breakpad@@@std@@@std@@@std@@QBEABV?$_List_val@U?$_List_simple_types@UAppMemory@google_breakpad@@@std@@@2@XZ)
PUBLIC 12ee 0 @ILT+745(??E?$_Vector_const_iterator@V?$_Vector_val@U?$_Simple_types@PAVExceptionHandler@google_breakpad@@@std@@@std@@@std@@QAEAAV01@XZ)
PUBLIC 12f3 0 @ILT+750(??$?0AAU?$_Wrap_alloc@V?$allocator@U?$_List_node@UAppMemory@google_breakpad@@PAX@std@@@std@@@std@@@?$_Wrap_alloc@V?$allocator@U_Container_proxy@std@@@std@@@std@@QAE@AAU?$_Wrap_alloc@V?$allocator@U?$_List_node@UAppMemory@google_breakpad@@PAX@std@@@std@@@1@@Z)
PUBLIC 12f8 0 @ILT+755(??1exception@std@@UAE@XZ)
PUBLIC 12fd 0 @ILT+760(?_Prevnode@?$_List_alloc@U?$_List_base_types@UAppMemory@google_breakpad@@V?$allocator@UAppMemory@google_breakpad@@@std@@@std@@@std@@SAAAPAU?$_List_node@UAppMemory@google_breakpad@@PAX@2@PAU32@@Z)
PUBLIC 1302 0 @ILT+765(?max_size@?$allocator@U?$_List_node@UAppMemory@google_breakpad@@PAX@std@@@std@@QBEIXZ)
PUBLIC 1307 0 @ILT+770(??$?8_W_W@std@@YA_NABV?$allocator@_W@0@0@Z)
PUBLIC 130c 0 @ILT+775(?_Adopt@_Iterator_base12@std@@QAEXPBU_Container_base12@2@@Z)
PUBLIC 1311 0 @ILT+780(??$_Destroy_range@V?$allocator@D@std@@PAD@std@@YAXPAD0AAU?$_Wrap_alloc@V?$allocator@D@std@@@0@@Z)
PUBLIC 1316 0 @ILT+785(___scrt_initialize_winrt)
PUBLIC 131b 0 @ILT+790(?HandlePureVirtualCall@ExceptionHandler@google_breakpad@@CAXXZ)
PUBLIC 1320 0 @ILT+795(?_Get_second@?$_Compressed_pair@U?$_Wrap_alloc@V?$allocator@_W@std@@@std@@V?$_Vector_val@U?$_Simple_types@_W@std@@@2@$00@std@@QAEAAV?$_Vector_val@U?$_Simple_types@_W@std@@@2@XZ)
PUBLIC 1325 0 @ILT+800(??$_Pocca@U?$_Wrap_alloc@V?$allocator@_W@std@@@std@@@std@@YAXAAU?$_Wrap_alloc@V?$allocator@_W@std@@@0@ABU10@U?$integral_constant@_N$0A@@0@@Z)
PUBLIC 132a 0 @ILT+805(?_Tidy@?$basic_string@_WU?$char_traits@_W@std@@V?$allocator@_W@2@@std@@QAEX_NI@Z)
PUBLIC 132f 0 @ILT+810(?_Get_second@?$_Compressed_pair@U?$_Wrap_alloc@V?$allocator@D@std@@@std@@V?$_String_val@U?$_Simple_types@D@std@@@2@$00@std@@QBEABV?$_String_val@U?$_Simple_types@D@std@@@2@XZ)
PUBLIC 1334 0 @ILT+815(??_G?$vector@PAVExceptionHandler@google_breakpad@@V?$allocator@PAVExceptionHandler@google_breakpad@@@std@@@std@@QAEPAXI@Z)
PUBLIC 1339 0 @ILT+820(?ConnectToPipe@CrashGenerationClient@google_breakpad@@AAEPAXPB_WKK@Z)
PUBLIC 133e 0 @ILT+825(??$forward@U?$_Wrap_alloc@V?$allocator@_W@std@@@std@@@std@@YA$$QAU?$_Wrap_alloc@V?$allocator@_W@std@@@0@AAU10@@Z)
PUBLIC 1343 0 @ILT+830(?_Get_first@?$_Compressed_pair@U?$_Wrap_alloc@V?$allocator@D@std@@@std@@V?$_String_val@U?$_Simple_types@D@std@@@2@$00@std@@QBEABU?$_Wrap_alloc@V?$allocator@D@std@@@2@XZ)
PUBLIC 1348 0 @ILT+835(??4?$_Vector_iterator@V?$_Vector_val@U?$_Simple_types@PAVExceptionHandler@google_breakpad@@@std@@@std@@@std@@QAEAAV01@$$QAV01@@Z)
PUBLIC 134d 0 @ILT+840(??$_Move_unchecked@PAPAVExceptionHandler@google_breakpad@@PAPAV12@@std@@YAPAPAVExceptionHandler@google_breakpad@@PAPAV12@00@Z)
PUBLIC 1352 0 @ILT+845(??0bad_alloc@std@@AAE@QBD@Z)
PUBLIC 1357 0 @ILT+850(??Y?$_Vector_iterator@V?$_Vector_val@U?$_Simple_types@PAVExceptionHandler@google_breakpad@@@std@@@std@@@std@@QAEAAV01@H@Z)
PUBLIC 135c 0 @ILT+855(??1?$list@UAppMemory@google_breakpad@@V?$allocator@UAppMemory@google_breakpad@@@std@@@std@@QAE@XZ)
PUBLIC 1361 0 @ILT+860(?_Copy@?$basic_string@DU?$char_traits@D@std@@V?$allocator@D@2@@std@@QAEXII@Z)
PUBLIC 1366 0 @ILT+865(?release@?$scoped_ptr@VCrashGenerationClient@google_breakpad@@@google_breakpad@@QAEPAVCrashGenerationClient@2@XZ)
PUBLIC 136b 0 @ILT+870(??4?$_List_unchecked_const_iterator@V?$_List_val@U?$_List_simple_types@UAppMemory@google_breakpad@@@std@@@std@@U_Iterator_base12@2@@std@@QAEAAV01@$$QAV01@@Z)
PUBLIC 1370 0 @ILT+875(??0?$_List_unchecked_const_iterator@V?$_List_val@U?$_List_simple_types@UAppMemory@google_breakpad@@@std@@@std@@U_Iterator_base12@2@@std@@QAE@ABV01@@Z)
PUBLIC 1375 0 @ILT+880(??$construct@PAVExceptionHandler@google_breakpad@@ABQAV12@@?$allocator@PAVExceptionHandler@google_breakpad@@@std@@QAEXPAPAVExceptionHandler@google_breakpad@@ABQAV23@@Z)
PUBLIC 137a 0 @ILT+885(?_Copy@?$basic_string@_WU?$char_traits@_W@std@@V?$allocator@_W@2@@std@@QAEXII@Z)
PUBLIC 137f 0 @ILT+890(?append@?$basic_string@_WU?$char_traits@_W@std@@V?$allocator@_W@2@@std@@QAEAAV12@ABV12@II@Z)
PUBLIC 1384 0 @ILT+895(??$construct@PAU?$_List_node@UAppMemory@google_breakpad@@PAX@std@@AAPAU12@@?$_Wrap_alloc@V?$allocator@U?$_List_node@UAppMemory@google_breakpad@@PAX@std@@@std@@@std@@QAEXPAPAU?$_List_node@UAppMemory@google_breakpad@@PAX@1@AAPAU21@@Z)
PUBLIC 1389 0 @ILT+900(___acrt_uninitialize)
PUBLIC 138e 0 @ILT+905(__get_startup_thread_locale_mode)
PUBLIC 1393 0 @ILT+910(??$forward@AB_K@std@@YAAB_KAB_K@Z)
PUBLIC 1398 0 @ILT+915(??$construct@PAVExceptionHandler@google_breakpad@@AAPAV12@@?$allocator@PAVExceptionHandler@google_breakpad@@@std@@QAEXPAPAVExceptionHandler@google_breakpad@@AAPAV23@@Z)
PUBLIC 139d 0 @ILT+920(?_Myptr@?$_String_val@U?$_Simple_types@D@std@@@std@@QAEPADXZ)
PUBLIC 13a2 0 @ILT+925(?assign@?$basic_string@DU?$char_traits@D@std@@V?$allocator@D@2@@std@@QAEAAV12@PBDI@Z)
PUBLIC 13a7 0 @ILT+930(?get_app_type@__scrt_main_policy@@SA?AW4_crt_app_type@@XZ)
PUBLIC 13ac 0 @ILT+935(_atexit)
PUBLIC 13b1 0 @ILT+940(?assign@?$char_traits@_W@std@@SAXAA_WAB_W@Z)
PUBLIC 13b6 0 @ILT+945(?_Nextnode@?$_List_val@U?$_List_simple_types@UAppMemory@google_breakpad@@@std@@@std@@SAAAPAU?$_List_node@UAppMemory@google_breakpad@@PAX@2@PAU32@@Z)
PUBLIC 13bb 0 @ILT+950(??E?$_List_unchecked_const_iterator@V?$_List_val@U?$_List_simple_types@UAppMemory@google_breakpad@@@std@@@std@@U_Iterator_base0@2@@std@@QAEAAV01@XZ)
PUBLIC 13c0 0 @ILT+955(?_Myptr@?$_String_alloc@U?$_String_base_types@_WV?$allocator@_W@std@@@std@@@std@@QBEPB_WXZ)
PUBLIC 13c5 0 @ILT+960(?_Get_data@?$_Vector_alloc@U?$_Vec_base_types@PAVExceptionHandler@google_breakpad@@V?$allocator@PAVExceptionHandler@google_breakpad@@@std@@@std@@@std@@QAEAAV?$_Vector_val@U?$_Simple_types@PAVExceptionHandler@google_breakpad@@@std@@@2@XZ)
PUBLIC 13ca 0 @ILT+965(??$_Debug_pointer_if@$$CBD@std@@YAX_NPBDPB_WI@Z)
PUBLIC 13cf 0 @ILT+970(??1?$scoped_ptr@VCrashGenerationClient@google_breakpad@@@google_breakpad@@QAE@XZ)
PUBLIC 13d4 0 @ILT+975(??$_Copy_memmove@PAPAVExceptionHandler@google_breakpad@@PAPAV12@@std@@YAPAPAVExceptionHandler@google_breakpad@@PAPAV12@00@Z)
PUBLIC 13d9 0 @ILT+980(?__scrt_throw_std_bad_alloc@@YAXXZ)
PUBLIC 13de 0 @ILT+985(?RequestDump@CrashGenerationClient@google_breakpad@@QAE_NPAU_EXCEPTION_POINTERS@@PAUMDRawAssertionInfo@@@Z)
PUBLIC 13e3 0 @ILT+990(??$construct@PAVExceptionHandler@google_breakpad@@AAPAV12@@?$_Wrap_alloc@V?$allocator@PAVExceptionHandler@google_breakpad@@@std@@@std@@QAEXPAPAVExceptionHandler@google_breakpad@@AAPAV23@@Z)
PUBLIC 13e8 0 @ILT+995(?push_back@?$list@UAppMemory@google_breakpad@@V?$allocator@UAppMemory@google_breakpad@@@std@@@std@@QAEXABUAppMemory@google_breakpad@@@Z)
PUBLIC 13ed 0 @ILT+1000(?_Compat@?$_String_const_iterator@V?$_String_val@U?$_Simple_types@_W@std@@@std@@@std@@QBEXABV12@@Z)
PUBLIC 13f2 0 @ILT+1005(?begin@?$vector@PAVExceptionHandler@google_breakpad@@V?$allocator@PAVExceptionHandler@google_breakpad@@@std@@@std@@QAE?AV?$_Vector_iterator@V?$_Vector_val@U?$_Simple_types@PAVExceptionHandler@google_breakpad@@@std@@@std@@@2@XZ)
PUBLIC 13f7 0 @ILT+1010(?assign@?$basic_string@_WU?$char_traits@_W@std@@V?$allocator@_W@2@@std@@QAEAAV12@ABV12@@Z)
PUBLIC 13fc 0 @ILT+1015(?_Mynode@?$_List_unchecked_const_iterator@V?$_List_val@U?$_List_simple_types@UAppMemory@google_breakpad@@@std@@@std@@U_Iterator_base12@2@@std@@QBEPAU?$_List_node@UAppMemory@google_breakpad@@PAX@2@XZ)
PUBLIC 1401 0 @ILT+1020(?_Getal@?$_String_alloc@U?$_String_base_types@DV?$allocator@D@std@@@std@@@std@@QAEAAU?$_Wrap_alloc@V?$allocator@D@std@@@2@XZ)
PUBLIC 1406 0 @ILT+1025(??$destroy@PAVExceptionHandler@google_breakpad@@@?$allocator_traits@V?$allocator@PAVExceptionHandler@google_breakpad@@@std@@@std@@SAXAAV?$allocator@PAVExceptionHandler@google_breakpad@@@1@PAPAVExceptionHandler@google_breakpad@@@Z)
PUBLIC 140b 0 @ILT+1030(??_Etype_info@@UAEPAXI@Z)
PUBLIC 1410 0 @ILT+1035(?_Unchecked_end@?$list@UAppMemory@google_breakpad@@V?$allocator@UAppMemory@google_breakpad@@@std@@@std@@QAE?AV?$_List_unchecked_iterator@V?$_List_val@U?$_List_simple_types@UAppMemory@google_breakpad@@@std@@@std@@@2@XZ)
PUBLIC 1415 0 @ILT+1040(___scrt_get_dyn_tls_dtor_callback)
PUBLIC 141a 0 @ILT+1045(??1?$_Vector_val@U?$_Simple_types@_W@std@@@std@@QAE@XZ)
PUBLIC 141f 0 @ILT+1050(?length@?$char_traits@D@std@@SAIPBD@Z)
PUBLIC 1424 0 @ILT+1055(?max_size@?$basic_string@_WU?$char_traits@_W@std@@V?$allocator@_W@2@@std@@QBEIXZ)
PUBLIC 1429 0 @ILT+1060(??$addressof@$$CBUAppMemory@google_breakpad@@@std@@YAPBUAppMemory@google_breakpad@@ABU12@@Z)
PUBLIC 142e 0 @ILT+1065(?MinidumpWriteDumpCallback@ExceptionHandler@google_breakpad@@CGHPAXQAU_MINIDUMP_CALLBACK_INPUT@@PAU_MINIDUMP_CALLBACK_OUTPUT@@@Z)
PUBLIC 1433 0 @ILT+1070(?_Make_iter@?$list@UAppMemory@google_breakpad@@V?$allocator@UAppMemory@google_breakpad@@@std@@@std@@QBE?AV?$_List_iterator@V?$_List_val@U?$_List_simple_types@UAppMemory@google_breakpad@@@std@@@std@@@2@V?$_List_const_iterator@V?$_List_val@U?$_List_simple_types@UAppMemory@google_breakpad@@@std@@@std@@@2@@Z)
PUBLIC 1438 0 @ILT+1075(__RTC_Initialize)
PUBLIC 143d 0 @ILT+1080(?_Getal@?$_Vector_alloc@U?$_Vec_base_types@PAVExceptionHandler@google_breakpad@@V?$allocator@PAVExceptionHandler@google_breakpad@@@std@@@std@@@std@@QAEAAU?$_Wrap_alloc@V?$allocator@PAVExceptionHandler@google_breakpad@@@std@@@2@XZ)
PUBLIC 1442 0 @ILT+1085(??0?$_List_iterator@V?$_List_val@U?$_List_simple_types@UAppMemory@google_breakpad@@@std@@@std@@@std@@QAE@PAU?$_List_node@UAppMemory@google_breakpad@@PAX@1@PBV?$_List_val@U?$_List_simple_types@UAppMemory@google_breakpad@@@std@@@1@@Z)
PUBLIC 1447 0 @ILT+1090(??$construct@PAU?$_List_node@UAppMemory@google_breakpad@@PAX@std@@AAPAU12@@?$allocator@U?$_List_node@UAppMemory@google_breakpad@@PAX@std@@@std@@QAEXPAPAU?$_List_node@UAppMemory@google_breakpad@@PAX@1@AAPAU21@@Z)
PUBLIC 144c 0 @ILT+1095(??E?$_Vector_iterator@V?$_Vector_val@U?$_Simple_types@PAVExceptionHandler@google_breakpad@@@std@@@std@@@std@@QAEAAV01@XZ)
PUBLIC 1451 0 @ILT+1100(?RequestUpload@CrashGenerationClient@google_breakpad@@QAE_NK@Z)
PUBLIC 1456 0 @ILT+1105(??0?$_Wrap_alloc@V?$allocator@_W@std@@@std@@QAE@XZ)
PUBLIC 145b 0 @ILT+1110(?_Get_data@?$_Vector_alloc@U?$_Vec_base_types@_WV?$allocator@_W@std@@@std@@@std@@QAEAAV?$_Vector_val@U?$_Simple_types@_W@std@@@2@XZ)
PUBLIC 1460 0 @ILT+1115(??0?$basic_string@_WU?$char_traits@_W@std@@V?$allocator@_W@2@@std@@QAE@XZ)
PUBLIC 1465 0 @ILT+1120(??$_Find_unchecked1@V?$_List_unchecked_iterator@V?$_List_val@U?$_List_simple_types@UAppMemory@google_breakpad@@@std@@@std@@@std@@PAX@std@@YA?AV?$_List_unchecked_iterator@V?$_List_val@U?$_List_simple_types@UAppMemory@google_breakpad@@@std@@@std@@@0@V10@0ABQAXU?$integral_constant@_N$0A@@0@@Z)
PUBLIC 146a 0 @ILT+1125(___report_securityfailure)
PUBLIC 146f 0 @ILT+1130(??$_Destroy_range1@V?$allocator@D@std@@PAD@std@@YAXPAD0AAU?$_Wrap_alloc@V?$allocator@D@std@@@0@U?$integral_constant@_N$00@0@@Z)
PUBLIC 1474 0 @ILT+1135(?_Eos@?$basic_string@_WU?$char_traits@_W@std@@V?$allocator@_W@2@@std@@QAEXI@Z)
PUBLIC 1479 0 @ILT+1140(??1?$basic_string@_WU?$char_traits@_W@std@@V?$allocator@_W@2@@std@@QAE@XZ)
PUBLIC 147e 0 @ILT+1145(?_Copy_alloc@?$_String_alloc@U?$_String_base_types@_WV?$allocator@_W@std@@@std@@@std@@QAEXABU?$_Wrap_alloc@V?$allocator@_W@std@@@2@@Z)
PUBLIC 1483 0 @ILT+1150(?WriteMinidump@ExceptionHandler@google_breakpad@@SA_NABV?$basic_string@_WU?$char_traits@_W@std@@V?$allocator@_W@2@@std@@P6A_NPB_W1PAXPAU_EXCEPTION_POINTERS@@PAUMDRawAssertionInfo@@_N@Z2W4_MINIDUMP_TYPE@@@Z)
PUBLIC 1488 0 @ILT+1155(?_Get_second@?$_Compressed_pair@U?$_Wrap_alloc@V?$allocator@D@std@@@std@@V?$_Vector_val@U?$_Simple_types@D@std@@@2@$00@std@@QBEABV?$_Vector_val@U?$_Simple_types@D@std@@@2@XZ)
PUBLIC 148d 0 @ILT+1160(?_Grow@?$basic_string@_WU?$char_traits@_W@std@@V?$allocator@_W@2@@std@@QAE_NI_N@Z)
PUBLIC 1492 0 @ILT+1165(?_Myproxy@?$_Vector_alloc@U?$_Vec_base_types@_WV?$allocator@_W@std@@@std@@@std@@QAEAAPAU_Container_proxy@2@XZ)
PUBLIC 1497 0 @ILT+1170(??0?$_Vector_iterator@V?$_Vector_val@U?$_Simple_types@PAVExceptionHandler@google_breakpad@@@std@@@std@@@std@@QAE@PAPAVExceptionHandler@google_breakpad@@PBU_Container_base12@1@@Z)
PUBLIC 149c 0 @ILT+1175(??4?$_Wrap_alloc@V?$allocator@_W@std@@@std@@QAEAAU01@$$QAU01@@Z)
PUBLIC 14a1 0 @ILT+1180(?_Free_proxy@?$_List_alloc@U?$_List_base_types@UAppMemory@google_breakpad@@V?$allocator@UAppMemory@google_breakpad@@@std@@@std@@@std@@QAEXXZ)
PUBLIC 14a6 0 @ILT+1185(??$assign@V?$_String_iterator@V?$_String_val@U?$_Simple_types@_W@std@@@std@@@std@@@?$basic_string@_WU?$char_traits@_W@std@@V?$allocator@_W@2@@std@@QAEAAV01@V?$_String_iterator@V?$_String_val@U?$_Simple_types@_W@std@@@std@@@1@0@Z)
PUBLIC 14ab 0 @ILT+1190(?_Xran@?$basic_string@DU?$char_traits@D@std@@V?$allocator@D@2@@std@@QBEXXZ)
PUBLIC 14b0 0 @ILT+1195(??$forward@AAU?$_Wrap_alloc@V?$allocator@_W@std@@@std@@@std@@YAAAU?$_Wrap_alloc@V?$allocator@_W@std@@@0@AAU10@@Z)
PUBLIC 14b5 0 @ILT+1200(_swprintf_s)
PUBLIC 14ba 0 @ILT+1205(??$?0AAU?$_Wrap_alloc@V?$allocator@PAVExceptionHandler@google_breakpad@@@std@@@std@@@?$_Wrap_alloc@V?$allocator@U_Container_proxy@std@@@std@@@std@@QAE@AAU?$_Wrap_alloc@V?$allocator@PAVExceptionHandler@google_breakpad@@@std@@@1@@Z)
PUBLIC 14bf 0 @ILT+1210(?_Xran@?$vector@PAVExceptionHandler@google_breakpad@@V?$allocator@PAVExceptionHandler@google_breakpad@@@std@@@std@@IBEXXZ)
PUBLIC 14c4 0 @ILT+1215(??1?$_Compressed_pair@U?$_Wrap_alloc@V?$allocator@PAVExceptionHandler@google_breakpad@@@std@@@std@@V?$_Vector_val@U?$_Simple_types@PAVExceptionHandler@google_breakpad@@@std@@@2@$00@std@@QAE@XZ)
PUBLIC 14c9 0 @ILT+1220(?GUIDToSymbolServerWString@GUIDString@google_breakpad@@SA?AV?$basic_string@_WU?$char_traits@_W@std@@V?$allocator@_W@2@@std@@PAU_GUID@@@Z)
PUBLIC 14ce 0 @ILT+1225(?RequestDump@CrashGenerationClient@google_breakpad@@QAE_NPAU_EXCEPTION_POINTERS@@@Z)
PUBLIC 14d3 0 @ILT+1230(??0?$_Vector_alloc@U?$_Vec_base_types@DV?$allocator@D@std@@@std@@@std@@QAE@XZ)
PUBLIC 14d8 0 @ILT+1235(?_Myptr@?$_String_val@U?$_Simple_types@_W@std@@@std@@QAEPA_WXZ)
PUBLIC 14dd 0 @ILT+1240(??$_Pocma@U?$_Wrap_alloc@V?$allocator@_W@std@@@std@@@std@@YAXAAU?$_Wrap_alloc@V?$allocator@_W@std@@@0@0@Z)
PUBLIC 14e2 0 @ILT+1245(?c_str@?$basic_string@_WU?$char_traits@_W@std@@V?$allocator@_W@2@@std@@QBEPB_WXZ)
PUBLIC 14e7 0 @ILT+1250(___acrt_thread_attach)
PUBLIC 14ec 0 @ILT+1255(??$forward@V?$allocator@_W@std@@@std@@YA$$QAV?$allocator@_W@0@AAV10@@Z)
PUBLIC 14f1 0 @ILT+1260(?_Get_data@?$_Vector_alloc@U?$_Vec_base_types@DV?$allocator@D@std@@@std@@@std@@QBEABV?$_Vector_val@U?$_Simple_types@D@std@@@2@XZ)
PUBLIC 14f6 0 @ILT+1265(??1?$_List_const_iterator@V?$_List_val@U?$_List_simple_types@UAppMemory@google_breakpad@@@std@@@std@@@std@@QAE@XZ)
PUBLIC 14fb 0 @ILT+1270(??1?$_List_iterator@V?$_List_val@U?$_List_simple_types@UAppMemory@google_breakpad@@@std@@@std@@@std@@QAE@XZ)
PUBLIC 1500 0 @ILT+1275(?safe_mbstowcs@WindowsStringUtils@google_breakpad@@SA_NABV?$basic_string@DU?$char_traits@D@std@@V?$allocator@D@2@@std@@PAV?$basic_string@_WU?$char_traits@_W@std@@V?$allocator@_W@2@@4@@Z)
PUBLIC 1505 0 @ILT+1280(??0?$basic_string@_WU?$char_traits@_W@std@@V?$allocator@_W@2@@std@@QAE@$$QAV01@@Z)
PUBLIC 150a 0 @ILT+1285(??0?$_String_iterator@V?$_String_val@U?$_Simple_types@_W@std@@@std@@@std@@QAE@ABV01@@Z)
PUBLIC 150f 0 @ILT+1290(?max_size@?$allocator_traits@V?$allocator@_W@std@@@std@@SAIABV?$allocator@_W@2@@Z)
PUBLIC 1514 0 @ILT+1295(___acrt_uninitialize_critical)
PUBLIC 1519 0 @ILT+1300(??1?$_Compressed_pair@U?$_Wrap_alloc@V?$allocator@D@std@@@std@@V?$_Vector_val@U?$_Simple_types@D@std@@@2@$00@std@@QAE@XZ)
PUBLIC 151e 0 @ILT+1305(?reset@?$scoped_ptr@VCrashGenerationClient@google_breakpad@@@google_breakpad@@QAEXPAVCrashGenerationClient@2@@Z)
PUBLIC 1523 0 @ILT+1310(?_Myproxy@?$_String_alloc@U?$_String_base_types@_WV?$allocator@_W@std@@@std@@@std@@QAEAAPAU_Container_proxy@2@XZ)
PUBLIC 1528 0 @ILT+1315(??0?$_Iterator012@Ubidirectional_iterator_tag@std@@UAppMemory@google_breakpad@@HPBU34@ABU34@U_Iterator_base12@2@@std@@QAE@XZ)
PUBLIC 152d 0 @ILT+1320(?allocate@?$_Wrap_alloc@V?$allocator@_W@std@@@std@@QAEPA_WI@Z)
PUBLIC 1532 0 @ILT+1325(___scrt_is_user_matherr_present)
PUBLIC 1537 0 @ILT+1330(??1?$_List_unchecked_const_iterator@V?$_List_val@U?$_List_simple_types@UAppMemory@google_breakpad@@@std@@@std@@U_Iterator_base12@2@@std@@QAE@XZ)
PUBLIC 153c 0 @ILT+1335(?_Compat@?$_Vector_const_iterator@V?$_Vector_val@U?$_Simple_types@PAVExceptionHandler@google_breakpad@@@std@@@std@@@std@@QBEXABV12@@Z)
PUBLIC 1541 0 @ILT+1340(??0?$_List_const_iterator@V?$_List_val@U?$_List_simple_types@UAppMemory@google_breakpad@@@std@@@std@@@std@@QAE@PAU?$_List_node@UAppMemory@google_breakpad@@PAX@1@PBV?$_List_val@U?$_List_simple_types@UAppMemory@google_breakpad@@@std@@@1@@Z)
PUBLIC 1546 0 @ILT+1345(??0ExceptionHandler@google_breakpad@@QAE@ABV?$basic_string@_WU?$char_traits@_W@std@@V?$allocator@_W@2@@std@@P6A_NPAXPAU_EXCEPTION_POINTERS@@PAUMDRawAssertionInfo@@@ZP6A_NPB_W5123_N@Z1HPAVCrashGenerationClient@1@@Z)
PUBLIC 154b 0 @ILT+1350(?_Mylast@?$_Vector_alloc@U?$_Vec_base_types@_WV?$allocator@_W@std@@@std@@@std@@QBEABQA_WXZ)
PUBLIC 1550 0 @ILT+1355(??1ExceptionHandler@google_breakpad@@QAE@XZ)
PUBLIC 1555 0 @ILT+1360(?_Get_second@?$_Compressed_pair@U?$_Wrap_alloc@V?$allocator@PAVExceptionHandler@google_breakpad@@@std@@@std@@V?$_Vector_val@U?$_Simple_types@PAVExceptionHandler@google_breakpad@@@std@@@2@$00@std@@QAEAAV?$_Vector_val@U?$_Simple_types@PAVExceptionHandler@google_breakpad@@@std@@@2@XZ)
PUBLIC 155a 0 @ILT+1365(?allocate@?$_Wrap_alloc@V?$allocator@U?$_List_node@UAppMemory@google_breakpad@@PAX@std@@@std@@@std@@QAEPAU?$_List_node@UAppMemory@google_breakpad@@PAX@2@I@Z)
PUBLIC 155f 0 @ILT+1370(?_Xran@?$basic_string@_WU?$char_traits@_W@std@@V?$allocator@_W@2@@std@@QBEXXZ)
PUBLIC 1564 0 @ILT+1375(?_Clamp_suffix_size@?$basic_string@DU?$char_traits@D@std@@V?$allocator@D@2@@std@@QBEIII@Z)
PUBLIC 1569 0 @ILT+1380(??$addressof@QAVExceptionHandler@google_breakpad@@@std@@YAPBQAVExceptionHandler@google_breakpad@@ABQAV12@@Z)
PUBLIC 156e 0 @ILT+1385(?allocate@?$allocator@U_Container_proxy@std@@@std@@QAEPAU_Container_proxy@2@I@Z)
PUBLIC 1573 0 @ILT+1390(?_Orphan_range@?$vector@PAVExceptionHandler@google_breakpad@@V?$allocator@PAVExceptionHandler@google_breakpad@@@std@@@std@@IBEXPAPAVExceptionHandler@google_breakpad@@0@Z)
PUBLIC 1578 0 @ILT+1395(??$_Uninitialized_default_fill_n1@PADIV?$allocator@D@std@@@std@@YAXPADIAAU?$_Wrap_alloc@V?$allocator@D@std@@@0@U?$integral_constant@_N$00@0@@Z)
PUBLIC 157d 0 @ILT+1400(___isa_available_init)
PUBLIC 1582 0 @ILT+1405(??0?$allocator@_W@std@@QAE@ABV01@@Z)
PUBLIC 1587 0 @ILT+1410(??0?$_List_val@U?$_List_simple_types@UAppMemory@google_breakpad@@@std@@@std@@QAE@XZ)
PUBLIC 158c 0 @ILT+1415(?max_size@?$_Wrap_alloc@V?$allocator@_W@std@@@std@@QBEIU_Nil@2@@Z)
PUBLIC 1591 0 @ILT+1420(??9?$_Vector_const_iterator@V?$_Vector_val@U?$_Simple_types@PAVExceptionHandler@google_breakpad@@@std@@@std@@@std@@QBE_NABV01@@Z)
PUBLIC 1596 0 @ILT+1425(?_Myres@?$_String_alloc@U?$_String_base_types@DV?$allocator@D@std@@@std@@@std@@QAEAAIXZ)
PUBLIC 159b 0 @ILT+1430(?length@?$char_traits@_W@std@@SAIPB_W@Z)
PUBLIC 15a0 0 @ILT+1435(___scrt_is_managed_app)
PUBLIC 15a5 0 @ILT+1440(?_Get_data@?$_List_alloc@U?$_List_base_types@UAppMemory@google_breakpad@@V?$allocator@UAppMemory@google_breakpad@@@std@@@std@@@std@@QAEAAV?$_List_val@U?$_List_simple_types@UAppMemory@google_breakpad@@@std@@@2@XZ)
PUBLIC 15aa 0 @ILT+1445(?at@?$vector@PAVExceptionHandler@google_breakpad@@V?$allocator@PAVExceptionHandler@google_breakpad@@@std@@@std@@QAEAAPAVExceptionHandler@google_breakpad@@I@Z)
PUBLIC 15af 0 @ILT+1450(?deallocate@?$_Wrap_alloc@V?$allocator@U?$_List_node@UAppMemory@google_breakpad@@PAX@std@@@std@@@std@@QAEXPAU?$_List_node@UAppMemory@google_breakpad@@PAX@2@I@Z)
PUBLIC 15b4 0 @ILT+1455(?allocate@?$allocator@_W@std@@QAEPA_WI@Z)
PUBLIC 15b9 0 @ILT+1460(??$__crt_fast_decode_pointer@PAP6AXXZ@@YAPAP6AXXZQAP6AXXZ@Z)
PUBLIC 15be 0 @ILT+1465(?_Get_first@?$_Compressed_pair@U?$_Wrap_alloc@V?$allocator@D@std@@@std@@V?$_Vector_val@U?$_Simple_types@D@std@@@2@$00@std@@QBEABU?$_Wrap_alloc@V?$allocator@D@std@@@2@XZ)
PUBLIC 15c3 0 @ILT+1470(?begin@?$basic_string@_WU?$char_traits@_W@std@@V?$allocator@_W@2@@std@@QAE?AV?$_String_iterator@V?$_String_val@U?$_Simple_types@_W@std@@@std@@@2@XZ)
PUBLIC 15c8 0 @ILT+1475(??_Ebad_array_new_length@std@@UAEPAXI@Z)
PUBLIC 15cd 0 @ILT+1480(??$find@V?$_List_iterator@V?$_List_val@U?$_List_simple_types@UAppMemory@google_breakpad@@@std@@@std@@@std@@PAX@std@@YA?AV?$_List_iterator@V?$_List_val@U?$_List_simple_types@UAppMemory@google_breakpad@@@std@@@std@@@0@V10@0ABQAX@Z)
PUBLIC 15d2 0 @ILT+1485(_at_quick_exit)
PUBLIC 15d7 0 @ILT+1490(?pop_back@?$vector@PAVExceptionHandler@google_breakpad@@V?$allocator@PAVExceptionHandler@google_breakpad@@@std@@@std@@QAEXXZ)
PUBLIC 15dc 0 @ILT+1495(___scrt_unhandled_exception_filter@4)
PUBLIC 15e1 0 @ILT+1500(??0ExceptionHandler@google_breakpad@@QAE@ABV?$basic_string@_WU?$char_traits@_W@std@@V?$allocator@_W@2@@std@@P6A_NPAXPAU_EXCEPTION_POINTERS@@PAUMDRawAssertionInfo@@@ZP6A_NPB_W5123_N@Z1HW4_MINIDUMP_TYPE@@5PBUCustomClientInfo@1@@Z)
PUBLIC 15e6 0 @ILT+1505(?_Myfirst@?$_Vector_alloc@U?$_Vec_base_types@PAVExceptionHandler@google_breakpad@@V?$allocator@PAVExceptionHandler@google_breakpad@@@std@@@std@@@std@@QBEABQAPAVExceptionHandler@google_breakpad@@XZ)
PUBLIC 15eb 0 @ILT+1510(?erase@?$basic_string@DU?$char_traits@D@std@@V?$allocator@D@2@@std@@QAEAAV12@I@Z)
PUBLIC 15f0 0 @ILT+1515(?_Myfirst@?$_Vector_alloc@U?$_Vec_base_types@DV?$allocator@D@std@@@std@@@std@@QBEABQADXZ)
PUBLIC 15f5 0 @ILT+1520(??1?$vector@_WV?$allocator@_W@std@@@std@@QAE@XZ)
PUBLIC 15fa 0 @ILT+1525(___report_rangecheckfailure)
PUBLIC 15ff 0 @ILT+1530(?allocate@?$_Wrap_alloc@V?$allocator@PAVExceptionHandler@google_breakpad@@@std@@@std@@QAEPAPAVExceptionHandler@google_breakpad@@I@Z)
PUBLIC 1604 0 @ILT+1535(?_Tidy@?$vector@_WV?$allocator@_W@std@@@std@@IAEXXZ)
PUBLIC 1609 0 @ILT+1540(?max_size@?$allocator@_W@std@@QBEIXZ)
PUBLIC 160e 0 @ILT+1545(?_Get_first@?$_Compressed_pair@U?$_Wrap_alloc@V?$allocator@U?$_List_node@UAppMemory@google_breakpad@@PAX@std@@@std@@@std@@V?$_List_val@U?$_List_simple_types@UAppMemory@google_breakpad@@@std@@@2@$00@std@@QBEABU?$_Wrap_alloc@V?$allocator@U?$_List_node@UAppMemory@google_breakpad@@PAX@std@@@std@@@2@XZ)
PUBLIC 1613 0 @ILT+1550(?_Get_first@?$_Compressed_pair@U?$_Wrap_alloc@V?$allocator@U?$_List_node@UAppMemory@google_breakpad@@PAX@std@@@std@@@std@@V?$_List_val@U?$_List_simple_types@UAppMemory@google_breakpad@@@std@@@2@$00@std@@QAEAAU?$_Wrap_alloc@V?$allocator@U?$_List_node@UAppMemory@google_breakpad@@PAX@std@@@std@@@2@XZ)
PUBLIC 1618 0 @ILT+1555(?_Get_second@?$_Compressed_pair@U?$_Wrap_alloc@V?$allocator@_W@std@@@std@@V?$_String_val@U?$_Simple_types@_W@std@@@2@$00@std@@QAEAAV?$_String_val@U?$_Simple_types@_W@std@@@2@XZ)
PUBLIC 161d 0 @ILT+1560(??D?$_List_const_iterator@V?$_List_val@U?$_List_simple_types@UAppMemory@google_breakpad@@@std@@@std@@@std@@QBEABUAppMemory@google_breakpad@@XZ)
PUBLIC 1622 0 @ILT+1565(___acrt_thread_detach)
PUBLIC 1627 0 @ILT+1570(??$construct@PAVExceptionHandler@google_breakpad@@ABQAV12@@?$allocator_traits@V?$allocator@PAVExceptionHandler@google_breakpad@@@std@@@std@@SAXAAV?$allocator@PAVExceptionHandler@google_breakpad@@@1@PAPAVExceptionHandler@google_breakpad@@ABQAV34@@Z)
PUBLIC 162c 0 @ILT+1575(??9?$_List_const_iterator@V?$_List_val@U?$_List_simple_types@UAppMemory@google_breakpad@@@std@@@std@@@std@@QBE_NABV01@@Z)
PUBLIC 1631 0 @ILT+1580(?_Get_first@?$_Compressed_pair@U?$_Wrap_alloc@V?$allocator@_W@std@@@std@@V?$_Vector_val@U?$_Simple_types@_W@std@@@2@$00@std@@QBEABU?$_Wrap_alloc@V?$allocator@_W@std@@@2@XZ)
PUBLIC 1636 0 @ILT+1585(?_Get_second@?$_Compressed_pair@U?$_Wrap_alloc@V?$allocator@D@std@@@std@@V?$_String_val@U?$_Simple_types@D@std@@@2@$00@std@@QAEAAV?$_String_val@U?$_Simple_types@D@std@@@2@XZ)
PUBLIC 163b 0 @ILT+1590(??0ExceptionHandler@google_breakpad@@QAE@ABV?$basic_string@_WU?$char_traits@_W@std@@V?$allocator@_W@2@@std@@P6A_NPAXPAU_EXCEPTION_POINTERS@@PAUMDRawAssertionInfo@@@ZP6A_NPB_W5123_N@Z1HW4_MINIDUMP_TYPE@@1PBUCustomClientInfo@1@@Z)
PUBLIC 1640 0 @ILT+1595(?_Orphan_all@?$_Vector_alloc@U?$_Vec_base_types@_WV?$allocator@_W@std@@@std@@@std@@QAEXXZ)
PUBLIC 1645 0 @ILT+1600(?_Myres@?$_String_alloc@U?$_String_base_types@_WV?$allocator@_W@std@@@std@@@std@@QAEAAIXZ)
PUBLIC 164a 0 @ILT+1605(?push_back@?$vector@PAVExceptionHandler@google_breakpad@@V?$allocator@PAVExceptionHandler@google_breakpad@@@std@@@std@@QAEXABQAVExceptionHandler@google_breakpad@@@Z)
PUBLIC 164f 0 @ILT+1610(?_Get_first@?$_Compressed_pair@U?$_Wrap_alloc@V?$allocator@_W@std@@@std@@V?$_String_val@U?$_Simple_types@_W@std@@@2@$00@std@@QAEAAU?$_Wrap_alloc@V?$allocator@_W@std@@@2@XZ)
PUBLIC 1654 0 @ILT+1615(?find_last_of@?$basic_string@_WU?$char_traits@_W@std@@V?$allocator@_W@2@@std@@QBEIPB_WI@Z)
PUBLIC 1659 0 @ILT+1620(?_Myval@?$_List_alloc@U?$_List_base_types@UAppMemory@google_breakpad@@V?$allocator@UAppMemory@google_breakpad@@@std@@@std@@@std@@SAAAUAppMemory@google_breakpad@@PAU?$_List_node@UAppMemory@google_breakpad@@PAX@2@@Z)
PUBLIC 165e 0 @ILT+1625(??$_Unchecked@V?$_List_val@U?$_List_simple_types@UAppMemory@google_breakpad@@@std@@@std@@@std@@YA?AV?$_List_unchecked_iterator@V?$_List_val@U?$_List_simple_types@UAppMemory@google_breakpad@@@std@@@std@@@0@V?$_List_iterator@V?$_List_val@U?$_List_simple_types@UAppMemory@google_breakpad@@@std@@@std@@@0@@Z)
PUBLIC 1663 0 @ILT+1630(??0?$allocator@D@std@@QAE@XZ)
PUBLIC 1668 0 @ILT+1635(?_Destroy@?$vector@_WV?$allocator@_W@std@@@std@@IAEXPA_W0@Z)
PUBLIC 166d 0 @ILT+1640(??0?$_String_val@U?$_Simple_types@_W@std@@@std@@QAE@XZ)
PUBLIC 1672 0 @ILT+1645(?_Xlen@?$vector@_WV?$allocator@_W@std@@@std@@IBEXXZ)
PUBLIC 1677 0 @ILT+1650(?_Get_second@?$_Compressed_pair@U?$_Wrap_alloc@V?$allocator@U?$_List_node@UAppMemory@google_breakpad@@PAX@std@@@std@@@std@@V?$_List_val@U?$_List_simple_types@UAppMemory@google_breakpad@@@std@@@2@$00@std@@QBEABV?$_List_val@U?$_List_simple_types@UAppMemory@google_breakpad@@@std@@@2@XZ)
PUBLIC 167c 0 @ILT+1655(??$_Rechecked@V?$_List_val@U?$_List_simple_types@UAppMemory@google_breakpad@@@std@@@std@@@std@@YAAAV?$_List_iterator@V?$_List_val@U?$_List_simple_types@UAppMemory@google_breakpad@@@std@@@std@@@0@AAV10@V?$_List_unchecked_iterator@V?$_List_val@U?$_List_simple_types@UAppMemory@google_breakpad@@@std@@@std@@@0@@Z)
PUBLIC 1681 0 @ILT+1660(??$?0$$V@?$_Compressed_pair@U?$_Wrap_alloc@V?$allocator@_W@std@@@std@@V?$_String_val@U?$_Simple_types@_W@std@@@2@$00@std@@QAE@U_Zero_then_variadic_args_t@1@@Z)
PUBLIC 1686 0 @ILT+1665(___scrt_set_unhandled_exception_filter)
PUBLIC 168b 0 @ILT+1670(?ConnectToServer@CrashGenerationClient@google_breakpad@@AAEPAXXZ)
PUBLIC 1690 0 @ILT+1675(??1?$_Vector_val@U?$_Simple_types@PAVExceptionHandler@google_breakpad@@@std@@@std@@QAE@XZ)
PUBLIC 1695 0 @ILT+1680(?_Get_second@?$_Compressed_pair@U?$_Wrap_alloc@V?$allocator@_W@std@@@std@@V?$_Vector_val@U?$_Simple_types@_W@std@@@2@$00@std@@QBEABV?$_Vector_val@U?$_Simple_types@_W@std@@@2@XZ)
PUBLIC 169a 0 @ILT+1685(?_Get_data@?$_Vector_alloc@U?$_Vec_base_types@DV?$allocator@D@std@@@std@@@std@@QAEAAV?$_Vector_val@U?$_Simple_types@D@std@@@2@XZ)
PUBLIC 169f 0 @ILT+1690(??1?$_Vector_val@U?$_Simple_types@D@std@@@std@@QAE@XZ)
PUBLIC 16a4 0 @ILT+1695(??0?$_Wrap_alloc@V?$allocator@_W@std@@@std@@QAE@$$QAU01@@Z)
PUBLIC 16a9 0 @ILT+1700(??$?0D@?$allocator@U_Container_proxy@std@@@std@@QAE@ABV?$allocator@D@1@@Z)
PUBLIC 16ae 0 @ILT+1705(??1?$_String_const_iterator@V?$_String_val@U?$_Simple_types@_W@std@@@std@@@std@@QAE@XZ)
PUBLIC 16b3 0 @ILT+1710(?assign@?$basic_string@DU?$char_traits@D@std@@V?$allocator@D@2@@std@@QAEAAV12@PBD@Z)
PUBLIC 16b8 0 @ILT+1715(?get_handler@AutoExceptionHandler@google_breakpad@@QBEPAVExceptionHandler@2@XZ)
PUBLIC 16bd 0 @ILT+1720(___scrt_uninitialize_crt)
PUBLIC 16c2 0 @ILT+1725(___acrt_uninitialize_critical)
PUBLIC 16c7 0 @ILT+1730(??D?$_List_unchecked_iterator@V?$_List_val@U?$_List_simple_types@UAppMemory@google_breakpad@@@std@@@std@@@std@@QBEAAUAppMemory@google_breakpad@@XZ)
PUBLIC 16cc 0 @ILT+1735(?_Get_data@?$_Vector_alloc@U?$_Vec_base_types@PAVExceptionHandler@google_breakpad@@V?$allocator@PAVExceptionHandler@google_breakpad@@@std@@@std@@@std@@QBEABV?$_Vector_val@U?$_Simple_types@PAVExceptionHandler@google_breakpad@@@std@@@2@XZ)
PUBLIC 16d1 0 @ILT+1740(?_Mysize@?$_String_alloc@U?$_String_base_types@DV?$allocator@D@std@@@std@@@std@@QAEAAIXZ)
PUBLIC 16d6 0 @ILT+1745(??8?$_String_const_iterator@V?$_String_val@U?$_Simple_types@_W@std@@@std@@@std@@QBE_NABV01@@Z)
PUBLIC 16db 0 @ILT+1750(?_Mysize@?$_String_alloc@U?$_String_base_types@DV?$allocator@D@std@@@std@@@std@@QBEABIXZ)
PUBLIC 16e0 0 @ILT+1755(?erase@?$vector@PAVExceptionHandler@google_breakpad@@V?$allocator@PAVExceptionHandler@google_breakpad@@@std@@@std@@QAE?AV?$_Vector_iterator@V?$_Vector_val@U?$_Simple_types@PAVExceptionHandler@google_breakpad@@@std@@@std@@@2@V?$_Vector_const_iterator@V?$_Vector_val@U?$_Simple_types@PAVExceptionHandler@google_breakpad@@@std@@@std@@@2@@Z)
PUBLIC 16e5 0 @ILT+1760(??0_Container_proxy@std@@QAE@XZ)
PUBLIC 16ea 0 @ILT+1765(?max_size@?$_Wrap_alloc@V?$allocator@PAVExceptionHandler@google_breakpad@@@std@@@std@@QBEIU_Nil@2@@Z)
PUBLIC 16ef 0 @ILT+1770(___scrt_dllmain_after_initialize_c)
PUBLIC 16f4 0 @ILT+1775(__RTC_Terminate)
PUBLIC 16f9 0 @ILT+1780(??E?$_List_unchecked_iterator@V?$_List_val@U?$_List_simple_types@UAppMemory@google_breakpad@@@std@@@std@@@std@@QAEAAV01@XZ)
PUBLIC 16fe 0 @ILT+1785(??$forward@AAPAU?$_List_node@UAppMemory@google_breakpad@@PAX@std@@@std@@YAAAPAU?$_List_node@UAppMemory@google_breakpad@@PAX@0@AAPAU10@@Z)
PUBLIC 1703 0 @ILT+1790(??1?$vector@PAVExceptionHandler@google_breakpad@@V?$allocator@PAVExceptionHandler@google_breakpad@@@std@@@std@@QAE@XZ)
PUBLIC 1708 0 @ILT+1795(??1?$_Iterator012@Urandom_access_iterator_tag@std@@_WHPB_WAB_WU_Iterator_base12@2@@std@@QAE@XZ)
PUBLIC 170d 0 @ILT+1800(??0bad_array_new_length@std@@QAE@XZ)
PUBLIC 1712 0 @ILT+1805(??0?$_String_const_iterator@V?$_String_val@U?$_Simple_types@_W@std@@@std@@@std@@QAE@PB_WPBU_Container_base12@1@@Z)
PUBLIC 1717 0 @ILT+1810(??$_Uninitialized_default_fill_n@PADIV?$allocator@D@std@@@std@@YAXPADIAAU?$_Wrap_alloc@V?$allocator@D@std@@@0@@Z)
PUBLIC 171c 0 @ILT+1815(?_Mylast@?$_Vector_alloc@U?$_Vec_base_types@_WV?$allocator@_W@std@@@std@@@std@@QAEAAPA_WXZ)
PUBLIC 1721 0 @ILT+1820(??0?$_List_unchecked_const_iterator@V?$_List_val@U?$_List_simple_types@UAppMemory@google_breakpad@@@std@@@std@@U_Iterator_base12@2@@std@@QAE@$$QAV01@@Z)
PUBLIC 1726 0 @ILT+1825(??_Ebad_alloc@std@@UAEPAXI@Z)
PUBLIC 172b 0 @ILT+1830(?_Mysize@?$_String_alloc@U?$_String_base_types@_WV?$allocator@_W@std@@@std@@@std@@QAEAAIXZ)
PUBLIC 1730 0 @ILT+1835(?_Mysize@?$_String_alloc@U?$_String_base_types@_WV?$allocator@_W@std@@@std@@@std@@QBEABIXZ)
PUBLIC 1735 0 @ILT+1840(??0?$allocator@_W@std@@QAE@XZ)
PUBLIC 173a 0 @ILT+1845(?_Getpfirst@?$_Vector_alloc@U?$_Vec_base_types@PAVExceptionHandler@google_breakpad@@V?$allocator@PAVExceptionHandler@google_breakpad@@@std@@@std@@@std@@QBEPAPAU_Iterator_base12@2@XZ)
PUBLIC 173f 0 @ILT+1850(__initialize_invalid_parameter_handler)
PUBLIC 1744 0 @ILT+1855(?allocate@?$allocator@PAVExceptionHandler@google_breakpad@@@std@@QAEPAPAVExceptionHandler@google_breakpad@@I@Z)
PUBLIC 1749 0 @ILT+1860(?_Myproxy@?$_Vector_alloc@U?$_Vec_base_types@PAVExceptionHandler@google_breakpad@@V?$allocator@PAVExceptionHandler@google_breakpad@@@std@@@std@@@std@@QAEAAPAU_Container_proxy@2@XZ)
PUBLIC 174e 0 @ILT+1865(??$_Unfancy@D@std@@YAPADPAD@Z)
PUBLIC 1753 0 @ILT+1870(?_Get_data@?$_String_alloc@U?$_String_base_types@DV?$allocator@D@std@@@std@@@std@@QBEABV?$_String_val@U?$_Simple_types@D@std@@@2@XZ)
PUBLIC 1758 0 @ILT+1875(??$construct@U_Container_proxy@std@@U12@@?$allocator_traits@V?$allocator@U_Container_proxy@std@@@std@@@std@@SAXAAV?$allocator@U_Container_proxy@std@@@1@PAU_Container_proxy@1@$$QAU31@@Z)
PUBLIC 175d 0 @ILT+1880(??$destroy@PAVExceptionHandler@google_breakpad@@@?$allocator@PAVExceptionHandler@google_breakpad@@@std@@QAEXPAPAVExceptionHandler@google_breakpad@@@Z)
PUBLIC 1762 0 @ILT+1885(??0?$_List_unchecked_const_iterator@V?$_List_val@U?$_List_simple_types@UAppMemory@google_breakpad@@@std@@@std@@U_Iterator_base0@2@@std@@QAE@PAU?$_List_node@UAppMemory@google_breakpad@@PAX@1@PBV?$_List_val@U?$_List_simple_types@UAppMemory@google_breakpad@@@std@@@1@@Z)
PUBLIC 1767 0 @ILT+1890(??$addressof@PAD@std@@YAPAPADAAPAD@Z)
PUBLIC 176c 0 @ILT+1895(??0?$_List_unchecked_iterator@V?$_List_val@U?$_List_simple_types@UAppMemory@google_breakpad@@@std@@@std@@@std@@QAE@PAU?$_List_node@UAppMemory@google_breakpad@@PAX@1@PBV?$_List_val@U?$_List_simple_types@UAppMemory@google_breakpad@@@std@@@1@@Z)
PUBLIC 1771 0 @ILT+1900(??$max@_K@std@@YAAB_KAB_K0@Z)
PUBLIC 1776 0 @ILT+1905(??1type_info@@UAE@XZ)
PUBLIC 177b 0 @ILT+1910(??$addressof@PAU?$_List_node@UAppMemory@google_breakpad@@PAX@std@@@std@@YAPAPAU?$_List_node@UAppMemory@google_breakpad@@PAX@0@AAPAU10@@Z)
PUBLIC 1780 0 @ILT+1915(__matherr)
PUBLIC 1785 0 @ILT+1920(?_Myptr@?$_String_alloc@U?$_String_base_types@DV?$allocator@D@std@@@std@@@std@@QBEPBDXZ)
PUBLIC 178a 0 @ILT+1925(??4?$_Iterator012@Ubidirectional_iterator_tag@std@@UAppMemory@google_breakpad@@HPBU34@ABU34@U_Iterator_base12@2@@std@@QAEAAU01@$$QAU01@@Z)
PUBLIC 178f 0 @ILT+1930(__vfprintf_l)
PUBLIC 1794 0 @ILT+1935(??$forward@AAU?$_Wrap_alloc@V?$allocator@PAVExceptionHandler@google_breakpad@@@std@@@std@@@std@@YAAAU?$_Wrap_alloc@V?$allocator@PAVExceptionHandler@google_breakpad@@@std@@@0@AAU10@@Z)
PUBLIC 1799 0 @ILT+1940(??1?$_String_alloc@U?$_String_base_types@_WV?$allocator@_W@std@@@std@@@std@@QAE@XZ)
PUBLIC 179e 0 @ILT+1945(?__crt_rotate_pointer_value@@YAIIH@Z)
PUBLIC 17a3 0 @ILT+1950(?_Mylast@?$_Vector_alloc@U?$_Vec_base_types@PAVExceptionHandler@google_breakpad@@V?$allocator@PAVExceptionHandler@google_breakpad@@@std@@@std@@@std@@QAEAAPAPAVExceptionHandler@google_breakpad@@XZ)
PUBLIC 17a8 0 @ILT+1955(?_Unlinknode@?$list@UAppMemory@google_breakpad@@V?$allocator@UAppMemory@google_breakpad@@@std@@@std@@QAEPAU?$_List_node@UAppMemory@google_breakpad@@PAX@2@V?$_List_const_iterator@V?$_List_val@U?$_List_simple_types@UAppMemory@google_breakpad@@@std@@@std@@@2@@Z)
PUBLIC 17ad 0 @ILT+1960(?erase@?$basic_string@_WU?$char_traits@_W@std@@V?$allocator@_W@2@@std@@QAEAAV12@II@Z)
PUBLIC 17b2 0 @ILT+1965(___acrt_thread_attach)
PUBLIC 17b7 0 @ILT+1970(?select_on_container_copy_construction@?$allocator_traits@V?$allocator@_W@std@@@std@@SA?AV?$allocator@_W@2@ABV32@@Z)
PUBLIC 17bc 0 @ILT+1975(?_Get_data@?$_String_alloc@U?$_String_base_types@_WV?$allocator@_W@std@@@std@@@std@@QAEAAV?$_String_val@U?$_Simple_types@_W@std@@@2@XZ)
PUBLIC 17c1 0 @ILT+1980(?_Prevnode@?$_List_val@U?$_List_simple_types@UAppMemory@google_breakpad@@@std@@@std@@SAAAPAU?$_List_node@UAppMemory@google_breakpad@@PAX@2@PAU32@@Z)
PUBLIC 17c6 0 @ILT+1985(??0?$allocator@PAVExceptionHandler@google_breakpad@@@std@@QAE@XZ)
PUBLIC 17cb 0 @ILT+1990(__get_startup_new_mode)
PUBLIC 17d0 0 @ILT+1995(??0?$_List_alloc@U?$_List_base_types@UAppMemory@google_breakpad@@V?$allocator@UAppMemory@google_breakpad@@@std@@@std@@@std@@QAE@XZ)
PUBLIC 17d5 0 @ILT+2000(??$?0V?$allocator@_W@std@@@?$_Wrap_alloc@V?$allocator@_W@std@@@std@@QAE@$$QAV?$allocator@_W@1@@Z)
PUBLIC 17da 0 @ILT+2005(??$forward@AAPAD@std@@YAAAPADAAPAD@Z)
PUBLIC 17df 0 @ILT+2010(??D?$_List_unchecked_const_iterator@V?$_List_val@U?$_List_simple_types@UAppMemory@google_breakpad@@@std@@@std@@U_Iterator_base12@2@@std@@QBEABUAppMemory@google_breakpad@@XZ)
PUBLIC 17e4 0 @ILT+2015(___acrt_thread_detach)
PUBLIC 17e9 0 @ILT+2020(?WriteMinidumpForException@ExceptionHandler@google_breakpad@@QAE_NPAU_EXCEPTION_POINTERS@@@Z)
PUBLIC 17ee 0 @ILT+2025(??D?$_List_unchecked_const_iterator@V?$_List_val@U?$_List_simple_types@UAppMemory@google_breakpad@@@std@@@std@@U_Iterator_base0@2@@std@@QBEABUAppMemory@google_breakpad@@XZ)
PUBLIC 17f3 0 @ILT+2030(??$_Destroy_range@V?$allocator@_W@std@@PA_W@std@@YAXPA_W0AAU?$_Wrap_alloc@V?$allocator@_W@std@@@0@@Z)
PUBLIC 17f8 0 @ILT+2035(??$destroy@PAVExceptionHandler@google_breakpad@@@?$_Wrap_alloc@V?$allocator@PAVExceptionHandler@google_breakpad@@@std@@@std@@QAEXPAPAVExceptionHandler@google_breakpad@@@Z)
PUBLIC 17fd 0 @ILT+2040(??0?$_Iterator012@Urandom_access_iterator_tag@std@@_WHPB_WAB_WU_Iterator_base12@2@@std@@QAE@XZ)
PUBLIC 1802 0 @ILT+2045(??$forward@U_Container_proxy@std@@@std@@YA$$QAU_Container_proxy@0@AAU10@@Z)
PUBLIC 1807 0 @ILT+2050(?size@?$vector@PAVExceptionHandler@google_breakpad@@V?$allocator@PAVExceptionHandler@google_breakpad@@@std@@@std@@QBEIXZ)
PUBLIC 180c 0 @ILT+2055(?max_size@?$allocator_traits@V?$allocator@U?$_List_node@UAppMemory@google_breakpad@@PAX@std@@@std@@@std@@SAIABV?$allocator@U?$_List_node@UAppMemory@google_breakpad@@PAX@std@@@2@@Z)
PUBLIC 1811 0 @ILT+2060(___raise_securityfailure)
PUBLIC 1816 0 @ILT+2065(?_Alloc_proxy@?$_String_alloc@U?$_String_base_types@_WV?$allocator@_W@std@@@std@@@std@@QAEXXZ)
PUBLIC 181b 0 @ILT+2070(___report_securityfailureEx)
PUBLIC 1820 0 @ILT+2075(??E?$_List_const_iterator@V?$_List_val@U?$_List_simple_types@UAppMemory@google_breakpad@@@std@@@std@@@std@@QAE?AV01@H@Z)
PUBLIC 1825 0 @ILT+2080(??$?0U?$_List_node@UAppMemory@google_breakpad@@PAX@std@@@?$allocator@U_Container_proxy@std@@@std@@QAE@ABV?$allocator@U?$_List_node@UAppMemory@google_breakpad@@PAX@std@@@1@@Z)
PUBLIC 182a 0 @ILT+2085(??$__vcrt_va_start_verify_argument_type@QBD@@YAXXZ)
PUBLIC 182f 0 @ILT+2090(__initialize_denormal_control)
PUBLIC 1834 0 @ILT+2095(??$construct@U_Container_proxy@std@@U12@@?$allocator@U_Container_proxy@std@@@std@@QAEXPAU_Container_proxy@1@$$QAU21@@Z)
PUBLIC 1839 0 @ILT+2100(??1_Container_base12@std@@QAE@XZ)
PUBLIC 183e 0 @ILT+2105(??0ProtocolMessage@google_breakpad@@QAE@W4MessageTag@1@KW4_MINIDUMP_TYPE@@PAKPAPAU_EXCEPTION_POINTERS@@PAUMDRawAssertionInfo@@ABUCustomClientInfo@1@PAX66@Z)
PUBLIC 1843 0 @ILT+2110(?max_size@?$allocator@D@std@@QBEIXZ)
PUBLIC 1848 0 @ILT+2115(?c_str@?$basic_string@DU?$char_traits@D@std@@V?$allocator@D@2@@std@@QBEPBDXZ)
PUBLIC 184d 0 @ILT+2120(?Initialize@ExceptionHandler@google_breakpad@@AAEXABV?$basic_string@_WU?$char_traits@_W@std@@V?$allocator@_W@2@@std@@P6A_NPAXPAU_EXCEPTION_POINTERS@@PAUMDRawAssertionInfo@@@ZP6A_NPB_W5123_N@Z1HW4_MINIDUMP_TYPE@@51PAVCrashGenerationClient@2@PBUCustomClientInfo@2@@Z)
PUBLIC 1852 0 @ILT+2125(?max_size@?$vector@_WV?$allocator@_W@std@@@std@@QBEIXZ)
PUBLIC 1857 0 @ILT+2130(??$destroy@U_Container_proxy@std@@@?$_Wrap_alloc@V?$allocator@U_Container_proxy@std@@@std@@@std@@QAEXPAU_Container_proxy@1@@Z)
PUBLIC 185c 0 @ILT+2135(?end@?$vector@PAVExceptionHandler@google_breakpad@@V?$allocator@PAVExceptionHandler@google_breakpad@@@std@@@std@@QAE?AV?$_Vector_iterator@V?$_Vector_val@U?$_Simple_types@PAVExceptionHandler@google_breakpad@@@std@@@std@@@2@XZ)
PUBLIC 1861 0 @ILT+2140(??$_Unfancy@_W@std@@YAPA_WPA_W@Z)
PUBLIC 1866 0 @ILT+2145(??$_Ptr_move_cat@PAVExceptionHandler@google_breakpad@@PAV12@@std@@YA?AU_Really_trivial_ptr_iterator_tag@0@ABQAPAVExceptionHandler@google_breakpad@@0@Z)
PUBLIC 186b 0 @ILT+2150(?max_size@?$_Wrap_alloc@V?$allocator@D@std@@@std@@QBEIU_Nil@2@@Z)
PUBLIC 1870 0 @ILT+2155(??1?$_Vector_alloc@U?$_Vec_base_types@_WV?$allocator@_W@std@@@std@@@std@@QAE@XZ)
PUBLIC 1875 0 @ILT+2160(?ValidateResponse@CrashGenerationClient@google_breakpad@@ABE_NABUProtocolMessage@2@@Z)
PUBLIC 187a 0 @ILT+2165(__guard_icall_checks_enforced)
PUBLIC 187f 0 @ILT+2170(?_Clamp_suffix_size@?$basic_string@_WU?$char_traits@_W@std@@V?$allocator@_W@2@@std@@QBEIII@Z)
PUBLIC 1884 0 @ILT+2175(?DuplicatePipeToClientProcess@CrashGenerationClient@google_breakpad@@SAPAXPB_WPAX@Z)
PUBLIC 1889 0 @ILT+2180(??0?$basic_string@_WU?$char_traits@_W@std@@V?$allocator@_W@2@@std@@QAE@ABV01@@Z)
PUBLIC 188e 0 @ILT+2185(??$construct@UAppMemory@google_breakpad@@ABU12@@?$_Wrap_alloc@V?$allocator@U?$_List_node@UAppMemory@google_breakpad@@PAX@std@@@std@@@std@@QAEXPAUAppMemory@google_breakpad@@ABU23@@Z)
PUBLIC 1893 0 @ILT+2190(??0exception@std@@QAE@QBDH@Z)
PUBLIC 1898 0 @ILT+2195(?_Eos@?$basic_string@DU?$char_traits@D@std@@V?$allocator@D@2@@std@@QAEXI@Z)
PUBLIC 189d 0 @ILT+2200(___local_stdio_scanf_options)
PUBLIC 18a2 0 @ILT+2205(?_Adopt@_Iterator_base0@std@@QAEXPBX@Z)
PUBLIC 18a7 0 @ILT+2210(___security_init_cookie)
PUBLIC 18ac 0 @ILT+2215(?address@?$_Wrap_alloc@V?$allocator@U_Container_proxy@std@@@std@@@std@@QBEPAU_Container_proxy@2@AAU32@@Z)
PUBLIC 18b1 0 @ILT+2220(?_Getal@?$_String_alloc@U?$_String_base_types@_WV?$allocator@_W@std@@@std@@@std@@QBEABU?$_Wrap_alloc@V?$allocator@_W@std@@@2@XZ)
PUBLIC 18b6 0 @ILT+2225(___acrt_uninitialize)
PUBLIC 18bb 0 @ILT+2230(??$?0U?$_Wrap_alloc@V?$allocator@_W@std@@@std@@$$V@?$_Compressed_pair@U?$_Wrap_alloc@V?$allocator@_W@std@@@std@@V?$_String_val@U?$_Simple_types@_W@std@@@2@$00@std@@QAE@U_One_then_variadic_args_t@1@$$QAU?$_Wrap_alloc@V?$allocator@_W@std@@@1@@Z)
PUBLIC 18c0 0 @ILT+2235(?_Get_data@?$_String_alloc@U?$_String_base_types@DV?$allocator@D@std@@@std@@@std@@QAEAAV?$_String_val@U?$_Simple_types@D@std@@@2@XZ)
PUBLIC 18c5 0 @ILT+2240(??_Eexception@std@@UAEPAXI@Z)
PUBLIC 18ca 0 @ILT+2245(?crash@@YAXXZ)
PUBLIC 18cf 0 @ILT+2250(?move@?$char_traits@D@std@@SAPADPADPBDI@Z)
PUBLIC 18d4 0 @ILT+2255(?__scrt_initialize_type_info@@YAXXZ)
PUBLIC 18d9 0 @ILT+2260(?begin@?$list@UAppMemory@google_breakpad@@V?$allocator@UAppMemory@google_breakpad@@@std@@@std@@QAE?AV?$_List_iterator@V?$_List_val@U?$_List_simple_types@UAppMemory@google_breakpad@@@std@@@std@@@2@XZ)
PUBLIC 18de 0 @ILT+2265(?_Orphan_ptr@?$list@UAppMemory@google_breakpad@@V?$allocator@UAppMemory@google_breakpad@@@std@@@std@@QAEXPAU?$_List_node@UAppMemory@google_breakpad@@PAX@2@@Z)
PUBLIC 18e3 0 @ILT+2270(??1?$vector@DV?$allocator@D@std@@@std@@QAE@XZ)
PUBLIC 18e8 0 @ILT+2275(?_Get_first@?$_Compressed_pair@U?$_Wrap_alloc@V?$allocator@D@std@@@std@@V?$_Vector_val@U?$_Simple_types@D@std@@@2@$00@std@@QAEAAU?$_Wrap_alloc@V?$allocator@D@std@@@2@XZ)
PUBLIC 18ed 0 @ILT+2280(?__scrt_uninitialize_type_info@@YAXXZ)
PUBLIC 18f2 0 @ILT+2285(??8?$_Vector_const_iterator@V?$_Vector_val@U?$_Simple_types@PAVExceptionHandler@google_breakpad@@@std@@@std@@@std@@QBE_NABV01@@Z)
PUBLIC 18f7 0 @ILT+2290(??$destroy@U_Container_proxy@std@@@?$allocator@U_Container_proxy@std@@@std@@QAEXPAU_Container_proxy@1@@Z)
PUBLIC 18fc 0 @ILT+2295(??0?$_List_const_iterator@V?$_List_val@U?$_List_simple_types@UAppMemory@google_breakpad@@@std@@@std@@@std@@QAE@XZ)
PUBLIC 1901 0 @ILT+2300(___acrt_initialize)
PUBLIC 1906 0 @ILT+2305(___scrt_initialize_onexit_tables)
PUBLIC 190b 0 @ILT+2310(??$construct@PA_WAAPA_W@?$allocator_traits@V?$allocator@_W@std@@@std@@SAXAAV?$allocator@_W@1@PAPA_WAAPA_W@Z)
PUBLIC 1910 0 @ILT+2315(?_Myfirst@?$_Vector_alloc@U?$_Vec_base_types@_WV?$allocator@_W@std@@@std@@@std@@QAEAAPA_WXZ)
PUBLIC 1915 0 @ILT+2320(___scrt_dllmain_exception_filter)
PUBLIC 191a 0 @ILT+2325(??0?$_Vector_val@U?$_Simple_types@_W@std@@@std@@QAE@XZ)
PUBLIC 191f 0 @ILT+2330(??0?$_Iterator012@Ubidirectional_iterator_tag@std@@UAppMemory@google_breakpad@@HPBU34@ABU34@U_Iterator_base12@2@@std@@QAE@ABU01@@Z)
PUBLIC 1924 0 @ILT+2335(?WriteMinidump@ExceptionHandler@google_breakpad@@QAE_NXZ)
PUBLIC 1929 0 @ILT+2340(??0?$_Iterator012@Ubidirectional_iterator_tag@std@@UAppMemory@google_breakpad@@HPBU34@ABU34@U_Iterator_base12@2@@std@@QAE@$$QAU01@@Z)
PUBLIC 192e 0 @ILT+2345(??0?$_List_const_iterator@V?$_List_val@U?$_List_simple_types@UAppMemory@google_breakpad@@@std@@@std@@@std@@QAE@ABV01@@Z)
PUBLIC 1933 0 @ILT+2350(?__empty_global_delete@@YAXPAX@Z)
PUBLIC 1938 0 @ILT+2355(??_Etype_info@@UAEPAXI@Z)
PUBLIC 193d 0 @ILT+2360(??$_Destroy_range1@V?$allocator@PAVExceptionHandler@google_breakpad@@@std@@PAPAVExceptionHandler@google_breakpad@@@std@@YAXPAPAVExceptionHandler@google_breakpad@@0AAU?$_Wrap_alloc@V?$allocator@PAVExceptionHandler@google_breakpad@@@std@@@0@U?$integral_constant@_N$00@0@@Z)
PUBLIC 1942 0 @ILT+2365(?_Grow_to@?$vector@PAVExceptionHandler@google_breakpad@@V?$allocator@PAVExceptionHandler@google_breakpad@@@std@@@std@@IBEII@Z)
PUBLIC 1947 0 @ILT+2370(?deallocate@?$_Wrap_alloc@V?$allocator@D@std@@@std@@QAEXPADI@Z)
PUBLIC 194c 0 @ILT+2375(?_Check_offset@?$basic_string@_WU?$char_traits@_W@std@@V?$allocator@_W@2@@std@@QBEXI@Z)
PUBLIC 1951 0 @ILT+2380(?end@?$list@UAppMemory@google_breakpad@@V?$allocator@UAppMemory@google_breakpad@@@std@@@std@@QAE?AV?$_List_iterator@V?$_List_val@U?$_List_simple_types@UAppMemory@google_breakpad@@@std@@@std@@@2@XZ)
PUBLIC 1956 0 @ILT+2385(?capacity@?$vector@PAVExceptionHandler@google_breakpad@@V?$allocator@PAVExceptionHandler@google_breakpad@@@std@@@std@@QBEIXZ)
PUBLIC 195b 0 @ILT+2390(??0?$list@UAppMemory@google_breakpad@@V?$allocator@UAppMemory@google_breakpad@@@std@@@std@@QAE@XZ)
PUBLIC 1960 0 @ILT+2395(??D?$_List_iterator@V?$_List_val@U?$_List_simple_types@UAppMemory@google_breakpad@@@std@@@std@@@std@@QBEAAUAppMemory@google_breakpad@@XZ)
PUBLIC 1965 0 @ILT+2400(??$_Buynode@ABUAppMemory@google_breakpad@@@?$_List_buy@UAppMemory@google_breakpad@@V?$allocator@UAppMemory@google_breakpad@@@std@@@std@@QAEPAU?$_List_node@UAppMemory@google_breakpad@@PAX@1@PAU21@0ABUAppMemory@google_breakpad@@@Z)
PUBLIC 196a 0 @ILT+2405(?_Free_proxy@?$_Vector_alloc@U?$_Vec_base_types@_WV?$allocator@_W@std@@@std@@@std@@QAEXXZ)
PUBLIC 196f 0 @ILT+2410(??$destroy@PAD@?$allocator_traits@V?$allocator@D@std@@@std@@SAXAAV?$allocator@D@1@PAPAD@Z)
PUBLIC 1974 0 @ILT+2415(??$destroy@UAppMemory@google_breakpad@@@?$allocator_traits@V?$allocator@U?$_List_node@UAppMemory@google_breakpad@@PAX@std@@@std@@@std@@SAXAAV?$allocator@U?$_List_node@UAppMemory@google_breakpad@@PAX@std@@@1@PAUAppMemory@google_breakpad@@@Z)
PUBLIC 1979 0 @ILT+2420(??0?$_List_unchecked_const_iterator@V?$_List_val@U?$_List_simple_types@UAppMemory@google_breakpad@@@std@@@std@@U_Iterator_base12@2@@std@@QAE@PAU?$_List_node@UAppMemory@google_breakpad@@PAX@1@PBV?$_List_val@U?$_List_simple_types@UAppMemory@google_breakpad@@@std@@@1@@Z)
PUBLIC 197e 0 @ILT+2425(??$_Unfancy@$$CB_W@std@@YAPB_WPB_W@Z)
PUBLIC 1983 0 @ILT+2430(?WriteMinidumpWithException@ExceptionHandler@google_breakpad@@AAE_NKPAU_EXCEPTION_POINTERS@@PAUMDRawAssertionInfo@@@Z)
PUBLIC 1988 0 @ILT+2435(??8?$_List_const_iterator@V?$_List_val@U?$_List_simple_types@UAppMemory@google_breakpad@@@std@@@std@@@std@@QBE_NABV01@@Z)
PUBLIC 198d 0 @ILT+2440(?WriteMinidumpWithExceptionForProcess@ExceptionHandler@google_breakpad@@AAE_NKPAU_EXCEPTION_POINTERS@@PAUMDRawAssertionInfo@@PAX_N@Z)
PUBLIC 1992 0 @ILT+2445(?_Myfirst@?$_Vector_alloc@U?$_Vec_base_types@DV?$allocator@D@std@@@std@@@std@@QAEAAPADXZ)
PUBLIC 1997 0 @ILT+2450(?size@?$vector@_WV?$allocator@_W@std@@@std@@QBEIXZ)
PUBLIC 199c 0 @ILT+2455(??$_Uninitialized_move_al_unchecked1@PAVExceptionHandler@google_breakpad@@PAV12@V?$allocator@PAVExceptionHandler@google_breakpad@@@std@@@std@@YAPAPAVExceptionHandler@google_breakpad@@PAPAV12@00AAU?$_Wrap_alloc@V?$allocator@PAVExceptionHandler@google_breakpad@@@std@@@0@U_Really_trivial_ptr_iterator_tag@0@U?$integral_constant@_N$00@0@@Z)
PUBLIC 19a1 0 @ILT+2460(??A?$vector@_WV?$allocator@_W@std@@@std@@QAEAA_WI@Z)
PUBLIC 19a6 0 @ILT+2465(??1?$_List_alloc@U?$_List_base_types@UAppMemory@google_breakpad@@V?$allocator@UAppMemory@google_breakpad@@@std@@@std@@@std@@QAE@XZ)
PUBLIC 19ab 0 @ILT+2470(??C?$scoped_ptr@VCrashGenerationClient@google_breakpad@@@google_breakpad@@QBEPAVCrashGenerationClient@1@XZ)
PUBLIC 19b0 0 @ILT+2475(??E?$_List_const_iterator@V?$_List_val@U?$_List_simple_types@UAppMemory@google_breakpad@@@std@@@std@@@std@@QAEAAV01@XZ)
PUBLIC 19b5 0 @ILT+2480(??0?$_List_unchecked_const_iterator@V?$_List_val@U?$_List_simple_types@UAppMemory@google_breakpad@@@std@@@std@@U_Iterator_base12@2@@std@@QAE@XZ)
PUBLIC 19ba 0 @ILT+2485(??1?$_Iterator012@Urandom_access_iterator_tag@std@@PAVExceptionHandler@google_breakpad@@HPBQAV34@ABQAV34@U_Iterator_base12@2@@std@@QAE@XZ)
PUBLIC 19bf 0 @ILT+2490(___scrt_initialize_default_local_stdio_options)
PUBLIC 19c4 0 @ILT+2495(??0?$_List_const_iterator@V?$_List_val@U?$_List_simple_types@UAppMemory@google_breakpad@@@std@@@std@@@std@@QAE@$$QAV01@@Z)
PUBLIC 19c9 0 @ILT+2500(?configure_argv@__scrt_narrow_argv_policy@@SAHXZ)
PUBLIC 19ce 0 @ILT+2505(?_Get_second@?$_Compressed_pair@U?$_Wrap_alloc@V?$allocator@D@std@@@std@@V?$_Vector_val@U?$_Simple_types@D@std@@@2@$00@std@@QAEAAV?$_Vector_val@U?$_Simple_types@D@std@@@2@XZ)
PUBLIC 19d3 0 @ILT+2510(??2@YAPAXI@Z)
PUBLIC 19d8 0 @ILT+2515(?_Getal@?$_String_alloc@U?$_String_base_types@DV?$allocator@D@std@@@std@@@std@@QBEABU?$_Wrap_alloc@V?$allocator@D@std@@@2@XZ)
PUBLIC 19dd 0 @ILT+2520(_fprintf)
PUBLIC 19e2 0 @ILT+2525(??$construct@PAVExceptionHandler@google_breakpad@@ABQAV12@@?$_Wrap_alloc@V?$allocator@PAVExceptionHandler@google_breakpad@@@std@@@std@@QAEXPAPAVExceptionHandler@google_breakpad@@ABQAV23@@Z)
PUBLIC 19e7 0 @ILT+2530(?_Get_second@?$_Compressed_pair@U?$_Wrap_alloc@V?$allocator@PAVExceptionHandler@google_breakpad@@@std@@@std@@V?$_Vector_val@U?$_Simple_types@PAVExceptionHandler@google_breakpad@@@std@@@2@$00@std@@QBEABV?$_Vector_val@U?$_Simple_types@PAVExceptionHandler@google_breakpad@@@std@@@2@XZ)
PUBLIC 19ec 0 @ILT+2535(??0ProtocolMessage@google_breakpad@@QAE@XZ)
PUBLIC 19f1 0 @ILT+2540(__onexit)
PUBLIC 19f6 0 @ILT+2545(??0?$_String_alloc@U?$_String_base_types@_WV?$allocator@_W@std@@@std@@@std@@QAE@XZ)
PUBLIC 19fb 0 @ILT+2550(?replace@?$basic_string@_WU?$char_traits@_W@std@@V?$allocator@_W@2@@std@@QAEAAV12@V?$_String_const_iterator@V?$_String_val@U?$_Simple_types@_W@std@@@std@@@2@0V?$_String_iterator@V?$_String_val@U?$_Simple_types@_W@std@@@std@@@2@1@Z)
PUBLIC 1a00 0 @ILT+2555(?deallocate@?$allocator@D@std@@QAEXPADI@Z)
PUBLIC 1a05 0 @ILT+2560(?_Getal@?$_Vector_alloc@U?$_Vec_base_types@PAVExceptionHandler@google_breakpad@@V?$allocator@PAVExceptionHandler@google_breakpad@@@std@@@std@@@std@@QBEABU?$_Wrap_alloc@V?$allocator@PAVExceptionHandler@google_breakpad@@@std@@@2@XZ)
PUBLIC 1a0a 0 @ILT+2565(??$destroy@PAU?$_List_node@UAppMemory@google_breakpad@@PAX@std@@@?$_Wrap_alloc@V?$allocator@U?$_List_node@UAppMemory@google_breakpad@@PAX@std@@@std@@@std@@QAEXPAPAU?$_List_node@UAppMemory@google_breakpad@@PAX@1@@Z)
PUBLIC 1a0f 0 @ILT+2570(??0_Container_base12@std@@QAE@XZ)
PUBLIC 1a14 0 @ILT+2575(?pointer_to@?$pointer_traits@PBUAppMemory@google_breakpad@@@std@@SAPBUAppMemory@google_breakpad@@ABU34@@Z)
PUBLIC 1a19 0 @ILT+2580(??0?$vector@DV?$allocator@D@std@@@std@@QAE@I@Z)
PUBLIC 1a1e 0 @ILT+2585(??1_Iterator_base12@std@@QAE@XZ)
PUBLIC 1a23 0 @ILT+2590(?assign@?$basic_string@_WU?$char_traits@_W@std@@V?$allocator@_W@2@@std@@QAEAAV12@PB_WI@Z)
PUBLIC 1a28 0 @ILT+2595(?erase@?$list@UAppMemory@google_breakpad@@V?$allocator@UAppMemory@google_breakpad@@@std@@@std@@QAE?AV?$_List_iterator@V?$_List_val@U?$_List_simple_types@UAppMemory@google_breakpad@@@std@@@std@@@2@V?$_List_const_iterator@V?$_List_val@U?$_List_simple_types@UAppMemory@google_breakpad@@@std@@@std@@@2@@Z)
PUBLIC 1a2d 0 @ILT+2600(___scrt_dllmain_uninitialize_c)
PUBLIC 1a32 0 @ILT+2605(??_Ebad_array_new_length@std@@UAEPAXI@Z)
PUBLIC 1a37 0 @ILT+2610(??4?$basic_string@_WU?$char_traits@_W@std@@V?$allocator@_W@2@@std@@QAEAAV01@ABV01@@Z)
PUBLIC 1a3c 0 @ILT+2615(??1?$_Iterator012@Ubidirectional_iterator_tag@std@@UAppMemory@google_breakpad@@HPBU34@ABU34@U_Iterator_base12@2@@std@@QAE@XZ)
PUBLIC 1a41 0 @ILT+2620(??$?0_W@?$allocator@U_Container_proxy@std@@@std@@QAE@ABV?$allocator@_W@1@@Z)
PUBLIC 1a46 0 @ILT+2625(?deallocate@?$allocator@U?$_List_node@UAppMemory@google_breakpad@@PAX@std@@@std@@QAEXPAU?$_List_node@UAppMemory@google_breakpad@@PAX@2@I@Z)
PUBLIC 1a4b 0 @ILT+2630(??0?$_List_buy@UAppMemory@google_breakpad@@V?$allocator@UAppMemory@google_breakpad@@@std@@@std@@QAE@XZ)
PUBLIC 1a50 0 @ILT+2635(??$construct@PADAAPAD@?$allocator@D@std@@QAEXPAPADAAPAD@Z)
PUBLIC 1a55 0 @ILT+2640(?_Alloc_proxy@?$_List_alloc@U?$_List_base_types@UAppMemory@google_breakpad@@V?$allocator@UAppMemory@google_breakpad@@@std@@@std@@@std@@QAEXXZ)
PUBLIC 1a5a 0 @ILT+2645(?replace@?$basic_string@_WU?$char_traits@_W@std@@V?$allocator@_W@2@@std@@QAEAAV12@IIPB_WI@Z)
PUBLIC 1a5f 0 @ILT+2650(?_Getal@?$_String_alloc@U?$_String_base_types@_WV?$allocator@_W@std@@@std@@@std@@QAEAAU?$_Wrap_alloc@V?$allocator@_W@std@@@2@XZ)
PUBLIC 1a64 0 @ILT+2655(??$min@_K@std@@YAAB_KAB_K0@Z)
PUBLIC 1a69 0 @ILT+2660(@__security_check_cookie@4)
PUBLIC 1a6e 0 @ILT+2665(??0?$_Vector_const_iterator@V?$_Vector_val@U?$_Simple_types@PAVExceptionHandler@google_breakpad@@@std@@@std@@@std@@QAE@ABV01@@Z)
PUBLIC 1a73 0 @ILT+2670(___scrt_get_dyn_tls_init_callback)
PUBLIC 1a78 0 @ILT+2675(?_Destroy@?$vector@DV?$allocator@D@std@@@std@@IAEXPAD0@Z)
PUBLIC 1a7d 0 @ILT+2680(??1?$_List_buy@UAppMemory@google_breakpad@@V?$allocator@UAppMemory@google_breakpad@@@std@@@std@@QAE@XZ)
PUBLIC 1a82 0 @ILT+2685(?_Myend@?$_Vector_alloc@U?$_Vec_base_types@_WV?$allocator@_W@std@@@std@@@std@@QAEAAPA_WXZ)
PUBLIC 1a87 0 @ILT+2690(??1?$_Vector_alloc@U?$_Vec_base_types@DV?$allocator@D@std@@@std@@@std@@QAE@XZ)
PUBLIC 1a8c 0 @ILT+2695(?_Myptr@?$_String_alloc@U?$_String_base_types@_WV?$allocator@_W@std@@@std@@@std@@QAEPA_WXZ)
PUBLIC 1a91 0 @ILT+2700(_wmemchr)
PUBLIC 1a96 0 @ILT+2705(___scrt_initialize_crt)
PUBLIC 1a9b 0 @ILT+2710(??1?$_Vector_alloc@U?$_Vec_base_types@PAVExceptionHandler@google_breakpad@@V?$allocator@PAVExceptionHandler@google_breakpad@@@std@@@std@@@std@@QAE@XZ)
PUBLIC 1aa0 0 @ILT+2715(@_guard_check_icall_nop@4)
PUBLIC 1aa5 0 @ILT+2720(_wmemcpy)
PUBLIC 1aaa 0 @ILT+2725(___scrt_get_show_window_mode)
PUBLIC 1aaf 0 @ILT+2730(?_Unchecked@?$_List_iterator@V?$_List_val@U?$_List_simple_types@UAppMemory@google_breakpad@@@std@@@std@@@std@@QBE?AV?$_List_unchecked_iterator@V?$_List_val@U?$_List_simple_types@UAppMemory@google_breakpad@@@std@@@std@@@2@XZ)
PUBLIC 1ab4 0 @ILT+2735(___acrt_thread_attach)
PUBLIC 1ab9 0 @ILT+2740(_main)
PUBLIC 1abe 0 @ILT+2745(?address@?$_Wrap_alloc@V?$allocator@_W@std@@@std@@QBEPA_WAA_W@Z)
PUBLIC 1ac3 0 @ILT+2750(??$destroy@UAppMemory@google_breakpad@@@?$allocator@U?$_List_node@UAppMemory@google_breakpad@@PAX@std@@@std@@QAEXPAUAppMemory@google_breakpad@@@Z)
PUBLIC 1ac8 0 @ILT+2755(?_Make_iter@?$vector@PAVExceptionHandler@google_breakpad@@V?$allocator@PAVExceptionHandler@google_breakpad@@@std@@@std@@QBE?AV?$_Vector_iterator@V?$_Vector_val@U?$_Simple_types@PAVExceptionHandler@google_breakpad@@@std@@@std@@@2@V?$_Vector_const_iterator@V?$_Vector_val@U?$_Simple_types@PAVExceptionHandler@google_breakpad@@@std@@@std@@@2@@Z)
PUBLIC 1acd 0 @ILT+2760(?IsRegistered@CrashGenerationClient@google_breakpad@@ABE_NXZ)
PUBLIC 1ad2 0 @ILT+2765(??1?$_Compressed_pair@U?$_Wrap_alloc@V?$allocator@U?$_List_node@UAppMemory@google_breakpad@@PAX@std@@@std@@@std@@V?$_List_val@U?$_List_simple_types@UAppMemory@google_breakpad@@@std@@@2@$00@std@@QAE@XZ)
PUBLIC 1ad7 0 @ILT+2770(?_Mysize@?$_List_alloc@U?$_List_base_types@UAppMemory@google_breakpad@@V?$allocator@UAppMemory@google_breakpad@@@std@@@std@@@std@@QAEAAIXZ)
PUBLIC 1adc 0 @ILT+2775(?HandleInvalidParameter@ExceptionHandler@google_breakpad@@CAXPB_W00II@Z)
PUBLIC 1ae1 0 @ILT+2780(?_Buyheadnode@?$_List_alloc@U?$_List_base_types@UAppMemory@google_breakpad@@V?$allocator@UAppMemory@google_breakpad@@@std@@@std@@@std@@QAEPAU?$_List_node@UAppMemory@google_breakpad@@PAX@2@XZ)
PUBLIC 1ae6 0 @ILT+2785(??$_Uninitialized_move_al_unchecked@PAPAVExceptionHandler@google_breakpad@@PAPAV12@V?$allocator@PAVExceptionHandler@google_breakpad@@@std@@@std@@YAPAPAVExceptionHandler@google_breakpad@@PAPAV12@00AAU?$_Wrap_alloc@V?$allocator@PAVExceptionHandler@google_breakpad@@@std@@@0@@Z)
PUBLIC 1aeb 0 @ILT+2790(??$_Unfancy@PAVExceptionHandler@google_breakpad@@@std@@YAPAPAVExceptionHandler@google_breakpad@@PAPAV12@@Z)
PUBLIC 1af0 0 @ILT+2795(?max_size@?$allocator@PAVExceptionHandler@google_breakpad@@@std@@QBEIXZ)
PUBLIC 1af5 0 @ILT+2800(??$_Debug_lt@AB_KAB_K@std@@YA_NAB_K0PB_WI@Z)
PUBLIC 1afa 0 @ILT+2805(___scrt_dllmain_crt_thread_attach)
PUBLIC 1aff 0 @ILT+2810(?_Xlen@?$basic_string@DU?$char_traits@D@std@@V?$allocator@D@2@@std@@QBEXXZ)
PUBLIC 1b04 0 @ILT+2815(___scrt_dllmain_crt_thread_detach)
PUBLIC 1b09 0 @ILT+2820(??$construct@PAU?$_List_node@UAppMemory@google_breakpad@@PAX@std@@AAPAU12@@?$allocator_traits@V?$allocator@U?$_List_node@UAppMemory@google_breakpad@@PAX@std@@@std@@@std@@SAXAAV?$allocator@U?$_List_node@UAppMemory@google_breakpad@@PAX@std@@@1@PAPAU?$_List_node@UAppMemory@google_breakpad@@PAX@1@AAPAU31@@Z)
PUBLIC 1b0e 0 @ILT+2825(?find_last_of@?$basic_string@_WU?$char_traits@_W@std@@V?$allocator@_W@2@@std@@QBEIPB_WII@Z)
PUBLIC 1b13 0 @ILT+2830(??$?0U?$_Wrap_alloc@V?$allocator@_W@std@@@std@@X@?$_String_alloc@U?$_String_base_types@_WV?$allocator@_W@std@@@std@@@std@@QAE@$$QAU?$_Wrap_alloc@V?$allocator@_W@std@@@1@@Z)
PUBLIC 1b18 0 @ILT+2835(?_Mynode@?$_List_unchecked_const_iterator@V?$_List_val@U?$_List_simple_types@UAppMemory@google_breakpad@@@std@@@std@@U_Iterator_base0@2@@std@@QBEPAU?$_List_node@UAppMemory@google_breakpad@@PAX@2@XZ)
PUBLIC 1b1d 0 @ILT+2840(__snwprintf_s)
PUBLIC 1b22 0 @ILT+2845(?_Deallocate@std@@YAXPAXII@Z)
PUBLIC 1b27 0 @ILT+2850(?move@?$char_traits@_W@std@@SAPA_WPA_WPB_WI@Z)
PUBLIC 1b2c 0 @ILT+2855(?_Get_first@?$_Compressed_pair@U?$_Wrap_alloc@V?$allocator@_W@std@@@std@@V?$_String_val@U?$_Simple_types@_W@std@@@2@$00@std@@QBEABU?$_Wrap_alloc@V?$allocator@_W@std@@@2@XZ)
PUBLIC 1b31 0 @ILT+2860(??$?0$$V@?$_Compressed_pair@U?$_Wrap_alloc@V?$allocator@_W@std@@@std@@V?$_Vector_val@U?$_Simple_types@_W@std@@@2@$00@std@@QAE@U_Zero_then_variadic_args_t@1@@Z)
PUBLIC 1b36 0 @ILT+2865(?WriteMinidumpOnHandlerThread@ExceptionHandler@google_breakpad@@AAE_NPAU_EXCEPTION_POINTERS@@PAUMDRawAssertionInfo@@@Z)
PUBLIC 1b3b 0 @ILT+2870(?GUIDToWString@GUIDString@google_breakpad@@SA?AV?$basic_string@_WU?$char_traits@_W@std@@V?$allocator@_W@2@@std@@PAU_GUID@@@Z)
PUBLIC 1b40 0 @ILT+2875(?assign@?$char_traits@D@std@@SAXAADABD@Z)
PUBLIC 1b45 0 @ILT+2880(?_Incsize@?$list@UAppMemory@google_breakpad@@V?$allocator@UAppMemory@google_breakpad@@@std@@@std@@QAEXI@Z)
PUBLIC 1b4a 0 @ILT+2885(?WriteMinidumpForChild@ExceptionHandler@google_breakpad@@SA_NPAXKABV?$basic_string@_WU?$char_traits@_W@std@@V?$allocator@_W@2@@std@@P6A_NPB_W20PAU_EXCEPTION_POINTERS@@PAUMDRawAssertionInfo@@_N@Z0W4_MINIDUMP_TYPE@@@Z)
PUBLIC 1b4f 0 @ILT+2890(??$addressof@UAppMemory@google_breakpad@@@std@@YAPAUAppMemory@google_breakpad@@AAU12@@Z)
PUBLIC 1b54 0 @ILT+2895(??1AutoExceptionHandler@google_breakpad@@QAE@XZ)
PUBLIC 1b59 0 @ILT+2900(?IsOutOfProcess@ExceptionHandler@google_breakpad@@QBE_NXZ)
PUBLIC 1b5e 0 @ILT+2905(??1?$_String_iterator@V?$_String_val@U?$_Simple_types@_W@std@@@std@@@std@@QAE@XZ)
PUBLIC 1b63 0 @ILT+2910(??$destroy@PAU?$_List_node@UAppMemory@google_breakpad@@PAX@std@@@?$allocator@U?$_List_node@UAppMemory@google_breakpad@@PAX@std@@@std@@QAEXPAPAU?$_List_node@UAppMemory@google_breakpad@@PAX@1@@Z)
PUBLIC 1b68 0 @ILT+2915(??0?$allocator@U?$_List_node@UAppMemory@google_breakpad@@PAX@std@@@std@@QAE@XZ)
PUBLIC 1b6d 0 @ILT+2920(?_Free_proxy@?$_Vector_alloc@U?$_Vec_base_types@PAVExceptionHandler@google_breakpad@@V?$allocator@PAVExceptionHandler@google_breakpad@@@std@@@std@@@std@@QAEXXZ)
PUBLIC 1b72 0 @ILT+2925(??D?$_Vector_iterator@V?$_Vector_val@U?$_Simple_types@PAVExceptionHandler@google_breakpad@@@std@@@std@@@std@@QBEAAPAVExceptionHandler@google_breakpad@@XZ)
PUBLIC 1b77 0 @ILT+2930(??0?$_Wrap_alloc@V?$allocator@PAVExceptionHandler@google_breakpad@@@std@@@std@@QAE@XZ)
PUBLIC 1b7c 0 @ILT+2935(___scrt_stub_for_is_c_termination_complete)
PUBLIC 1b81 0 @ILT+2940(?erase@?$basic_string@DU?$char_traits@D@std@@V?$allocator@D@2@@std@@QAEAAV12@II@Z)
PUBLIC 1b86 0 @ILT+2945(?__scrt_throw_std_bad_array_new_length@@YAXXZ)
PUBLIC 1b8b 0 @ILT+2950(??$_Find_unchecked@V?$_List_unchecked_iterator@V?$_List_val@U?$_List_simple_types@UAppMemory@google_breakpad@@@std@@@std@@@std@@PAX@std@@YA?AV?$_List_unchecked_iterator@V?$_List_val@U?$_List_simple_types@UAppMemory@google_breakpad@@@std@@@std@@@0@V10@0ABQAX@Z)
PUBLIC 1b90 0 @ILT+2955(@_guard_check_icall@4)
PUBLIC 1b95 0 @ILT+2960(?_Getpfirst@_Container_base12@std@@QBEPAPAU_Iterator_base12@2@XZ)
PUBLIC 1b9a 0 @ILT+2965(___report_gsfailure)
PUBLIC 1b9f 0 @ILT+2970(?_Myptr@?$_String_val@U?$_Simple_types@D@std@@@std@@QBEPBDXZ)
PUBLIC 1ba4 0 @ILT+2975(?_Tidy@?$vector@DV?$allocator@D@std@@@std@@IAEXXZ)
PUBLIC 1ba9 0 @ILT+2980(?RegisterAppMemory@ExceptionHandler@google_breakpad@@QAEXPAXI@Z)
PUBLIC 1bae 0 @ILT+2985(??0?$_Vector_val@U?$_Simple_types@PAVExceptionHandler@google_breakpad@@@std@@@std@@QAE@XZ)
PUBLIC 1bb3 0 @ILT+2990(??$_Uninitialized_default_fill_n@PA_WIV?$allocator@_W@std@@@std@@YAXPA_WIAAU?$_Wrap_alloc@V?$allocator@_W@std@@@0@@Z)
PUBLIC 1bb8 0 @ILT+2995(??$?9V?$allocator@_W@std@@V01@@std@@YA_NABU?$_Wrap_alloc@V?$allocator@_W@std@@@0@0@Z)
PUBLIC 1bbd 0 @ILT+3000(?_Rechecked@?$_List_iterator@V?$_List_val@U?$_List_simple_types@UAppMemory@google_breakpad@@@std@@@std@@@std@@QAEAAV12@V?$_List_unchecked_iterator@V?$_List_val@U?$_List_simple_types@UAppMemory@google_breakpad@@@std@@@std@@@2@@Z)
PUBLIC 1bc2 0 @ILT+3005(?_Bx@?$_String_alloc@U?$_String_base_types@DV?$allocator@D@std@@@std@@@std@@QAEAAT_Bxty@?$_String_val@U?$_Simple_types@D@std@@@2@XZ)
PUBLIC 1bc7 0 @ILT+3010(??4?$basic_string@DU?$char_traits@D@std@@V?$allocator@D@2@@std@@QAEAAV01@PBD@Z)
PUBLIC 1bcc 0 @ILT+3015(??$forward@AAU?$_Wrap_alloc@V?$allocator@D@std@@@std@@@std@@YAAAU?$_Wrap_alloc@V?$allocator@D@std@@@0@AAU10@@Z)
PUBLIC 1bd1 0 @ILT+3020(??C?$_List_unchecked_const_iterator@V?$_List_val@U?$_List_simple_types@UAppMemory@google_breakpad@@@std@@@std@@U_Iterator_base12@2@@std@@QBEPBUAppMemory@google_breakpad@@XZ)
PUBLIC 1bd6 0 @ILT+3025(??$construct@PADAAPAD@?$allocator_traits@V?$allocator@D@std@@@std@@SAXAAV?$allocator@D@1@PAPADAAPAD@Z)
PUBLIC 1bdb 0 @ILT+3030(?_Myval@?$_List_val@U?$_List_simple_types@UAppMemory@google_breakpad@@@std@@@std@@SAAAUAppMemory@google_breakpad@@PAU?$_List_node@UAppMemory@google_breakpad@@PAX@2@@Z)
PUBLIC 1be0 0 @ILT+3035(?Register@CrashGenerationClient@google_breakpad@@QAE_NXZ)
PUBLIC 1be5 0 @ILT+3040(?_Xlen@?$vector@PAVExceptionHandler@google_breakpad@@V?$allocator@PAVExceptionHandler@google_breakpad@@@std@@@std@@IBEXXZ)
PUBLIC 1bea 0 @ILT+3045(?_Get_first@?$_Compressed_pair@U?$_Wrap_alloc@V?$allocator@PAVExceptionHandler@google_breakpad@@@std@@@std@@V?$_Vector_val@U?$_Simple_types@PAVExceptionHandler@google_breakpad@@@std@@@2@$00@std@@QBEABU?$_Wrap_alloc@V?$allocator@PAVExceptionHandler@google_breakpad@@@std@@@2@XZ)
PUBLIC 1bef 0 @ILT+3050(??1CrashGenerationClient@google_breakpad@@QAE@XZ)
PUBLIC 1bf4 0 @ILT+3055(?_Get_data@?$_Vector_alloc@U?$_Vec_base_types@_WV?$allocator@_W@std@@@std@@@std@@QBEABV?$_Vector_val@U?$_Simple_types@_W@std@@@2@XZ)
PUBLIC 1bf9 0 @ILT+3060(??$_Move_unchecked1@PAPAVExceptionHandler@google_breakpad@@PAPAV12@@std@@YAPAPAVExceptionHandler@google_breakpad@@PAPAV12@00U_Trivially_copyable_ptr_iterator_tag@0@@Z)
PUBLIC 1bfe 0 @ILT+3065(?_Check_offset@?$basic_string@DU?$char_traits@D@std@@V?$allocator@D@2@@std@@QBEXI@Z)
PUBLIC 1c03 0 @ILT+3070(?RegisterClient@CrashGenerationClient@google_breakpad@@AAE_NPAX@Z)
PUBLIC 1c08 0 @ILT+3075(?replace@?$basic_string@_WU?$char_traits@_W@std@@V?$allocator@_W@2@@std@@QAEAAV12@IIABV12@II@Z)
PUBLIC 1c0d 0 @ILT+3080(?get_handle_debug_exceptions@ExceptionHandler@google_breakpad@@QBE_NXZ)
PUBLIC 1c12 0 @ILT+3085(?_Myptr@?$_String_val@U?$_Simple_types@_W@std@@@std@@QBEPB_WXZ)
PUBLIC 1c17 0 @ILT+3090(??0?$_Iterator012@Urandom_access_iterator_tag@std@@_WHPB_WAB_WU_Iterator_base12@2@@std@@QAE@$$QAU01@@Z)
PUBLIC 1c1c 0 @ILT+3095(??1?$_Compressed_pair@U?$_Wrap_alloc@V?$allocator@_W@std@@@std@@V?$_Vector_val@U?$_Simple_types@_W@std@@@2@$00@std@@QAE@XZ)
PUBLIC 1c21 0 @ILT+3100(??4?$_List_const_iterator@V?$_List_val@U?$_List_simple_types@UAppMemory@google_breakpad@@@std@@@std@@@std@@QAEAAV01@$$QAV01@@Z)
PUBLIC 1c26 0 @ILT+3105(?RequestUpload@ExceptionHandler@google_breakpad@@QAE_NK@Z)
PUBLIC 1c2b 0 @ILT+3110(?copy@?$char_traits@D@std@@SAPADPADPBDI@Z)
PUBLIC 1c30 0 @ILT+3115(??$?0AAU?$_Wrap_alloc@V?$allocator@_W@std@@@std@@@?$_Wrap_alloc@V?$allocator@U_Container_proxy@std@@@std@@@std@@QAE@AAU?$_Wrap_alloc@V?$allocator@_W@std@@@1@@Z)
PUBLIC 1c35 0 @ILT+3120(??_Eexception@std@@UAEPAXI@Z)
PUBLIC 1c3a 0 @ILT+3125(?front@?$list@UAppMemory@google_breakpad@@V?$allocator@UAppMemory@google_breakpad@@@std@@@std@@QAEAAUAppMemory@google_breakpad@@XZ)
PUBLIC 1c3f 0 @ILT+3130(??$destroy@UAppMemory@google_breakpad@@@?$_Wrap_alloc@V?$allocator@U?$_List_node@UAppMemory@google_breakpad@@PAX@std@@@std@@@std@@QAEXPAUAppMemory@google_breakpad@@@Z)
PUBLIC 1c44 0 @ILT+3135(?allocate@?$_Wrap_alloc@V?$allocator@U_Container_proxy@std@@@std@@@std@@QAEPAU_Container_proxy@2@I@Z)
PUBLIC 1c49 0 @ILT+3140(?_Buy@?$vector@DV?$allocator@D@std@@@std@@IAE_NI@Z)
PUBLIC 1c4e 0 @ILT+3145(?empty@?$vector@PAVExceptionHandler@google_breakpad@@V?$allocator@PAVExceptionHandler@google_breakpad@@@std@@@std@@QBE_NXZ)
PUBLIC 1c53 0 @ILT+3150(?_Free_proxy@?$_Vector_alloc@U?$_Vec_base_types@DV?$allocator@D@std@@@std@@@std@@QAEXXZ)
PUBLIC 1c58 0 @ILT+3155(??$__crt_fast_encode_pointer@PAP6AXXZ@@YAPAP6AXXZQAP6AXXZ@Z)
PUBLIC 1c5d 0 @ILT+3160(?_Unused_capacity@?$vector@PAVExceptionHandler@google_breakpad@@V?$allocator@PAVExceptionHandler@google_breakpad@@@std@@@std@@QBEIXZ)
PUBLIC 1c62 0 @ILT+3165(??0AutoExceptionHandler@google_breakpad@@QAE@XZ)
PUBLIC 1c67 0 @ILT+3170(?_Buy@?$vector@_WV?$allocator@_W@std@@@std@@IAE_NI@Z)
PUBLIC 1c6c 0 @ILT+3175(??0bad_array_new_length@std@@QAE@ABV01@@Z)
PUBLIC 1c71 0 @ILT+3180(??$destroy@PAD@?$allocator@D@std@@QAEXPAPAD@Z)
PUBLIC 1c76 0 @ILT+3185(?_Getal@?$_Vector_alloc@U?$_Vec_base_types@_WV?$allocator@_W@std@@@std@@@std@@QBEABU?$_Wrap_alloc@V?$allocator@_W@std@@@2@XZ)
PUBLIC 1c7b 0 @ILT+3190(??$construct@PAVExceptionHandler@google_breakpad@@AAPAV12@@?$allocator_traits@V?$allocator@PAVExceptionHandler@google_breakpad@@@std@@@std@@SAXAAV?$allocator@PAVExceptionHandler@google_breakpad@@@1@PAPAVExceptionHandler@google_breakpad@@AAPAV34@@Z)
PUBLIC 1c80 0 @ILT+3195(?_Mylast@?$_Vector_alloc@U?$_Vec_base_types@DV?$allocator@D@std@@@std@@@std@@QBEABQADXZ)
PUBLIC 1c85 0 @ILT+3200(?max_size@?$vector@DV?$allocator@D@std@@@std@@QBEIXZ)
PUBLIC 1c8a 0 @ILT+3205(??0?$_Vector_alloc@U?$_Vec_base_types@PAVExceptionHandler@google_breakpad@@V?$allocator@PAVExceptionHandler@google_breakpad@@@std@@@std@@@std@@QAE@XZ)
PUBLIC 1c8f 0 @ILT+3210(?_Reallocate@?$vector@PAVExceptionHandler@google_breakpad@@V?$allocator@PAVExceptionHandler@google_breakpad@@@std@@@std@@IAEXI@Z)
PUBLIC 1c94 0 @ILT+3215(?assign@?$basic_string@DU?$char_traits@D@std@@V?$allocator@D@2@@std@@QAEAAV12@ABV12@II@Z)
PUBLIC 1c99 0 @ILT+3220(?_Orphan_all@?$_String_alloc@U?$_String_base_types@_WV?$allocator@_W@std@@@std@@@std@@QAEXXZ)
PUBLIC 1c9e 0 @ILT+3225(??4?$_Vector_const_iterator@V?$_Vector_val@U?$_Simple_types@PAVExceptionHandler@google_breakpad@@@std@@@std@@@std@@QAEAAV01@$$QAV01@@Z)
PUBLIC 1ca3 0 @ILT+3230(??4?$_Iterator012@Urandom_access_iterator_tag@std@@PAVExceptionHandler@google_breakpad@@HPBQAV34@ABQAV34@U_Iterator_base12@2@@std@@QAEAAU01@$$QAU01@@Z)
PUBLIC 1ca8 0 @ILT+3235(??G?$_String_iterator@V?$_String_val@U?$_Simple_types@_W@std@@@std@@@std@@QBEHABV?$_String_const_iterator@V?$_String_val@U?$_Simple_types@_W@std@@@std@@@1@@Z)
PUBLIC 1cad 0 @ILT+3240(___scrt_stub_for_is_c_termination_complete)
PUBLIC 1cb2 0 @ILT+3245(??$destroy@PA_W@?$allocator_traits@V?$allocator@_W@std@@@std@@SAXAAV?$allocator@_W@1@PAPA_W@Z)
PUBLIC 1cb7 0 @ILT+3250(?_Buynode0@?$_List_alloc@U?$_List_base_types@UAppMemory@google_breakpad@@V?$allocator@UAppMemory@google_breakpad@@@std@@@std@@@std@@QAEPAU?$_List_node@UAppMemory@google_breakpad@@PAX@2@PAU32@0@Z)
PUBLIC 1cbc 0 @ILT+3255(??0bad_alloc@std@@QAE@ABV01@@Z)
PUBLIC 1cc1 0 @ILT+3260(___scrt_release_startup_lock)
PUBLIC 1cc6 0 @ILT+3265(?clear@?$list@UAppMemory@google_breakpad@@V?$allocator@UAppMemory@google_breakpad@@@std@@@std@@QAEXXZ)
PUBLIC 1ccb 0 @ILT+3270(??$_Debug_range@V?$_List_iterator@V?$_List_val@U?$_List_simple_types@UAppMemory@google_breakpad@@@std@@@std@@@std@@@std@@YAXV?$_List_iterator@V?$_List_val@U?$_List_simple_types@UAppMemory@google_breakpad@@@std@@@std@@@0@0PB_WI@Z)
PUBLIC 1cd0 0 @ILT+3275(?deallocate@?$allocator@_W@std@@QAEXPA_WI@Z)
PUBLIC 1cd5 0 @ILT+3280(?UpdateNextID@ExceptionHandler@google_breakpad@@AAEXXZ)
PUBLIC 1cda 0 @ILT+3285(?pointer_to@?$pointer_traits@PAU_Container_proxy@std@@@std@@SAPAU_Container_proxy@2@AAU32@@Z)
PUBLIC 1cdf 0 @ILT+3290(??0_Iterator_base12@std@@QAE@XZ)
PUBLIC 1ce4 0 @ILT+3295(??$construct@PA_WAAPA_W@?$_Wrap_alloc@V?$allocator@_W@std@@@std@@QAEXPAPA_WAAPA_W@Z)
PUBLIC 1ce9 0 @ILT+3300(??0?$_Iterator012@Urandom_access_iterator_tag@std@@PAVExceptionHandler@google_breakpad@@HPBQAV34@ABQAV34@U_Iterator_base12@2@@std@@QAE@XZ)
PUBLIC 1cee 0 @ILT+3305(?find@?$char_traits@_W@std@@SAPB_WPB_WIAB_W@Z)
PUBLIC 1cf3 0 @ILT+3310(??G?$_String_const_iterator@V?$_String_val@U?$_Simple_types@_W@std@@@std@@@std@@QBEHABV01@@Z)
PUBLIC 1cf8 0 @ILT+3315(??2@YAPAXIPAX@Z)
PUBLIC 1cfd 0 @ILT+3320(?size@?$vector@DV?$allocator@D@std@@@std@@QBEIXZ)
PUBLIC 1d02 0 @ILT+3325(??0?$_String_iterator@V?$_String_val@U?$_Simple_types@_W@std@@@std@@@std@@QAE@PA_WPBU_Container_base12@1@@Z)
PUBLIC 1d07 0 @ILT+3330(___scrt_acquire_startup_lock)
PUBLIC 1d0c 0 @ILT+3335(??0CrashGenerationClient@google_breakpad@@QAE@PB_WW4_MINIDUMP_TYPE@@PBUCustomClientInfo@1@@Z)
PUBLIC 1d11 0 @ILT+3340(??$_Pocca@U?$_Wrap_alloc@V?$allocator@_W@std@@@std@@@std@@YAXAAU?$_Wrap_alloc@V?$allocator@_W@std@@@0@ABU10@@Z)
PUBLIC 1d16 0 @ILT+3345(??$forward@ABQAVExceptionHandler@google_breakpad@@@std@@YAABQAVExceptionHandler@google_breakpad@@ABQAV12@@Z)
PUBLIC 1d1b 0 @ILT+3350(??$?0$$V@?$_Compressed_pair@U?$_Wrap_alloc@V?$allocator@PAVExceptionHandler@google_breakpad@@@std@@@std@@V?$_Vector_val@U?$_Simple_types@PAVExceptionHandler@google_breakpad@@@std@@@2@$00@std@@QAE@U_Zero_then_variadic_args_t@1@@Z)
PUBLIC 1d20 0 @ILT+3355(?_Get_first@?$_Compressed_pair@U?$_Wrap_alloc@V?$allocator@PAVExceptionHandler@google_breakpad@@@std@@@std@@V?$_Vector_val@U?$_Simple_types@PAVExceptionHandler@google_breakpad@@@std@@@2@$00@std@@QAEAAU?$_Wrap_alloc@V?$allocator@PAVExceptionHandler@google_breakpad@@@std@@@2@XZ)
PUBLIC 1d25 0 @ILT+3360(??D?$_String_const_iterator@V?$_String_val@U?$_Simple_types@_W@std@@@std@@@std@@QBEAB_WXZ)
PUBLIC 1d2a 0 @ILT+3365(?max_size@?$basic_string@DU?$char_traits@D@std@@V?$allocator@D@2@@std@@QBEIXZ)
PUBLIC 1d2f 0 @ILT+3370(?dumpCallback@@YA_NPB_W0PAXPAU_EXCEPTION_POINTERS@@PAUMDRawAssertionInfo@@_N@Z)
PUBLIC 1d34 0 @ILT+3375(?_Bx@?$_String_alloc@U?$_String_base_types@_WV?$allocator@_W@std@@@std@@@std@@QAEAAT_Bxty@?$_String_val@U?$_Simple_types@_W@std@@@2@XZ)
PUBLIC 1d39 0 @ILT+3380(??$destroy@PA_W@?$_Wrap_alloc@V?$allocator@_W@std@@@std@@QAEXPAPA_W@Z)
PUBLIC 1d3e 0 @ILT+3385(??$?0$$V@?$_Compressed_pair@U?$_Wrap_alloc@V?$allocator@U?$_List_node@UAppMemory@google_breakpad@@PAX@std@@@std@@@std@@V?$_List_val@U?$_List_simple_types@UAppMemory@google_breakpad@@@std@@@2@$00@std@@QAE@U_Zero_then_variadic_args_t@1@@Z)
PUBLIC 1d43 0 @ILT+3390(?_Alloc_proxy@?$_Vector_alloc@U?$_Vec_base_types@DV?$allocator@D@std@@@std@@@std@@QAEXXZ)
PUBLIC 1d48 0 @ILT+3395(?_Clrcont@_Iterator_base12@std@@QAEXXZ)
PUBLIC 1d4d 0 @ILT+3400(?_Alloc_proxy@?$_Vector_alloc@U?$_Vec_base_types@PAVExceptionHandler@google_breakpad@@V?$allocator@PAVExceptionHandler@google_breakpad@@@std@@@std@@@std@@QAEXXZ)
PUBLIC 1d52 0 @ILT+3405(??9?$_List_unchecked_const_iterator@V?$_List_val@U?$_List_simple_types@UAppMemory@google_breakpad@@@std@@@std@@U_Iterator_base0@2@@std@@QBE_NABV01@@Z)
PUBLIC 1d57 0 @ILT+3410(??8?$_List_unchecked_const_iterator@V?$_List_val@U?$_List_simple_types@UAppMemory@google_breakpad@@@std@@@std@@U_Iterator_base0@2@@std@@QBE_NABV01@@Z)
PUBLIC 1d5c 0 @ILT+3415(?erase@?$basic_string@_WU?$char_traits@_W@std@@V?$allocator@_W@2@@std@@QAEAAV12@I@Z)
PUBLIC 1d61 0 @ILT+3420(??0exception@std@@QAE@ABV01@@Z)
PUBLIC 1d66 0 @ILT+3425(___scrt_dllmain_before_initialize_c)
PUBLIC 1d6b 0 @ILT+3430(??$?RAB_KAB_K@?$less@X@std@@QBE_NAB_K0@Z)
PUBLIC 1d70 0 @ILT+3435(?_Freenode@?$_List_buy@UAppMemory@google_breakpad@@V?$allocator@UAppMemory@google_breakpad@@@std@@@std@@QAEXPAU?$_List_node@UAppMemory@google_breakpad@@PAX@2@@Z)
PUBLIC 1d75 0 @ILT+3440(?what@exception@std@@UBEPBDXZ)
PUBLIC 1d7a 0 @ILT+3445(??$_Uninitialized_default_fill_n1@PA_WIV?$allocator@_W@std@@@std@@YAXPA_WIAAU?$_Wrap_alloc@V?$allocator@_W@std@@@0@U?$integral_constant@_N$00@0@@Z)
PUBLIC 1d7f 0 @ILT+3450(?allocate@?$allocator@U?$_List_node@UAppMemory@google_breakpad@@PAX@std@@@std@@QAEPAU?$_List_node@UAppMemory@google_breakpad@@PAX@2@I@Z)
PUBLIC 1d84 0 @ILT+3455(___local_stdio_printf_options)
PUBLIC 1d89 0 @ILT+3460(??0?$_String_const_iterator@V?$_String_val@U?$_Simple_types@_W@std@@@std@@@std@@QAE@$$QAV01@@Z)
PUBLIC 1d8e 0 @ILT+3465(?HandleException@ExceptionHandler@google_breakpad@@CGJPAU_EXCEPTION_POINTERS@@@Z)
PUBLIC 1d93 0 @ILT+3470(?_Destroy@?$vector@PAVExceptionHandler@google_breakpad@@V?$allocator@PAVExceptionHandler@google_breakpad@@@std@@@std@@IAEXPAPAVExceptionHandler@google_breakpad@@0@Z)
PUBLIC 1d98 0 @ILT+3475(?_Mylast@?$_Vector_alloc@U?$_Vec_base_types@DV?$allocator@D@std@@@std@@@std@@QAEAAPADXZ)
PUBLIC 1d9d 0 @ILT+3480(?_Tidy@?$list@UAppMemory@google_breakpad@@V?$allocator@UAppMemory@google_breakpad@@@std@@@std@@QAEXXZ)
PUBLIC 1da2 0 @ILT+3485(??$forward@AAPA_W@std@@YAAAPA_WAAPA_W@Z)
PUBLIC 1da7 0 @ILT+3490(??0?$_Vector_iterator@V?$_Vector_val@U?$_Simple_types@PAVExceptionHandler@google_breakpad@@@std@@@std@@@std@@QAE@ABV01@@Z)
PUBLIC 1dac 0 @ILT+3495(?_Freeheadnode@?$_List_alloc@U?$_List_base_types@UAppMemory@google_breakpad@@V?$allocator@UAppMemory@google_breakpad@@@std@@@std@@@std@@QAEXPAU?$_List_node@UAppMemory@google_breakpad@@PAX@2@@Z)
PUBLIC 1db1 0 @ILT+3500(?pointer_to@?$pointer_traits@PA_W@std@@SAPA_WAA_W@Z)
PUBLIC 1db6 0 @ILT+3505(?_Getpfirst@?$_List_alloc@U?$_List_base_types@UAppMemory@google_breakpad@@V?$allocator@UAppMemory@google_breakpad@@@std@@@std@@@std@@QBEPAPAU_Iterator_base12@2@XZ)
PUBLIC 1dbb 0 @ILT+3510(?_Mylast@?$_Vector_alloc@U?$_Vec_base_types@PAVExceptionHandler@google_breakpad@@V?$allocator@PAVExceptionHandler@google_breakpad@@@std@@@std@@@std@@QBEABQAPAVExceptionHandler@google_breakpad@@XZ)
PUBLIC 1dc0 0 @ILT+3515(?_Inside@?$basic_string@DU?$char_traits@D@std@@V?$allocator@D@2@@std@@QAE_NPBD@Z)
PUBLIC 1dc5 0 @ILT+3520(__get_startup_file_mode)
PUBLIC 1dca 0 @ILT+3525(?_Myhead@?$_List_alloc@U?$_List_base_types@UAppMemory@google_breakpad@@V?$allocator@UAppMemory@google_breakpad@@@std@@@std@@@std@@QAEAAPAU?$_List_node@UAppMemory@google_breakpad@@PAX@2@XZ)
PUBLIC 1dcf 0 @ILT+3530(?get@?$scoped_ptr@VCrashGenerationClient@google_breakpad@@@google_breakpad@@QBEPAVCrashGenerationClient@2@XZ)
PUBLIC 1dd4 0 @ILT+3535(??0?$scoped_ptr@VCrashGenerationClient@google_breakpad@@@google_breakpad@@QAE@PAVCrashGenerationClient@1@@Z)
PUBLIC 1dd9 0 @ILT+3540(?max_size@?$list@UAppMemory@google_breakpad@@V?$allocator@UAppMemory@google_breakpad@@@std@@@std@@QBEIXZ)
PUBLIC 1dde 0 @ILT+3545(??G?$_Vector_iterator@V?$_Vector_val@U?$_Simple_types@PAVExceptionHandler@google_breakpad@@@std@@@std@@@std@@QBE?AV01@H@Z)
PUBLIC 1de3 0 @ILT+3550(?max_size@?$_Wrap_alloc@V?$allocator@U?$_List_node@UAppMemory@google_breakpad@@PAX@std@@@std@@@std@@QBEIU_Nil@2@@Z)
PUBLIC 1de8 0 @ILT+3555(___scrt_dllmain_uninitialize_critical)
PUBLIC 1ded 0 @ILT+3560(?deallocate@?$allocator@PAVExceptionHandler@google_breakpad@@@std@@QAEXPAPAVExceptionHandler@google_breakpad@@I@Z)
PUBLIC 1df2 0 @ILT+3565(??$forward@AAU?$_Wrap_alloc@V?$allocator@U?$_List_node@UAppMemory@google_breakpad@@PAX@std@@@std@@@std@@@std@@YAAAU?$_Wrap_alloc@V?$allocator@U?$_List_node@UAppMemory@google_breakpad@@PAX@std@@@std@@@0@AAU10@@Z)
PUBLIC 1df7 0 @ILT+3570(?_Orphan_all@?$_Vector_alloc@U?$_Vec_base_types@DV?$allocator@D@std@@@std@@@std@@QAEXXZ)
PUBLIC 1dfc 0 @ILT+3575(___scrt_is_nonwritable_in_current_image)
PUBLIC 1e01 0 @ILT+3580(??$forward@ABUAppMemory@google_breakpad@@@std@@YAABUAppMemory@google_breakpad@@ABU12@@Z)
PUBLIC 1e06 0 @ILT+3585(?_Allocate@std@@YAPAXII_N@Z)
PUBLIC 1e0b 0 @ILT+3590(?SignalCrashEventAndWait@CrashGenerationClient@google_breakpad@@AAE_NXZ)
PUBLIC 1e10 0 @ILT+3595(?_Myend@?$_Vector_alloc@U?$_Vec_base_types@DV?$allocator@D@std@@@std@@@std@@QAEAAPADXZ)
PUBLIC 1e15 0 @ILT+3600(??1?$_List_val@U?$_List_simple_types@UAppMemory@google_breakpad@@@std@@@std@@QAE@XZ)
PUBLIC 1e1a 0 @ILT+3605(__should_initialize_environment)
PUBLIC 1e1f 0 @ILT+3610(??$_Unfancy@U_Container_proxy@std@@@std@@YAPAU_Container_proxy@0@PAU10@@Z)
PUBLIC 1e24 0 @ILT+3615(?_Myend@?$_Vector_alloc@U?$_Vec_base_types@PAVExceptionHandler@google_breakpad@@V?$allocator@PAVExceptionHandler@google_breakpad@@@std@@@std@@@std@@QBEABQAPAVExceptionHandler@google_breakpad@@XZ)
FUNC 2c50 19 0 `dynamic initializer for 'MDCVInfoELF_minsize''
FUNC 2c70 19 0 `dynamic initializer for 'MDCVInfoPDB20_minsize''
FUNC 2c90 19 0 `dynamic initializer for 'MDCVInfoPDB70_minsize''
FUNC 2cb0 19 0 `dynamic initializer for 'MDImageDebugMisc_minsize''
FUNC 2cd0 19 0 `dynamic initializer for 'MDRawMemoryList_minsize''
FUNC 2cf0 19 0 `dynamic initializer for 'MDRawModuleList_minsize''
FUNC 2d10 19 0 `dynamic initializer for 'MDRawThreadList_minsize''
FUNC 2d30 19 0 `dynamic initializer for 'MDString_minsize''
FUNC 2d50 19 0 `dynamic initializer for 'MD_MISCINFO3_SIZE''
FUNC 2d70 1c 0 `dynamic initializer for 'dump_file''
FUNC 2da0 19 0 `dynamic initializer for 'MDCVInfoELF_minsize''
FUNC 2dc0 19 0 `dynamic initializer for 'MDCVInfoPDB20_minsize''
FUNC 2de0 19 0 `dynamic initializer for 'MDCVInfoPDB70_minsize''
FUNC 2e00 19 0 `dynamic initializer for 'MDImageDebugMisc_minsize''
FUNC 2e20 19 0 `dynamic initializer for 'MDRawMemoryList_minsize''
FUNC 2e40 19 0 `dynamic initializer for 'MDRawModuleList_minsize''
FUNC 2e60 19 0 `dynamic initializer for 'MDRawThreadList_minsize''
FUNC 2e80 19 0 `dynamic initializer for 'MDString_minsize''
FUNC 2ea0 19 0 `dynamic initializer for 'MD_MISCINFO3_SIZE''
FUNC 2ec0 19 0 `dynamic initializer for 'MDCVInfoELF_minsize''
FUNC 2ee0 19 0 `dynamic initializer for 'MDCVInfoPDB20_minsize''
FUNC 2f00 19 0 `dynamic initializer for 'MDCVInfoPDB70_minsize''
FUNC 2f20 19 0 `dynamic initializer for 'MDImageDebugMisc_minsize''
FUNC 2f40 19 0 `dynamic initializer for 'MDRawMemoryList_minsize''
FUNC 2f60 19 0 `dynamic initializer for 'MDRawModuleList_minsize''
FUNC 2f80 19 0 `dynamic initializer for 'MDRawThreadList_minsize''
FUNC 2fa0 19 0 `dynamic initializer for 'MDString_minsize''
FUNC 2fc0 19 0 `dynamic initializer for 'MD_MISCINFO3_SIZE''
FUNC 3560 42 0 dumpCallback(wchar_t const *,wchar_t const *,void *,_EXCEPTION_POINTERS *,MDRawAssertionInfo *,bool)
FUNC 35b0 18 0 crash()
FUNC 35d0 bd 0 main
FUNC 36e0 20 0 std::_Compressed_pair<std::_Wrap_alloc<std::allocator<wchar_t> >,std::_String_val<std::_Simple_types<wchar_t> >,1>::_Compressed_pair<std::_Wrap_alloc<std::allocator<wchar_t> >,std::_String_val<std::_Simple_types<wchar_t> >,1><>(std::_Zero_then_variadic_args_t)
FUNC 3710 25 0 std::_Wrap_alloc<std::allocator<std::_Container_proxy> >::_Wrap_alloc<std::allocator<std::_Container_proxy> ><std::_Wrap_alloc<std::allocator<wchar_t> > &>(std::_Wrap_alloc<std::allocator<wchar_t> > &)
FUNC 3740 10 0 std::allocator<std::_Container_proxy>::allocator<std::_Container_proxy><wchar_t>(std::allocator<wchar_t> const &)
FUNC 3760 21 0 std::_Debug_pointer<wchar_t const >(wchar_t const *,wchar_t const *,unsigned int)
FUNC 3790 29 0 std::_Debug_pointer_if<wchar_t const >(bool,wchar_t const *,wchar_t const *,unsigned int)
FUNC 37d0 8 0 std::_Unfancy<std::_Container_proxy>(std::_Container_proxy *)
FUNC 37e0 8 0 std::_Unfancy<wchar_t>(wchar_t *)
FUNC 37f0 8 0 std::addressof<wchar_t *>(wchar_t * &)
FUNC 3800 8 0 std::addressof<std::_Container_proxy>(std::_Container_proxy &)
FUNC 3810 2a 0 std::_Wrap_alloc<std::allocator<wchar_t> >::construct<wchar_t *,wchar_t * &>(wchar_t * *,wchar_t * &)
FUNC 3850 48 0 std::allocator<wchar_t>::construct<wchar_t *,wchar_t * &>(wchar_t * *,wchar_t * &)
FUNC 38b0 1e 0 std::allocator_traits<std::allocator<wchar_t> >::construct<wchar_t *,wchar_t * &>(std::allocator<wchar_t> &,wchar_t * *,wchar_t * &)
FUNC 38e0 2a 0 std::_Wrap_alloc<std::allocator<std::_Container_proxy> >::construct<std::_Container_proxy,std::_Container_proxy>(std::_Container_proxy *,std::_Container_proxy &&)
FUNC 3920 4e 0 std::allocator<std::_Container_proxy>::construct<std::_Container_proxy,std::_Container_proxy>(std::_Container_proxy *,std::_Container_proxy &&)
FUNC 3990 1e 0 std::allocator_traits<std::allocator<std::_Container_proxy> >::construct<std::_Container_proxy,std::_Container_proxy>(std::allocator<std::_Container_proxy> &,std::_Container_proxy *,std::_Container_proxy &&)
FUNC 39c0 1d 0 std::_Wrap_alloc<std::allocator<wchar_t> >::destroy<wchar_t *>(wchar_t * *)
FUNC 39f0 d 0 std::allocator<wchar_t>::destroy<wchar_t *>(wchar_t * *)
FUNC 3a00 11 0 std::allocator_traits<std::allocator<wchar_t> >::destroy<wchar_t *>(std::allocator<wchar_t> &,wchar_t * *)
FUNC 3a20 1d 0 std::_Wrap_alloc<std::allocator<std::_Container_proxy> >::destroy<std::_Container_proxy>(std::_Container_proxy *)
FUNC 3a50 d 0 std::allocator<std::_Container_proxy>::destroy<std::_Container_proxy>(std::_Container_proxy *)
FUNC 3a60 11 0 std::allocator_traits<std::allocator<std::_Container_proxy> >::destroy<std::_Container_proxy>(std::allocator<std::_Container_proxy> &,std::_Container_proxy *)
FUNC 3a80 8 0 std::forward<wchar_t * &>(wchar_t * &)
FUNC 3a90 8 0 std::forward<std::_Wrap_alloc<std::allocator<wchar_t> > &>(std::_Wrap_alloc<std::allocator<wchar_t> > &)
FUNC 3aa0 8 0 std::forward<std::_Container_proxy>(std::_Container_proxy &)
FUNC 3ab0 5d 0 std::_String_alloc<std::_String_base_types<wchar_t,std::allocator<wchar_t> > >::_String_alloc<std::_String_base_types<wchar_t,std::allocator<wchar_t> > >()
FUNC 3b30 6d 0 std::_String_val<std::_Simple_types<wchar_t> >::_String_val<std::_Simple_types<wchar_t> >()
FUNC 3bc0 16 0 std::_Wrap_alloc<std::allocator<wchar_t> >::_Wrap_alloc<std::allocator<wchar_t> >()
FUNC 3be0 e 0 std::allocator<wchar_t>::allocator<wchar_t>()
FUNC 3c00 68 0 std::basic_string<wchar_t,std::char_traits<wchar_t>,std::allocator<wchar_t> >::basic_string<wchar_t,std::char_traits<wchar_t>,std::allocator<wchar_t> >(wchar_t const *)
FUNC 3c90 4c 0 std::basic_string<wchar_t,std::char_traits<wchar_t>,std::allocator<wchar_t> >::basic_string<wchar_t,std::char_traits<wchar_t>,std::allocator<wchar_t> >()
FUNC 3cf0 e 0 std::_String_val<std::_Simple_types<wchar_t> >::_Bxty::_Bxty()
FUNC 3d10 17 0 std::_Container_base12::_Container_base12()
FUNC 3d30 21 0 std::_Container_proxy::_Container_proxy()
FUNC 3d60 13 0 std::_Compressed_pair<std::_Wrap_alloc<std::allocator<wchar_t> >,std::_String_val<std::_Simple_types<wchar_t> >,1>::~_Compressed_pair<std::_Wrap_alloc<std::allocator<wchar_t> >,std::_String_val<std::_Simple_types<wchar_t> >,1>()
FUNC 3d80 45 0 std::_String_alloc<std::_String_base_types<wchar_t,std::allocator<wchar_t> > >::~_String_alloc<std::_String_base_types<wchar_t,std::allocator<wchar_t> > >()
FUNC 3de0 1e 0 std::_String_val<std::_Simple_types<wchar_t> >::~_String_val<std::_Simple_types<wchar_t> >()
FUNC 3e10 49 0 std::basic_string<wchar_t,std::char_traits<wchar_t>,std::allocator<wchar_t> >::~basic_string<wchar_t,std::char_traits<wchar_t>,std::allocator<wchar_t> >()
FUNC 3e70 b 0 std::_String_val<std::_Simple_types<wchar_t> >::_Bxty::~_Bxty()
FUNC 3e80 3d 0 std::_Container_base12::~_Container_base12()
FUNC 3ed0 8 0 operator new(unsigned int,void *)
FUNC 3ee0 19 0 std::basic_string<wchar_t,std::char_traits<wchar_t>,std::allocator<wchar_t> >::operator=(wchar_t const *)
FUNC 3f00 19 0 std::basic_string<wchar_t,std::char_traits<wchar_t>,std::allocator<wchar_t> >::operator+=(wchar_t const *)
FUNC 3f20 71 0 std::_String_alloc<std::_String_base_types<wchar_t,std::allocator<wchar_t> > >::_Alloc_proxy()
FUNC 3fb0 15c 0 std::_Allocate(unsigned int,unsigned int,bool)
FUNC 4170 16 0 std::_String_alloc<std::_String_base_types<wchar_t,std::allocator<wchar_t> > >::_Bx()
FUNC 4190 24 0 std::basic_string<wchar_t,std::char_traits<wchar_t>,std::allocator<wchar_t> >::_Check_offset(unsigned int)
FUNC 41c0 31 0 std::basic_string<wchar_t,std::char_traits<wchar_t>,std::allocator<wchar_t> >::_Clamp_suffix_size(unsigned int,unsigned int)
FUNC 4200 1d4 0 std::basic_string<wchar_t,std::char_traits<wchar_t>,std::allocator<wchar_t> >::_Copy(unsigned int,unsigned int)
FUNC 4450 25f 0 std::_Deallocate(void *,unsigned int,unsigned int)
FUNC 4750 44 0 std::basic_string<wchar_t,std::char_traits<wchar_t>,std::allocator<wchar_t> >::_Eos(unsigned int)
FUNC 47b0 65 0 std::_String_alloc<std::_String_base_types<wchar_t,std::allocator<wchar_t> > >::_Free_proxy()
FUNC 4830 13 0 std::_String_alloc<std::_String_base_types<wchar_t,std::allocator<wchar_t> > >::_Get_data()
FUNC 4850 13 0 std::_String_alloc<std::_String_base_types<wchar_t,std::allocator<wchar_t> > >::_Get_data()
FUNC 4870 e 0 std::_Compressed_pair<std::_Wrap_alloc<std::allocator<wchar_t> >,std::_String_val<std::_Simple_types<wchar_t> >,1>::_Get_first()
FUNC 4890 e 0 std::_Compressed_pair<std::_Wrap_alloc<std::allocator<wchar_t> >,std::_String_val<std::_Simple_types<wchar_t> >,1>::_Get_first()
FUNC 48b0 e 0 std::_Compressed_pair<std::_Wrap_alloc<std::allocator<wchar_t> >,std::_String_val<std::_Simple_types<wchar_t> >,1>::_Get_second()
FUNC 48d0 e 0 std::_Compressed_pair<std::_Wrap_alloc<std::allocator<wchar_t> >,std::_String_val<std::_Simple_types<wchar_t> >,1>::_Get_second()
FUNC 48f0 13 0 std::_String_alloc<std::_String_base_types<wchar_t,std::allocator<wchar_t> > >::_Getal()
FUNC 4910 13 0 std::_String_alloc<std::_String_base_types<wchar_t,std::allocator<wchar_t> > >::_Getal()
FUNC 4930 b7 0 std::basic_string<wchar_t,std::char_traits<wchar_t>,std::allocator<wchar_t> >::_Grow(unsigned int,bool)
FUNC 4a20 46 0 std::basic_string<wchar_t,std::char_traits<wchar_t>,std::allocator<wchar_t> >::_Inside(wchar_t const *)
FUNC 4a80 13 0 std::_String_alloc<std::_String_base_types<wchar_t,std::allocator<wchar_t> > >::_Myproxy()
FUNC 4aa0 1a 0 std::_String_alloc<std::_String_base_types<wchar_t,std::allocator<wchar_t> > >::_Myptr()
FUNC 4ac0 1a 0 std::_String_alloc<std::_String_base_types<wchar_t,std::allocator<wchar_t> > >::_Myptr()
FUNC 4ae0 36 0 std::_String_val<std::_Simple_types<wchar_t> >::_Myptr()
FUNC 4b30 36 0 std::_String_val<std::_Simple_types<wchar_t> >::_Myptr()
FUNC 4b80 16 0 std::_String_alloc<std::_String_base_types<wchar_t,std::allocator<wchar_t> > >::_Myres()
FUNC 4ba0 16 0 std::_String_alloc<std::_String_base_types<wchar_t,std::allocator<wchar_t> > >::_Mysize()
FUNC 4bc0 16 0 std::_String_alloc<std::_String_base_types<wchar_t,std::allocator<wchar_t> > >::_Mysize()
FUNC 4be0 1a 0 std::_String_alloc<std::_String_base_types<wchar_t,std::allocator<wchar_t> > >::_Orphan_all()
FUNC 4c00 64 0 std::_Container_base12::_Orphan_all()
FUNC 4c80 ba 0 std::basic_string<wchar_t,std::char_traits<wchar_t>,std::allocator<wchar_t> >::_Tidy(bool,unsigned int)
FUNC 4d70 16 0 std::basic_string<wchar_t,std::char_traits<wchar_t>,std::allocator<wchar_t> >::_Xlen()
FUNC 4d90 16 0 std::basic_string<wchar_t,std::char_traits<wchar_t>,std::allocator<wchar_t> >::_Xran()
FUNC 4db0 5 0 __empty_global_delete(void *)
FUNC 4dc0 5 0 __empty_global_delete(void *,unsigned int)
FUNC 4dd0 19 0 std::_Wrap_alloc<std::allocator<std::_Container_proxy> >::address(std::_Container_proxy &)
FUNC 4df0 19 0 std::_Wrap_alloc<std::allocator<std::_Container_proxy> >::allocate(unsigned int)
FUNC 4e10 19 0 std::_Wrap_alloc<std::allocator<wchar_t> >::allocate(unsigned int)
FUNC 4e30 1d 0 std::allocator<std::_Container_proxy>::allocate(unsigned int)
FUNC 4e60 1d 0 std::allocator<wchar_t>::allocate(unsigned int)
FUNC 4e90 ba 0 std::basic_string<wchar_t,std::char_traits<wchar_t>,std::allocator<wchar_t> >::append(std::basic_string<wchar_t,std::char_traits<wchar_t>,std::allocator<wchar_t> > const &,unsigned int,unsigned int)
FUNC 4f80 3c 0 std::basic_string<wchar_t,std::char_traits<wchar_t>,std::allocator<wchar_t> >::append(wchar_t const *)
FUNC 4fd0 f0 0 std::basic_string<wchar_t,std::char_traits<wchar_t>,std::allocator<wchar_t> >::append(wchar_t const *,unsigned int)
FUNC 5100 9b 0 std::basic_string<wchar_t,std::char_traits<wchar_t>,std::allocator<wchar_t> >::assign(std::basic_string<wchar_t,std::char_traits<wchar_t>,std::allocator<wchar_t> > const &,unsigned int,unsigned int)
FUNC 51d0 3c 0 std::basic_string<wchar_t,std::char_traits<wchar_t>,std::allocator<wchar_t> >::assign(wchar_t const *)
FUNC 5220 ac 0 std::basic_string<wchar_t,std::char_traits<wchar_t>,std::allocator<wchar_t> >::assign(wchar_t const *,unsigned int)
FUNC 5300 11 0 std::char_traits<wchar_t>::assign(wchar_t &,wchar_t const &)
FUNC 5320 30 0 std::char_traits<wchar_t>::copy(wchar_t *,wchar_t const *,unsigned int)
FUNC 5360 1d 0 std::_Wrap_alloc<std::allocator<std::_Container_proxy> >::deallocate(std::_Container_proxy *,unsigned int)
FUNC 5390 1d 0 std::_Wrap_alloc<std::allocator<wchar_t> >::deallocate(wchar_t *,unsigned int)
FUNC 53c0 1f 0 std::allocator<std::_Container_proxy>::deallocate(std::_Container_proxy *,unsigned int)
FUNC 53f0 1f 0 std::allocator<wchar_t>::deallocate(wchar_t *,unsigned int)
FUNC 5420 28 0 std::basic_string<wchar_t,std::char_traits<wchar_t>,std::allocator<wchar_t> >::erase(unsigned int)
FUNC 5460 8e 0 std::basic_string<wchar_t,std::char_traits<wchar_t>,std::allocator<wchar_t> >::erase(unsigned int,unsigned int)
FUNC 5520 2e 0 std::char_traits<wchar_t>::length(wchar_t const *)
FUNC 5560 19 0 std::_Wrap_alloc<std::allocator<wchar_t> >::max_size(std::_Nil)
FUNC 5580 10 0 std::allocator<wchar_t>::max_size()
FUNC 55a0 d 0 std::allocator_traits<std::allocator<wchar_t> >::max_size(std::allocator<wchar_t> const &)
FUNC 55b0 3f 0 std::basic_string<wchar_t,std::char_traits<wchar_t>,std::allocator<wchar_t> >::max_size()
FUNC 5600 30 0 std::char_traits<wchar_t>::move(wchar_t *,wchar_t const *,unsigned int)
FUNC 5640 11 0 std::pointer_traits<std::_Container_proxy *>::pointer_to(std::_Container_proxy &)
FUNC 5660 1b 0 wmemcpy
FUNC 5690 1c 0 wmemmove
FUNC 56c0 ba 0 google_breakpad::ExceptionHandler::ExceptionHandler(std::basic_string<wchar_t,std::char_traits<wchar_t>,std::allocator<wchar_t> > const &,bool (*)(void *,_EXCEPTION_POINTERS *,MDRawAssertionInfo *),bool (*)(wchar_t const *,wchar_t const *,void *,_EXCEPTION_POINTERS *,MDRawAssertionInfo *,bool),void *,int)
FUNC 5780 c0 0 google_breakpad::ExceptionHandler::ExceptionHandler(std::basic_string<wchar_t,std::char_traits<wchar_t>,std::allocator<wchar_t> > const &,bool (*)(void *,_EXCEPTION_POINTERS *,MDRawAssertionInfo *),bool (*)(wchar_t const *,wchar_t const *,void *,_EXCEPTION_POINTERS *,MDRawAssertionInfo *,bool),void *,int,_MINIDUMP_TYPE,wchar_t const *,google_breakpad::CustomClientInfo const *)
FUNC 5840 c0 0 google_breakpad::ExceptionHandler::ExceptionHandler(std::basic_string<wchar_t,std::char_traits<wchar_t>,std::allocator<wchar_t> > const &,bool (*)(void *,_EXCEPTION_POINTERS *,MDRawAssertionInfo *),bool (*)(wchar_t const *,wchar_t const *,void *,_EXCEPTION_POINTERS *,MDRawAssertionInfo *,bool),void *,int,_MINIDUMP_TYPE,void *,google_breakpad::CustomClientInfo const *)
FUNC 5900 bc 0 google_breakpad::ExceptionHandler::ExceptionHandler(std::basic_string<wchar_t,std::char_traits<wchar_t>,std::allocator<wchar_t> > const &,bool (*)(void *,_EXCEPTION_POINTERS *,MDRawAssertionInfo *),bool (*)(wchar_t const *,wchar_t const *,void *,_EXCEPTION_POINTERS *,MDRawAssertionInfo *,bool),void *,int,google_breakpad::CrashGenerationClient *)
FUNC 59c0 2b9 0 google_breakpad::ExceptionHandler::~ExceptionHandler()
FUNC 5c80 23 0 google_breakpad::ExceptionHandler::RequestUpload(unsigned long)
FUNC 5cb0 88 0 google_breakpad::ExceptionHandler::WriteMinidump()
FUNC 5d40 51 0 google_breakpad::ExceptionHandler::WriteMinidumpForException(_EXCEPTION_POINTERS *)
FUNC 5da0 97 0 google_breakpad::ExceptionHandler::WriteMinidump(std::basic_string<wchar_t,std::char_traits<wchar_t>,std::allocator<wchar_t> > const &,bool (*)(wchar_t const *,wchar_t const *,void *,_EXCEPTION_POINTERS *,MDRawAssertionInfo *,bool),void *,_MINIDUMP_TYPE)
FUNC 5e40 1e2 0 google_breakpad::ExceptionHandler::WriteMinidumpForChild(void *,unsigned long,std::basic_string<wchar_t,std::char_traits<wchar_t>,std::allocator<wchar_t> > const &,bool (*)(wchar_t const *,wchar_t const *,void *,_EXCEPTION_POINTERS *,MDRawAssertionInfo *,bool),void *,_MINIDUMP_TYPE)
FUNC 6030 118 0 google_breakpad::ExceptionHandler::RegisterAppMemory(void *,unsigned int)
FUNC 6150 109 0 google_breakpad::ExceptionHandler::UnregisterAppMemory(void *)
FUNC 6260 4e9 0 google_breakpad::ExceptionHandler::Initialize(std::basic_string<wchar_t,std::char_traits<wchar_t>,std::allocator<wchar_t> > const &,bool (*)(void *,_EXCEPTION_POINTERS *,MDRawAssertionInfo *),bool (*)(wchar_t const *,wchar_t const *,void *,_EXCEPTION_POINTERS *,MDRawAssertionInfo *,bool),void *,int,_MINIDUMP_TYPE,wchar_t const *,void *,google_breakpad::CrashGenerationClient *,google_breakpad::CustomClientInfo const *)
FUNC 6750 ee 0 google_breakpad::ExceptionHandler::ExceptionHandlerThreadMain(void *)
FUNC 6840 16e 0 google_breakpad::ExceptionHandler::HandleException(_EXCEPTION_POINTERS *)
FUNC 69b0 247 0 google_breakpad::ExceptionHandler::HandleInvalidParameter(wchar_t const *,wchar_t const *,wchar_t const *,unsigned int,unsigned int)
FUNC 6c00 1c4 0 google_breakpad::ExceptionHandler::HandlePureVirtualCall()
FUNC 6dd0 11b 0 google_breakpad::ExceptionHandler::WriteMinidumpOnHandlerThread(_EXCEPTION_POINTERS *,MDRawAssertionInfo *)
FUNC 6ef0 cc 0 google_breakpad::ExceptionHandler::WriteMinidumpWithException(unsigned long,_EXCEPTION_POINTERS *,MDRawAssertionInfo *)
FUNC 6fc0 d4 0 google_breakpad::ExceptionHandler::MinidumpWriteDumpCallback(void *,_MINIDUMP_CALLBACK_INPUT * const,_MINIDUMP_CALLBACK_OUTPUT *)
FUNC 70a0 3e4 0 google_breakpad::ExceptionHandler::WriteMinidumpWithExceptionForProcess(unsigned long,_EXCEPTION_POINTERS *,MDRawAssertionInfo *,void *,bool)
FUNC 7490 170 0 google_breakpad::ExceptionHandler::UpdateNextID()
FUNC 7dd0 20 0 std::_Compressed_pair<std::_Wrap_alloc<std::allocator<google_breakpad::ExceptionHandler *> >,std::_Vector_val<std::_Simple_types<google_breakpad::ExceptionHandler *> >,1>::_Compressed_pair<std::_Wrap_alloc<std::allocator<google_breakpad::ExceptionHandler *> >,std::_Vector_val<std::_Simple_types<google_breakpad::ExceptionHandler *> >,1><>(std::_Zero_then_variadic_args_t)
FUNC 7e00 20 0 std::_Compressed_pair<std::_Wrap_alloc<std::allocator<std::_List_node<google_breakpad::AppMemory,void *> > >,std::_List_val<std::_List_simple_types<google_breakpad::AppMemory> >,1>::_Compressed_pair<std::_Wrap_alloc<std::allocator<std::_List_node<google_breakpad::AppMemory,void *> > >,std::_List_val<std::_List_simple_types<google_breakpad::AppMemory> >,1><>(std::_Zero_then_variadic_args_t)
FUNC 7e30 25 0 std::_Wrap_alloc<std::allocator<std::_Container_proxy> >::_Wrap_alloc<std::allocator<std::_Container_proxy> ><std::_Wrap_alloc<std::allocator<google_breakpad::ExceptionHandler *> > &>(std::_Wrap_alloc<std::allocator<google_breakpad::ExceptionHandler *> > &)
FUNC 7e60 25 0 std::_Wrap_alloc<std::allocator<std::_Container_proxy> >::_Wrap_alloc<std::allocator<std::_Container_proxy> ><std::_Wrap_alloc<std::allocator<std::_List_node<google_breakpad::AppMemory,void *> > > &>(std::_Wrap_alloc<std::allocator<std::_List_node<google_breakpad::AppMemory,void *> > > &)
FUNC 7e90 10 0 std::allocator<std::_Container_proxy>::allocator<std::_Container_proxy><google_breakpad::ExceptionHandler *>(std::allocator<google_breakpad::ExceptionHandler *> const &)
FUNC 7eb0 10 0 std::allocator<std::_Container_proxy>::allocator<std::_Container_proxy><std::_List_node<google_breakpad::AppMemory,void *> >(std::allocator<std::_List_node<google_breakpad::AppMemory,void *> > const &)
FUNC 7ed0 15 0 std::operator==<std::allocator<wchar_t>,std::allocator<wchar_t> >(std::_Wrap_alloc<std::allocator<wchar_t> > const &,std::_Wrap_alloc<std::allocator<wchar_t> > const &)
FUNC 7ef0 7 0 std::operator==<wchar_t,wchar_t>(std::allocator<wchar_t> const &,std::allocator<wchar_t> const &)
FUNC 7f00 32 0 std::operator!=<std::allocator<wchar_t>,std::allocator<wchar_t> >(std::_Wrap_alloc<std::allocator<wchar_t> > const &,std::_Wrap_alloc<std::allocator<wchar_t> > const &)
FUNC 7f40 4a 0 std::less<void>::operator()<unsigned __int64 const &,unsigned __int64 const &>(unsigned __int64 const &,unsigned __int64 const &)
FUNC 7fa0 ce 0 std::_List_buy<google_breakpad::AppMemory,std::allocator<google_breakpad::AppMemory> >::_Buynode<google_breakpad::AppMemory const &>(std::_List_node<google_breakpad::AppMemory,void *> *,std::_List_node<google_breakpad::AppMemory,void *> *,google_breakpad::AppMemory const &)
FUNC 80b0 40 0 std::_Copy_memmove<google_breakpad::ExceptionHandler * *,google_breakpad::ExceptionHandler * *>(google_breakpad::ExceptionHandler * *,google_breakpad::ExceptionHandler * *,google_breakpad::ExceptionHandler * *)
FUNC 8100 60 0 std::_Debug_lt<unsigned __int64 const &,unsigned __int64 const &>(unsigned __int64 const &,unsigned __int64 const &,wchar_t const *,unsigned int)
FUNC 8180 65 0 std::_Debug_lt_pred<std::less<void>,unsigned __int64 const &,unsigned __int64 const &>(std::less<void> &&,unsigned __int64 const &,unsigned __int64 const &,wchar_t const *,unsigned int)
FUNC 8200 5f 0 std::_Debug_range2<std::_List_iterator<std::_List_val<std::_List_simple_types<google_breakpad::AppMemory> > > >(std::_List_iterator<std::_List_val<std::_List_simple_types<google_breakpad::AppMemory> > >,std::_List_iterator<std::_List_val<std::_List_simple_types<google_breakpad::AppMemory> > >,wchar_t const *,unsigned int,std::input_iterator_tag)
FUNC 8280 a6 0 std::_Debug_range<std::_List_iterator<std::_List_val<std::_List_simple_types<google_breakpad::AppMemory> > > >(std::_List_iterator<std::_List_val<std::_List_simple_types<google_breakpad::AppMemory> > >,std::_List_iterator<std::_List_val<std::_List_simple_types<google_breakpad::AppMemory> > >,wchar_t const *,unsigned int)
FUNC 8350 5 0 std::_Destroy_range1<std::allocator<google_breakpad::ExceptionHandler *>,google_breakpad::ExceptionHandler * *>(google_breakpad::ExceptionHandler * *,google_breakpad::ExceptionHandler * *,std::_Wrap_alloc<std::allocator<google_breakpad::ExceptionHandler *> > &,std::integral_constant<bool,1>)
FUNC 8360 21 0 std::_Destroy_range<std::allocator<google_breakpad::ExceptionHandler *>,google_breakpad::ExceptionHandler * *>(google_breakpad::ExceptionHandler * *,google_breakpad::ExceptionHandler * *,std::_Wrap_alloc<std::allocator<google_breakpad::ExceptionHandler *> > &)
FUNC 8390 4d 0 std::_Find_unchecked1<std::_List_unchecked_iterator<std::_List_val<std::_List_simple_types<google_breakpad::AppMemory> > >,void *>(std::_List_unchecked_iterator<std::_List_val<std::_List_simple_types<google_breakpad::AppMemory> > >,std::_List_unchecked_iterator<std::_List_val<std::_List_simple_types<google_breakpad::AppMemory> > >,void * const &,std::integral_constant<bool,0>)
FUNC 83f0 28 0 std::_Find_unchecked<std::_List_unchecked_iterator<std::_List_val<std::_List_simple_types<google_breakpad::AppMemory> > >,void *>(std::_List_unchecked_iterator<std::_List_val<std::_List_simple_types<google_breakpad::AppMemory> > >,std::_List_unchecked_iterator<std::_List_val<std::_List_simple_types<google_breakpad::AppMemory> > >,void * const &)
FUNC 8430 7c 0 std::list<google_breakpad::AppMemory,std::allocator<google_breakpad::AppMemory> >::_Insert<google_breakpad::AppMemory const &>(std::_List_unchecked_const_iterator<std::_List_val<std::_List_simple_types<google_breakpad::AppMemory> >,std::_Iterator_base0>,google_breakpad::AppMemory const &)
FUNC 84d0 19 0 std::_Move_unchecked1<google_breakpad::ExceptionHandler * *,google_breakpad::ExceptionHandler * *>(google_breakpad::ExceptionHandler * *,google_breakpad::ExceptionHandler * *,google_breakpad::ExceptionHandler * *,std::_Trivially_copyable_ptr_iterator_tag)
FUNC 84f0 35 0 std::_Move_unchecked<google_breakpad::ExceptionHandler * *,google_breakpad::ExceptionHandler * *>(google_breakpad::ExceptionHandler * *,google_breakpad::ExceptionHandler * *,google_breakpad::ExceptionHandler * *)
FUNC 8540 1d 0 std::_Pocca<std::_Wrap_alloc<std::allocator<wchar_t> > >(std::_Wrap_alloc<std::allocator<wchar_t> > &,std::_Wrap_alloc<std::allocator<wchar_t> > const &)
FUNC 8570 5 0 std::_Pocca<std::_Wrap_alloc<std::allocator<wchar_t> > >(std::_Wrap_alloc<std::allocator<wchar_t> > &,std::_Wrap_alloc<std::allocator<wchar_t> > const &,std::integral_constant<bool,0>)
FUNC 8580 1d 0 std::_Pocma<std::_Wrap_alloc<std::allocator<wchar_t> > >(std::_Wrap_alloc<std::allocator<wchar_t> > &,std::_Wrap_alloc<std::allocator<wchar_t> > &)
FUNC 85b0 46 0 std::_Pocma<std::_Wrap_alloc<std::allocator<wchar_t> > >(std::_Wrap_alloc<std::allocator<wchar_t> > &,std::_Wrap_alloc<std::allocator<wchar_t> > &,std::integral_constant<bool,1>)
FUNC 8610 8 0 std::_Ptr_move_cat<google_breakpad::ExceptionHandler *,google_breakpad::ExceptionHandler *>(google_breakpad::ExceptionHandler * * const &,google_breakpad::ExceptionHandler * * const &)
FUNC 8620 10 0 std::_Rechecked<google_breakpad::ExceptionHandler * *,google_breakpad::ExceptionHandler * *>(google_breakpad::ExceptionHandler * * &,google_breakpad::ExceptionHandler * *)
FUNC 8640 11 0 std::_Rechecked<std::_List_val<std::_List_simple_types<google_breakpad::AppMemory> > >(std::_List_iterator<std::_List_val<std::_List_simple_types<google_breakpad::AppMemory> > > &,std::_List_unchecked_iterator<std::_List_val<std::_List_simple_types<google_breakpad::AppMemory> > >)
FUNC 8660 2a 0 std::vector<google_breakpad::ExceptionHandler *,std::allocator<google_breakpad::ExceptionHandler *> >::_Umove<google_breakpad::ExceptionHandler * *>(google_breakpad::ExceptionHandler * *,google_breakpad::ExceptionHandler * *,google_breakpad::ExceptionHandler * *)
FUNC 86a0 8 0 std::_Unchecked<google_breakpad::ExceptionHandler * *>(google_breakpad::ExceptionHandler * *)
FUNC 86b0 56 0 std::_Unchecked<std::_List_val<std::_List_simple_types<google_breakpad::AppMemory> > >(std::_List_iterator<std::_List_val<std::_List_simple_types<google_breakpad::AppMemory> > >)
FUNC 8720 8 0 std::_Unfancy<wchar_t const >(wchar_t const *)
FUNC 8730 8 0 std::_Unfancy<google_breakpad::ExceptionHandler *>(google_breakpad::ExceptionHandler * *)
FUNC 8740 47 0 std::_Uninitialized_move<google_breakpad::ExceptionHandler * *,google_breakpad::ExceptionHandler * *,std::allocator<google_breakpad::ExceptionHandler *> >(google_breakpad::ExceptionHandler * *,google_breakpad::ExceptionHandler * *,google_breakpad::ExceptionHandler * *,std::_Wrap_alloc<std::allocator<google_breakpad::ExceptionHandler *> > &)
FUNC 87a0 19 0 std::_Uninitialized_move_al_unchecked1<google_breakpad::ExceptionHandler *,google_breakpad::ExceptionHandler *,std::allocator<google_breakpad::ExceptionHandler *> >(google_breakpad::ExceptionHandler * *,google_breakpad::ExceptionHandler * *,google_breakpad::ExceptionHandler * *,std::_Wrap_alloc<std::allocator<google_breakpad::ExceptionHandler *> > &,std::_Really_trivial_ptr_iterator_tag,std::integral_constant<bool,1>)
FUNC 87c0 3f 0 std::_Uninitialized_move_al_unchecked<google_breakpad::ExceptionHandler * *,google_breakpad::ExceptionHandler * *,std::allocator<google_breakpad::ExceptionHandler *> >(google_breakpad::ExceptionHandler * *,google_breakpad::ExceptionHandler * *,google_breakpad::ExceptionHandler * *,std::_Wrap_alloc<std::allocator<google_breakpad::ExceptionHandler *> > &)
FUNC 8810 5 0 __vcrt_va_start_verify_argument_type<char const * const>()
FUNC 8820 5 0 __vcrt_va_start_verify_argument_type<wchar_t const * const>()
FUNC 8830 8 0 std::addressof<google_breakpad::AppMemory const >(google_breakpad::AppMemory const &)
FUNC 8840 8 0 std::addressof<std::_List_node<google_breakpad::AppMemory,void *> *>(std::_List_node<google_breakpad::AppMemory,void *> * &)
FUNC 8850 8 0 std::addressof<google_breakpad::ExceptionHandler * const>(google_breakpad::ExceptionHandler * const &)
FUNC 8860 8 0 std::addressof<google_breakpad::AppMemory>(google_breakpad::AppMemory &)
FUNC 8870 8 0 std::addressof<wchar_t>(wchar_t &)
FUNC 8880 12b 0 std::basic_string<wchar_t,std::char_traits<wchar_t>,std::allocator<wchar_t> >::assign<std::_String_iterator<std::_String_val<std::_Simple_types<wchar_t> > > >(std::_String_iterator<std::_String_val<std::_Simple_types<wchar_t> > >,std::_String_iterator<std::_String_val<std::_Simple_types<wchar_t> > >)
FUNC 8a00 2a 0 std::_Wrap_alloc<std::allocator<std::_List_node<google_breakpad::AppMemory,void *> > >::construct<std::_List_node<google_breakpad::AppMemory,void *> *,std::_List_node<google_breakpad::AppMemory,void *> * &>(std::_List_node<google_breakpad::AppMemory,void *> * *,std::_List_node<google_breakpad::AppMemory,void *> * &)
FUNC 8a40 48 0 std::allocator<std::_List_node<google_breakpad::AppMemory,void *> >::construct<std::_List_node<google_breakpad::AppMemory,void *> *,std::_List_node<google_breakpad::AppMemory,void *> * &>(std::_List_node<google_breakpad::AppMemory,void *> * *,std::_List_node<google_breakpad::AppMemory,void *> * &)
FUNC 8aa0 1e 0 std::allocator_traits<std::allocator<std::_List_node<google_breakpad::AppMemory,void *> > >::construct<std::_List_node<google_breakpad::AppMemory,void *> *,std::_List_node<google_breakpad::AppMemory,void *> * &>(std::allocator<std::_List_node<google_breakpad::AppMemory,void *> > &,std::_List_node<google_breakpad::AppMemory,void *> * *,std::_List_node<google_breakpad::AppMemory,void *> * &)
FUNC 8ad0 2a 0 std::_Wrap_alloc<std::allocator<google_breakpad::ExceptionHandler *> >::construct<google_breakpad::ExceptionHandler *,google_breakpad::ExceptionHandler * &>(google_breakpad::ExceptionHandler * *,google_breakpad::ExceptionHandler * &)
FUNC 8b10 48 0 std::allocator<google_breakpad::ExceptionHandler *>::construct<google_breakpad::ExceptionHandler *,google_breakpad::ExceptionHandler * &>(google_breakpad::ExceptionHandler * *,google_breakpad::ExceptionHandler * &)
FUNC 8b70 1e 0 std::allocator_traits<std::allocator<google_breakpad::ExceptionHandler *> >::construct<google_breakpad::ExceptionHandler *,google_breakpad::ExceptionHandler * &>(std::allocator<google_breakpad::ExceptionHandler *> &,google_breakpad::ExceptionHandler * *,google_breakpad::ExceptionHandler * &)
FUNC 8ba0 2a 0 std::_Wrap_alloc<std::allocator<google_breakpad::ExceptionHandler *> >::construct<google_breakpad::ExceptionHandler *,google_breakpad::ExceptionHandler * const &>(google_breakpad::ExceptionHandler * *,google_breakpad::ExceptionHandler * const &)
FUNC 8be0 48 0 std::allocator<google_breakpad::ExceptionHandler *>::construct<google_breakpad::ExceptionHandler *,google_breakpad::ExceptionHandler * const &>(google_breakpad::ExceptionHandler * *,google_breakpad::ExceptionHandler * const &)
FUNC 8c40 1e 0 std::allocator_traits<std::allocator<google_breakpad::ExceptionHandler *> >::construct<google_breakpad::ExceptionHandler *,google_breakpad::ExceptionHandler * const &>(std::allocator<google_breakpad::ExceptionHandler *> &,google_breakpad::ExceptionHandler * *,google_breakpad::ExceptionHandler * const &)
FUNC 8c70 2a 0 std::_Wrap_alloc<std::allocator<std::_List_node<google_breakpad::AppMemory,void *> > >::construct<google_breakpad::AppMemory,google_breakpad::AppMemory const &>(google_breakpad::AppMemory *,google_breakpad::AppMemory const &)
FUNC 8cb0 5a 0 std::allocator<std::_List_node<google_breakpad::AppMemory,void *> >::construct<google_breakpad::AppMemory,google_breakpad::AppMemory const &>(google_breakpad::AppMemory *,google_breakpad::AppMemory const &)
FUNC 8d20 1e 0 std::allocator_traits<std::allocator<std::_List_node<google_breakpad::AppMemory,void *> > >::construct<google_breakpad::AppMemory,google_breakpad::AppMemory const &>(std::allocator<std::_List_node<google_breakpad::AppMemory,void *> > &,google_breakpad::AppMemory *,google_breakpad::AppMemory const &)
FUNC 8d50 1d 0 std::_Wrap_alloc<std::allocator<std::_List_node<google_breakpad::AppMemory,void *> > >::destroy<std::_List_node<google_breakpad::AppMemory,void *> *>(std::_List_node<google_breakpad::AppMemory,void *> * *)
FUNC 8d80 d 0 std::allocator<std::_List_node<google_breakpad::AppMemory,void *> >::destroy<std::_List_node<google_breakpad::AppMemory,void *> *>(std::_List_node<google_breakpad::AppMemory,void *> * *)
FUNC 8d90 11 0 std::allocator_traits<std::allocator<std::_List_node<google_breakpad::AppMemory,void *> > >::destroy<std::_List_node<google_breakpad::AppMemory,void *> *>(std::allocator<std::_List_node<google_breakpad::AppMemory,void *> > &,std::_List_node<google_breakpad::AppMemory,void *> * *)
FUNC 8db0 1d 0 std::_Wrap_alloc<std::allocator<google_breakpad::ExceptionHandler *> >::destroy<google_breakpad::ExceptionHandler *>(google_breakpad::ExceptionHandler * *)
FUNC 8de0 d 0 std::allocator<google_breakpad::ExceptionHandler *>::destroy<google_breakpad::ExceptionHandler *>(google_breakpad::ExceptionHandler * *)
FUNC 8df0 11 0 std::allocator_traits<std::allocator<google_breakpad::ExceptionHandler *> >::destroy<google_breakpad::ExceptionHandler *>(std::allocator<google_breakpad::ExceptionHandler *> &,google_breakpad::ExceptionHandler * *)
FUNC 8e10 1d 0 std::_Wrap_alloc<std::allocator<std::_List_node<google_breakpad::AppMemory,void *> > >::destroy<google_breakpad::AppMemory>(google_breakpad::AppMemory *)
FUNC 8e40 d 0 std::allocator<std::_List_node<google_breakpad::AppMemory,void *> >::destroy<google_breakpad::AppMemory>(google_breakpad::AppMemory *)
FUNC 8e50 11 0 std::allocator_traits<std::allocator<std::_List_node<google_breakpad::AppMemory,void *> > >::destroy<google_breakpad::AppMemory>(std::allocator<std::_List_node<google_breakpad::AppMemory,void *> > &,google_breakpad::AppMemory *)
FUNC 8e70 131 0 std::find<std::_List_iterator<std::_List_val<std::_List_simple_types<google_breakpad::AppMemory> > >,void *>(std::_List_iterator<std::_List_val<std::_List_simple_types<google_breakpad::AppMemory> > >,std::_List_iterator<std::_List_val<std::_List_simple_types<google_breakpad::AppMemory> > >,void * const &)
FUNC 8ff0 8 0 std::forward<std::_List_node<google_breakpad::AppMemory,void *> * &>(std::_List_node<google_breakpad::AppMemory,void *> * &)
FUNC 9000 8 0 std::forward<google_breakpad::ExceptionHandler * &>(google_breakpad::ExceptionHandler * &)
FUNC 9010 8 0 std::forward<std::_Wrap_alloc<std::allocator<google_breakpad::ExceptionHandler *> > &>(std::_Wrap_alloc<std::allocator<google_breakpad::ExceptionHandler *> > &)
FUNC 9020 8 0 std::forward<std::_Wrap_alloc<std::allocator<std::_List_node<google_breakpad::AppMemory,void *> > > &>(std::_Wrap_alloc<std::allocator<std::_List_node<google_breakpad::AppMemory,void *> > > &)
FUNC 9030 8 0 std::forward<google_breakpad::ExceptionHandler * const &>(google_breakpad::ExceptionHandler * const &)
FUNC 9040 8 0 std::forward<google_breakpad::AppMemory const &>(google_breakpad::AppMemory const &)
FUNC 9050 8 0 std::forward<unsigned __int64 const &>(unsigned __int64 const &)
FUNC 9060 8 0 std::forward<std::basic_string<wchar_t,std::char_traits<wchar_t>,std::allocator<wchar_t> > >(std::basic_string<wchar_t,std::char_traits<wchar_t>,std::allocator<wchar_t> > &)
FUNC 9070 42 0 std::max<unsigned __int64>(unsigned __int64 const &,unsigned __int64 const &)
FUNC 90d0 42 0 std::min<unsigned __int64>(unsigned __int64 const &,unsigned __int64 const &)
FUNC 9130 8 0 std::move<std::_Wrap_alloc<std::allocator<wchar_t> > &>(std::_Wrap_alloc<std::allocator<wchar_t> > &)
FUNC 9140 1c 0 std::_Iterator012<std::bidirectional_iterator_tag,google_breakpad::AppMemory,int,google_breakpad::AppMemory const *,google_breakpad::AppMemory const &,std::_Iterator_base12>::_Iterator012<std::bidirectional_iterator_tag,google_breakpad::AppMemory,int,google_breakpad::AppMemory const *,google_breakpad::AppMemory const &,std::_Iterator_base12>(std::_Iterator012<std::bidirectional_iterator_tag,google_breakpad::AppMemory,int,google_breakpad::AppMemory const *,google_breakpad::AppMemory const &,std::_Iterator_base12> &&)
FUNC 9170 1c 0 std::_Iterator012<std::bidirectional_iterator_tag,google_breakpad::AppMemory,int,google_breakpad::AppMemory const *,google_breakpad::AppMemory const &,std::_Iterator_base12>::_Iterator012<std::bidirectional_iterator_tag,google_breakpad::AppMemory,int,google_breakpad::AppMemory const *,google_breakpad::AppMemory const &,std::_Iterator_base12>(std::_Iterator012<std::bidirectional_iterator_tag,google_breakpad::AppMemory,int,google_breakpad::AppMemory const *,google_breakpad::AppMemory const &,std::_Iterator_base12> const &)
FUNC 91a0 16 0 std::_Iterator012<std::bidirectional_iterator_tag,google_breakpad::AppMemory,int,google_breakpad::AppMemory const *,google_breakpad::AppMemory const &,std::_Iterator_base12>::_Iterator012<std::bidirectional_iterator_tag,google_breakpad::AppMemory,int,google_breakpad::AppMemory const *,google_breakpad::AppMemory const &,std::_Iterator_base12>()
FUNC 91c0 1c 0 std::_Iterator012<std::random_access_iterator_tag,google_breakpad::ExceptionHandler *,int,google_breakpad::ExceptionHandler * const *,google_breakpad::ExceptionHandler * const &,std::_Iterator_base12>::_Iterator012<std::random_access_iterator_tag,google_breakpad::ExceptionHandler *,int,google_breakpad::ExceptionHandler * const *,google_breakpad::ExceptionHandler * const &,std::_Iterator_base12>(std::_Iterator012<std::random_access_iterator_tag,google_breakpad::ExceptionHandler *,int,google_breakpad::ExceptionHandler * const *,google_breakpad::ExceptionHandler * const &,std::_Iterator_base12> const &)
FUNC 91f0 16 0 std::_Iterator012<std::random_access_iterator_tag,google_breakpad::ExceptionHandler *,int,google_breakpad::ExceptionHandler * const *,google_breakpad::ExceptionHandler * const &,std::_Iterator_base12>::_Iterator012<std::random_access_iterator_tag,google_breakpad::ExceptionHandler *,int,google_breakpad::ExceptionHandler * const *,google_breakpad::ExceptionHandler * const &,std::_Iterator_base12>()
FUNC 9210 1c 0 std::_Iterator012<std::random_access_iterator_tag,wchar_t,int,wchar_t const *,wchar_t const &,std::_Iterator_base12>::_Iterator012<std::random_access_iterator_tag,wchar_t,int,wchar_t const *,wchar_t const &,std::_Iterator_base12>(std::_Iterator012<std::random_access_iterator_tag,wchar_t,int,wchar_t const *,wchar_t const &,std::_Iterator_base12> &&)
FUNC 9240 1c 0 std::_Iterator012<std::random_access_iterator_tag,wchar_t,int,wchar_t const *,wchar_t const &,std::_Iterator_base12>::_Iterator012<std::random_access_iterator_tag,wchar_t,int,wchar_t const *,wchar_t const &,std::_Iterator_base12>(std::_Iterator012<std::random_access_iterator_tag,wchar_t,int,wchar_t const *,wchar_t const &,std::_Iterator_base12> const &)
FUNC 9270 16 0 std::_Iterator012<std::random_access_iterator_tag,wchar_t,int,wchar_t const *,wchar_t const &,std::_Iterator_base12>::_Iterator012<std::random_access_iterator_tag,wchar_t,int,wchar_t const *,wchar_t const &,std::_Iterator_base12>()
FUNC 9290 b3 0 std::_List_alloc<std::_List_base_types<google_breakpad::AppMemory,std::allocator<google_breakpad::AppMemory> > >::_List_alloc<std::_List_base_types<google_breakpad::AppMemory,std::allocator<google_breakpad::AppMemory> > >()
FUNC 9370 16 0 std::_List_buy<google_breakpad::AppMemory,std::allocator<google_breakpad::AppMemory> >::_List_buy<google_breakpad::AppMemory,std::allocator<google_breakpad::AppMemory> >()
FUNC 9390 1c 0 std::_List_const_iterator<std::_List_val<std::_List_simple_types<google_breakpad::AppMemory> > >::_List_const_iterator<std::_List_val<std::_List_simple_types<google_breakpad::AppMemory> > >(std::_List_const_iterator<std::_List_val<std::_List_simple_types<google_breakpad::AppMemory> > > &&)
FUNC 93c0 1c 0 std::_List_const_iterator<std::_List_val<std::_List_simple_types<google_breakpad::AppMemory> > >::_List_const_iterator<std::_List_val<std::_List_simple_types<google_breakpad::AppMemory> > >(std::_List_const_iterator<std::_List_val<std::_List_simple_types<google_breakpad::AppMemory> > > const &)
FUNC 93f0 20 0 std::_List_const_iterator<std::_List_val<std::_List_simple_types<google_breakpad::AppMemory> > >::_List_const_iterator<std::_List_val<std::_List_simple_types<google_breakpad::AppMemory> > >(std::_List_node<google_breakpad::AppMemory,void *> *,std::_List_val<std::_List_simple_types<google_breakpad::AppMemory> > const *)
FUNC 9420 16 0 std::_List_const_iterator<std::_List_val<std::_List_simple_types<google_breakpad::AppMemory> > >::_List_const_iterator<std::_List_val<std::_List_simple_types<google_breakpad::AppMemory> > >()
FUNC 9440 1c 0 std::_List_iterator<std::_List_val<std::_List_simple_types<google_breakpad::AppMemory> > >::_List_iterator<std::_List_val<std::_List_simple_types<google_breakpad::AppMemory> > >(std::_List_iterator<std::_List_val<std::_List_simple_types<google_breakpad::AppMemory> > > const &)
FUNC 9470 20 0 std::_List_iterator<std::_List_val<std::_List_simple_types<google_breakpad::AppMemory> > >::_List_iterator<std::_List_val<std::_List_simple_types<google_breakpad::AppMemory> > >(std::_List_node<google_breakpad::AppMemory,void *> *,std::_List_val<std::_List_simple_types<google_breakpad::AppMemory> > const *)
FUNC 94a0 24 0 std::_List_unchecked_const_iterator<std::_List_val<std::_List_simple_types<google_breakpad::AppMemory> >,std::_Iterator_base0>::_List_unchecked_const_iterator<std::_List_val<std::_List_simple_types<google_breakpad::AppMemory> >,std::_Iterator_base0>(std::_List_node<google_breakpad::AppMemory,void *> *,std::_List_val<std::_List_simple_types<google_breakpad::AppMemory> > const *)
FUNC 94d0 28 0 std::_List_unchecked_const_iterator<std::_List_val<std::_List_simple_types<google_breakpad::AppMemory> >,std::_Iterator_base12>::_List_unchecked_const_iterator<std::_List_val<std::_List_simple_types<google_breakpad::AppMemory> >,std::_Iterator_base12>(std::_List_unchecked_const_iterator<std::_List_val<std::_List_simple_types<google_breakpad::AppMemory> >,std::_Iterator_base12> &&)
FUNC 9510 28 0 std::_List_unchecked_const_iterator<std::_List_val<std::_List_simple_types<google_breakpad::AppMemory> >,std::_Iterator_base12>::_List_unchecked_const_iterator<std::_List_val<std::_List_simple_types<google_breakpad::AppMemory> >,std::_Iterator_base12>(std::_List_unchecked_const_iterator<std::_List_val<std::_List_simple_types<google_breakpad::AppMemory> >,std::_Iterator_base12> const &)
FUNC 9550 65 0 std::_List_unchecked_const_iterator<std::_List_val<std::_List_simple_types<google_breakpad::AppMemory> >,std::_Iterator_base12>::_List_unchecked_const_iterator<std::_List_val<std::_List_simple_types<google_breakpad::AppMemory> >,std::_Iterator_base12>(std::_List_node<google_breakpad::AppMemory,void *> *,std::_List_val<std::_List_simple_types<google_breakpad::AppMemory> > const *)
FUNC 95d0 20 0 std::_List_unchecked_const_iterator<std::_List_val<std::_List_simple_types<google_breakpad::AppMemory> >,std::_Iterator_base12>::_List_unchecked_const_iterator<std::_List_val<std::_List_simple_types<google_breakpad::AppMemory> >,std::_Iterator_base12>()
FUNC 9600 20 0 std::_List_unchecked_iterator<std::_List_val<std::_List_simple_types<google_breakpad::AppMemory> > >::_List_unchecked_iterator<std::_List_val<std::_List_simple_types<google_breakpad::AppMemory> > >(std::_List_node<google_breakpad::AppMemory,void *> *,std::_List_val<std::_List_simple_types<google_breakpad::AppMemory> > const *)
FUNC 9630 2a 0 std::_List_val<std::_List_simple_types<google_breakpad::AppMemory> >::_List_val<std::_List_simple_types<google_breakpad::AppMemory> >()
FUNC 9670 28 0 std::_String_const_iterator<std::_String_val<std::_Simple_types<wchar_t> > >::_String_const_iterator<std::_String_val<std::_Simple_types<wchar_t> > >(std::_String_const_iterator<std::_String_val<std::_Simple_types<wchar_t> > > &&)
FUNC 96b0 28 0 std::_String_const_iterator<std::_String_val<std::_Simple_types<wchar_t> > >::_String_const_iterator<std::_String_val<std::_Simple_types<wchar_t> > >(std::_String_const_iterator<std::_String_val<std::_Simple_types<wchar_t> > > const &)
FUNC 96f0 65 0 std::_String_const_iterator<std::_String_val<std::_Simple_types<wchar_t> > >::_String_const_iterator<std::_String_val<std::_Simple_types<wchar_t> > >(wchar_t const *,std::_Container_base12 const *)
FUNC 9770 1c 0 std::_String_iterator<std::_String_val<std::_Simple_types<wchar_t> > >::_String_iterator<std::_String_val<std::_Simple_types<wchar_t> > >(std::_String_iterator<std::_String_val<std::_Simple_types<wchar_t> > > const &)
FUNC 97a0 20 0 std::_String_iterator<std::_String_val<std::_Simple_types<wchar_t> > >::_String_iterator<std::_String_val<std::_Simple_types<wchar_t> > >(wchar_t *,std::_Container_base12 const *)
FUNC 97d0 5d 0 std::_Vector_alloc<std::_Vec_base_types<google_breakpad::ExceptionHandler *,std::allocator<google_breakpad::ExceptionHandler *> > >::_Vector_alloc<std::_Vec_base_types<google_breakpad::ExceptionHandler *,std::allocator<google_breakpad::ExceptionHandler *> > >()
FUNC 9850 28 0 std::_Vector_const_iterator<std::_Vector_val<std::_Simple_types<google_breakpad::ExceptionHandler *> > >::_Vector_const_iterator<std::_Vector_val<std::_Simple_types<google_breakpad::ExceptionHandler *> > >(std::_Vector_const_iterator<std::_Vector_val<std::_Simple_types<google_breakpad::ExceptionHandler *> > > const &)
FUNC 9890 65 0 std::_Vector_const_iterator<std::_Vector_val<std::_Simple_types<google_breakpad::ExceptionHandler *> > >::_Vector_const_iterator<std::_Vector_val<std::_Simple_types<google_breakpad::ExceptionHandler *> > >(google_breakpad::ExceptionHandler * *,std::_Container_base12 const *)
FUNC 9910 1c 0 std::_Vector_iterator<std::_Vector_val<std::_Simple_types<google_breakpad::ExceptionHandler *> > >::_Vector_iterator<std::_Vector_val<std::_Simple_types<google_breakpad::ExceptionHandler *> > >(std::_Vector_iterator<std::_Vector_val<std::_Simple_types<google_breakpad::ExceptionHandler *> > > const &)
FUNC 9940 20 0 std::_Vector_iterator<std::_Vector_val<std::_Simple_types<google_breakpad::ExceptionHandler *> > >::_Vector_iterator<std::_Vector_val<std::_Simple_types<google_breakpad::ExceptionHandler *> > >(google_breakpad::ExceptionHandler * *,std::_Container_base12 const *)
FUNC 9970 34 0 std::_Vector_val<std::_Simple_types<google_breakpad::ExceptionHandler *> >::_Vector_val<std::_Simple_types<google_breakpad::ExceptionHandler *> >()
FUNC 99c0 16 0 std::_Wrap_alloc<std::allocator<google_breakpad::ExceptionHandler *> >::_Wrap_alloc<std::allocator<google_breakpad::ExceptionHandler *> >()
FUNC 99e0 16 0 std::_Wrap_alloc<std::allocator<std::_List_node<google_breakpad::AppMemory,void *> > >::_Wrap_alloc<std::allocator<std::_List_node<google_breakpad::AppMemory,void *> > >()
FUNC 9a00 e 0 std::allocator<google_breakpad::ExceptionHandler *>::allocator<google_breakpad::ExceptionHandler *>()
FUNC 9a20 e 0 std::allocator<std::_List_node<google_breakpad::AppMemory,void *> >::allocator<std::_List_node<google_breakpad::AppMemory,void *> >()
FUNC 9a40 16 0 std::list<google_breakpad::AppMemory,std::allocator<google_breakpad::AppMemory> >::list<google_breakpad::AppMemory,std::allocator<google_breakpad::AppMemory> >()
FUNC 9a60 18 0 google_breakpad::scoped_ptr<google_breakpad::CrashGenerationClient>::scoped_ptr<google_breakpad::CrashGenerationClient>(google_breakpad::CrashGenerationClient *)
FUNC 9a80 40 0 std::vector<google_breakpad::ExceptionHandler *,std::allocator<google_breakpad::ExceptionHandler *> >::vector<google_breakpad::ExceptionHandler *,std::allocator<google_breakpad::ExceptionHandler *> >()
FUNC 9ad0 86 0 google_breakpad::AutoExceptionHandler::AutoExceptionHandler()
FUNC 9b80 59 0 google_breakpad::MinidumpCallbackContext::MinidumpCallbackContext()
FUNC 9bf0 2f 0 std::_Iterator_base12::_Iterator_base12(std::_Iterator_base12 const &)
FUNC 9c30 21 0 std::_Iterator_base12::_Iterator_base12()
FUNC 9c60 13 0 std::_Compressed_pair<std::_Wrap_alloc<std::allocator<google_breakpad::ExceptionHandler *> >,std::_Vector_val<std::_Simple_types<google_breakpad::ExceptionHandler *> >,1>::~_Compressed_pair<std::_Wrap_alloc<std::allocator<google_breakpad::ExceptionHandler *> >,std::_Vector_val<std::_Simple_types<google_breakpad::ExceptionHandler *> >,1>()
FUNC 9c80 13 0 std::_Compressed_pair<std::_Wrap_alloc<std::allocator<std::_List_node<google_breakpad::AppMemory,void *> > >,std::_List_val<std::_List_simple_types<google_breakpad::AppMemory> >,1>::~_Compressed_pair<std::_Wrap_alloc<std::allocator<std::_List_node<google_breakpad::AppMemory,void *> > >,std::_List_val<std::_List_simple_types<google_breakpad::AppMemory> >,1>()
FUNC 9ca0 13 0 std::_Iterator012<std::bidirectional_iterator_tag,google_breakpad::AppMemory,int,google_breakpad::AppMemory const *,google_breakpad::AppMemory const &,std::_Iterator_base12>::~_Iterator012<std::bidirectional_iterator_tag,google_breakpad::AppMemory,int,google_breakpad::AppMemory const *,google_breakpad::AppMemory const &,std::_Iterator_base12>()
FUNC 9cc0 13 0 std::_Iterator012<std::random_access_iterator_tag,google_breakpad::ExceptionHandler *,int,google_breakpad::ExceptionHandler * const *,google_breakpad::ExceptionHandler * const &,std::_Iterator_base12>::~_Iterator012<std::random_access_iterator_tag,google_breakpad::ExceptionHandler *,int,google_breakpad::ExceptionHandler * const *,google_breakpad::ExceptionHandler * const &,std::_Iterator_base12>()
FUNC 9ce0 13 0 std::_Iterator012<std::random_access_iterator_tag,wchar_t,int,wchar_t const *,wchar_t const &,std::_Iterator_base12>::~_Iterator012<std::random_access_iterator_tag,wchar_t,int,wchar_t const *,wchar_t const &,std::_Iterator_base12>()
FUNC 9d00 58 0 std::_List_alloc<std::_List_base_types<google_breakpad::AppMemory,std::allocator<google_breakpad::AppMemory> > >::~_List_alloc<std::_List_base_types<google_breakpad::AppMemory,std::allocator<google_breakpad::AppMemory> > >()
FUNC 9d70 13 0 std::_List_buy<google_breakpad::AppMemory,std::allocator<google_breakpad::AppMemory> >::~_List_buy<google_breakpad::AppMemory,std::allocator<google_breakpad::AppMemory> >()
FUNC 9d90 13 0 std::_List_const_iterator<std::_List_val<std::_List_simple_types<google_breakpad::AppMemory> > >::~_List_const_iterator<std::_List_val<std::_List_simple_types<google_breakpad::AppMemory> > >()
FUNC 9db0 13 0 std::_List_iterator<std::_List_val<std::_List_simple_types<google_breakpad::AppMemory> > >::~_List_iterator<std::_List_val<std::_List_simple_types<google_breakpad::AppMemory> > >()
FUNC 9dd0 13 0 std::_List_unchecked_const_iterator<std::_List_val<std::_List_simple_types<google_breakpad::AppMemory> >,std::_Iterator_base12>::~_List_unchecked_const_iterator<std::_List_val<std::_List_simple_types<google_breakpad::AppMemory> >,std::_Iterator_base12>()
FUNC 9df0 13 0 std::_List_val<std::_List_simple_types<google_breakpad::AppMemory> >::~_List_val<std::_List_simple_types<google_breakpad::AppMemory> >()
FUNC 9e10 13 0 std::_String_const_iterator<std::_String_val<std::_Simple_types<wchar_t> > >::~_String_const_iterator<std::_String_val<std::_Simple_types<wchar_t> > >()
FUNC 9e30 13 0 std::_String_iterator<std::_String_val<std::_Simple_types<wchar_t> > >::~_String_iterator<std::_String_val<std::_Simple_types<wchar_t> > >()
FUNC 9e50 45 0 std::_Vector_alloc<std::_Vec_base_types<google_breakpad::ExceptionHandler *,std::allocator<google_breakpad::ExceptionHandler *> > >::~_Vector_alloc<std::_Vec_base_types<google_breakpad::ExceptionHandler *,std::allocator<google_breakpad::ExceptionHandler *> > >()
FUNC 9eb0 13 0 std::_Vector_const_iterator<std::_Vector_val<std::_Simple_types<google_breakpad::ExceptionHandler *> > >::~_Vector_const_iterator<std::_Vector_val<std::_Simple_types<google_breakpad::ExceptionHandler *> > >()
FUNC 9ed0 13 0 std::_Vector_iterator<std::_Vector_val<std::_Simple_types<google_breakpad::ExceptionHandler *> > >::~_Vector_iterator<std::_Vector_val<std::_Simple_types<google_breakpad::ExceptionHandler *> > >()
FUNC 9ef0 13 0 std::_Vector_val<std::_Simple_types<google_breakpad::ExceptionHandler *> >::~_Vector_val<std::_Simple_types<google_breakpad::ExceptionHandler *> >()
FUNC 9f10 45 0 std::list<google_breakpad::AppMemory,std::allocator<google_breakpad::AppMemory> >::~list<google_breakpad::AppMemory,std::allocator<google_breakpad::AppMemory> >()
FUNC 9f70 37 0 google_breakpad::scoped_ptr<google_breakpad::CrashGenerationClient>::~scoped_ptr<google_breakpad::CrashGenerationClient>()
FUNC 9fc0 45 0 std::vector<google_breakpad::ExceptionHandler *,std::allocator<google_breakpad::ExceptionHandler *> >::~vector<google_breakpad::ExceptionHandler *,std::allocator<google_breakpad::ExceptionHandler *> >()
FUNC a020 4a 0 google_breakpad::AutoExceptionHandler::~AutoExceptionHandler()
FUNC a080 1e 0 google_breakpad::MinidumpCallbackContext::~MinidumpCallbackContext()
FUNC a0b0 53 0 std::_Iterator_base12::~_Iterator_base12()
FUNC a120 1c 0 std::_Iterator012<std::bidirectional_iterator_tag,google_breakpad::AppMemory,int,google_breakpad::AppMemory const *,google_breakpad::AppMemory const &,std::_Iterator_base12>::operator=(std::_Iterator012<std::bidirectional_iterator_tag,google_breakpad::AppMemory,int,google_breakpad::AppMemory const *,google_breakpad::AppMemory const &,std::_Iterator_base12> &&)
FUNC a150 1c 0 std::_Iterator012<std::random_access_iterator_tag,google_breakpad::ExceptionHandler *,int,google_breakpad::ExceptionHandler * const *,google_breakpad::ExceptionHandler * const &,std::_Iterator_base12>::operator=(std::_Iterator012<std::random_access_iterator_tag,google_breakpad::ExceptionHandler *,int,google_breakpad::ExceptionHandler * const *,google_breakpad::ExceptionHandler * const &,std::_Iterator_base12> &&)
FUNC a180 1c 0 std::_List_const_iterator<std::_List_val<std::_List_simple_types<google_breakpad::AppMemory> > >::operator=(std::_List_const_iterator<std::_List_val<std::_List_simple_types<google_breakpad::AppMemory> > > &&)
FUNC a1b0 28 0 std::_List_unchecked_const_iterator<std::_List_val<std::_List_simple_types<google_breakpad::AppMemory> >,std::_Iterator_base12>::operator=(std::_List_unchecked_const_iterator<std::_List_val<std::_List_simple_types<google_breakpad::AppMemory> >,std::_Iterator_base12> &&)
FUNC a1f0 28 0 std::_Vector_const_iterator<std::_Vector_val<std::_Simple_types<google_breakpad::ExceptionHandler *> > >::operator=(std::_Vector_const_iterator<std::_Vector_val<std::_Simple_types<google_breakpad::ExceptionHandler *> > > &&)
FUNC a230 1c 0 std::_Vector_iterator<std::_Vector_val<std::_Simple_types<google_breakpad::ExceptionHandler *> > >::operator=(std::_Vector_iterator<std::_Vector_val<std::_Simple_types<google_breakpad::ExceptionHandler *> > > &&)
FUNC a260 1c 0 std::_Wrap_alloc<std::allocator<wchar_t> >::operator=(std::_Wrap_alloc<std::allocator<wchar_t> > &&)
FUNC a290 f1 0 std::basic_string<wchar_t,std::char_traits<wchar_t>,std::allocator<wchar_t> >::operator=(std::basic_string<wchar_t,std::char_traits<wchar_t>,std::allocator<wchar_t> > &&)
FUNC a3c0 66 0 std::basic_string<wchar_t,std::char_traits<wchar_t>,std::allocator<wchar_t> >::operator=(std::basic_string<wchar_t,std::char_traits<wchar_t>,std::allocator<wchar_t> > const &)
FUNC a440 8e 0 std::_Iterator_base12::operator=(std::_Iterator_base12 const &)
FUNC a500 b3 0 std::_List_const_iterator<std::_List_val<std::_List_simple_types<google_breakpad::AppMemory> > >::operator==(std::_List_const_iterator<std::_List_val<std::_List_simple_types<google_breakpad::AppMemory> > > const &)
FUNC a5e0 2e 0 std::_List_unchecked_const_iterator<std::_List_val<std::_List_simple_types<google_breakpad::AppMemory> >,std::_Iterator_base0>::operator==(std::_List_unchecked_const_iterator<std::_List_val<std::_List_simple_types<google_breakpad::AppMemory> >,std::_Iterator_base0> const &)
FUNC a620 3c 0 std::_String_const_iterator<std::_String_val<std::_Simple_types<wchar_t> > >::operator==(std::_String_const_iterator<std::_String_val<std::_Simple_types<wchar_t> > > const &)
FUNC a670 3c 0 std::_Vector_const_iterator<std::_Vector_val<std::_Simple_types<google_breakpad::ExceptionHandler *> > >::operator==(std::_Vector_const_iterator<std::_Vector_val<std::_Simple_types<google_breakpad::ExceptionHandler *> > > const &)
FUNC a6c0 47 0 google_breakpad::AppMemory::operator==(void const *)
FUNC a720 35 0 std::_List_const_iterator<std::_List_val<std::_List_simple_types<google_breakpad::AppMemory> > >::operator!=(std::_List_const_iterator<std::_List_val<std::_List_simple_types<google_breakpad::AppMemory> > > const &)
FUNC a770 35 0 std::_List_unchecked_const_iterator<std::_List_val<std::_List_simple_types<google_breakpad::AppMemory> >,std::_Iterator_base0>::operator!=(std::_List_unchecked_const_iterator<std::_List_val<std::_List_simple_types<google_breakpad::AppMemory> >,std::_Iterator_base0> const &)
FUNC a7c0 35 0 std::_Vector_const_iterator<std::_Vector_val<std::_Simple_types<google_breakpad::ExceptionHandler *> > >::operator!=(std::_Vector_const_iterator<std::_Vector_val<std::_Simple_types<google_breakpad::ExceptionHandler *> > > const &)
FUNC a810 1c 0 std::_List_unchecked_const_iterator<std::_List_val<std::_List_simple_types<google_breakpad::AppMemory> >,std::_Iterator_base12>::operator->()
FUNC a840 2d 0 google_breakpad::scoped_ptr<google_breakpad::CrashGenerationClient>::operator->()
FUNC a880 af 0 std::_List_const_iterator<std::_List_val<std::_List_simple_types<google_breakpad::AppMemory> > >::operator*()
FUNC a960 13 0 std::_List_iterator<std::_List_val<std::_List_simple_types<google_breakpad::AppMemory> > >::operator*()
FUNC a980 19 0 std::_List_unchecked_const_iterator<std::_List_val<std::_List_simple_types<google_breakpad::AppMemory> >,std::_Iterator_base0>::operator*()
FUNC a9a0 1a 0 std::_List_unchecked_const_iterator<std::_List_val<std::_List_simple_types<google_breakpad::AppMemory> >,std::_Iterator_base12>::operator*()
FUNC a9c0 13 0 std::_List_unchecked_iterator<std::_List_val<std::_List_simple_types<google_breakpad::AppMemory> > >::operator*()
FUNC a9e0 e4 0 std::_String_const_iterator<std::_String_val<std::_Simple_types<wchar_t> > >::operator*()
FUNC ab00 13 0 std::_String_iterator<std::_String_val<std::_Simple_types<wchar_t> > >::operator*()
FUNC ab20 ab 0 std::_Vector_const_iterator<std::_Vector_val<std::_Simple_types<google_breakpad::ExceptionHandler *> > >::operator*()
FUNC ac00 13 0 std::_Vector_iterator<std::_Vector_val<std::_Simple_types<google_breakpad::ExceptionHandler *> > >::operator*()
FUNC ac20 82 0 std::_List_const_iterator<std::_List_val<std::_List_simple_types<google_breakpad::AppMemory> > >::operator++(int)
FUNC acd0 ba 0 std::_List_const_iterator<std::_List_val<std::_List_simple_types<google_breakpad::AppMemory> > >::operator++()
FUNC adc0 23 0 std::_List_unchecked_const_iterator<std::_List_val<std::_List_simple_types<google_breakpad::AppMemory> >,std::_Iterator_base0>::operator++()
FUNC adf0 16 0 std::_List_unchecked_iterator<std::_List_val<std::_List_simple_types<google_breakpad::AppMemory> > >::operator++()
FUNC ae10 a9 0 std::_Vector_const_iterator<std::_Vector_val<std::_Simple_types<google_breakpad::ExceptionHandler *> > >::operator++()
FUNC aef0 16 0 std::_Vector_iterator<std::_Vector_val<std::_Simple_types<google_breakpad::ExceptionHandler *> > >::operator++()
FUNC af10 27 0 std::_String_const_iterator<std::_String_val<std::_Simple_types<wchar_t> > >::operator-(std::_String_const_iterator<std::_String_val<std::_Simple_types<wchar_t> > > const &)
FUNC af40 19 0 std::_String_iterator<std::_String_val<std::_Simple_types<wchar_t> > >::operator-(std::_String_const_iterator<std::_String_val<std::_Simple_types<wchar_t> > > const &)
FUNC af60 83 0 std::_Vector_iterator<std::_Vector_val<std::_Simple_types<google_breakpad::ExceptionHandler *> > >::operator-(int)
FUNC b010 d2 0 std::_Vector_const_iterator<std::_Vector_val<std::_Simple_types<google_breakpad::ExceptionHandler *> > >::operator+=(int)
FUNC b120 1c 0 std::_Vector_iterator<std::_Vector_val<std::_Simple_types<google_breakpad::ExceptionHandler *> > >::operator+=(int)
FUNC b150 1b 0 std::_Vector_iterator<std::_Vector_val<std::_Simple_types<google_breakpad::ExceptionHandler *> > >::operator-=(int)
FUNC b180 2e 0 std::vector<google_breakpad::ExceptionHandler *,std::allocator<google_breakpad::ExceptionHandler *> >::`scalar deleting destructor'(unsigned int)
FUNC b1c0 31 0 google_breakpad::CrashGenerationClient::`scalar deleting destructor'(unsigned int)
FUNC b200 2f 0 google_breakpad::ExceptionHandler::IsOutOfProcess()
FUNC b240 d 0 std::_Iterator_base0::_Adopt(void const *)
FUNC b250 c4 0 std::_Iterator_base12::_Adopt(std::_Container_base12 const *)
FUNC b350 71 0 std::_List_alloc<std::_List_base_types<google_breakpad::AppMemory,std::allocator<google_breakpad::AppMemory> > >::_Alloc_proxy()
FUNC b3e0 71 0 std::_Vector_alloc<std::_Vec_base_types<google_breakpad::ExceptionHandler *,std::allocator<google_breakpad::ExceptionHandler *> > >::_Alloc_proxy()
FUNC b470 b6 0 std::basic_string<wchar_t,std::char_traits<wchar_t>,std::allocator<wchar_t> >::_Assign_rv(std::basic_string<wchar_t,std::char_traits<wchar_t>,std::allocator<wchar_t> > &&)
FUNC b560 17 0 std::_List_alloc<std::_List_base_types<google_breakpad::AppMemory,std::allocator<google_breakpad::AppMemory> > >::_Buyheadnode()
FUNC b580 107 0 std::_List_alloc<std::_List_base_types<google_breakpad::AppMemory,std::allocator<google_breakpad::AppMemory> > >::_Buynode0(std::_List_node<google_breakpad::AppMemory,void *> *,std::_List_node<google_breakpad::AppMemory,void *> *)
FUNC b6d0 14 0 std::_Iterator_base12::_Clrcont()
FUNC b6f0 90 0 std::_String_const_iterator<std::_String_val<std::_Simple_types<wchar_t> > >::_Compat(std::_String_const_iterator<std::_String_val<std::_Simple_types<wchar_t> > > const &)
FUNC b7b0 90 0 std::_Vector_const_iterator<std::_Vector_val<std::_Simple_types<google_breakpad::ExceptionHandler *> > >::_Compat(std::_Vector_const_iterator<std::_Vector_val<std::_Simple_types<google_breakpad::ExceptionHandler *> > > const &)
FUNC b870 32 0 std::_String_alloc<std::_String_base_types<wchar_t,std::allocator<wchar_t> > >::_Copy_alloc(std::_Wrap_alloc<std::allocator<wchar_t> > const &)
FUNC b8b0 26 0 std::vector<google_breakpad::ExceptionHandler *,std::allocator<google_breakpad::ExceptionHandler *> >::_Destroy(google_breakpad::ExceptionHandler * *,google_breakpad::ExceptionHandler * *)
FUNC b8e0 65 0 std::_List_alloc<std::_List_base_types<google_breakpad::AppMemory,std::allocator<google_breakpad::AppMemory> > >::_Free_proxy()
FUNC b960 65 0 std::_Vector_alloc<std::_Vec_base_types<google_breakpad::ExceptionHandler *,std::allocator<google_breakpad::ExceptionHandler *> > >::_Free_proxy()
FUNC b9e0 6c 0 std::_List_alloc<std::_List_base_types<google_breakpad::AppMemory,std::allocator<google_breakpad::AppMemory> > >::_Freeheadnode(std::_List_node<google_breakpad::AppMemory,void *> *)
FUNC ba70 91 0 std::_List_buy<google_breakpad::AppMemory,std::allocator<google_breakpad::AppMemory> >::_Freenode(std::_List_node<google_breakpad::AppMemory,void *> *)
FUNC bb30 13 0 std::_List_alloc<std::_List_base_types<google_breakpad::AppMemory,std::allocator<google_breakpad::AppMemory> > >::_Get_data()
FUNC bb50 13 0 std::_List_alloc<std::_List_base_types<google_breakpad::AppMemory,std::allocator<google_breakpad::AppMemory> > >::_Get_data()
FUNC bb70 13 0 std::_Vector_alloc<std::_Vec_base_types<google_breakpad::ExceptionHandler *,std::allocator<google_breakpad::ExceptionHandler *> > >::_Get_data()
FUNC bb90 13 0 std::_Vector_alloc<std::_Vec_base_types<google_breakpad::ExceptionHandler *,std::allocator<google_breakpad::ExceptionHandler *> > >::_Get_data()
FUNC bbb0 e 0 std::_Compressed_pair<std::_Wrap_alloc<std::allocator<google_breakpad::ExceptionHandler *> >,std::_Vector_val<std::_Simple_types<google_breakpad::ExceptionHandler *> >,1>::_Get_first()
FUNC bbd0 e 0 std::_Compressed_pair<std::_Wrap_alloc<std::allocator<google_breakpad::ExceptionHandler *> >,std::_Vector_val<std::_Simple_types<google_breakpad::ExceptionHandler *> >,1>::_Get_first()
FUNC bbf0 e 0 std::_Compressed_pair<std::_Wrap_alloc<std::allocator<std::_List_node<google_breakpad::AppMemory,void *> > >,std::_List_val<std::_List_simple_types<google_breakpad::AppMemory> >,1>::_Get_first()
FUNC bc10 e 0 std::_Compressed_pair<std::_Wrap_alloc<std::allocator<std::_List_node<google_breakpad::AppMemory,void *> > >,std::_List_val<std::_List_simple_types<google_breakpad::AppMemory> >,1>::_Get_first()
FUNC bc30 e 0 std::_Compressed_pair<std::_Wrap_alloc<std::allocator<google_breakpad::ExceptionHandler *> >,std::_Vector_val<std::_Simple_types<google_breakpad::ExceptionHandler *> >,1>::_Get_second()
FUNC bc50 e 0 std::_Compressed_pair<std::_Wrap_alloc<std::allocator<google_breakpad::ExceptionHandler *> >,std::_Vector_val<std::_Simple_types<google_breakpad::ExceptionHandler *> >,1>::_Get_second()
FUNC bc70 e 0 std::_Compressed_pair<std::_Wrap_alloc<std::allocator<std::_List_node<google_breakpad::AppMemory,void *> > >,std::_List_val<std::_List_simple_types<google_breakpad::AppMemory> >,1>::_Get_second()
FUNC bc90 e 0 std::_Compressed_pair<std::_Wrap_alloc<std::allocator<std::_List_node<google_breakpad::AppMemory,void *> > >,std::_List_val<std::_List_simple_types<google_breakpad::AppMemory> >,1>::_Get_second()
FUNC bcb0 13 0 std::_List_alloc<std::_List_base_types<google_breakpad::AppMemory,std::allocator<google_breakpad::AppMemory> > >::_Getal()
FUNC bcd0 13 0 std::_List_alloc<std::_List_base_types<google_breakpad::AppMemory,std::allocator<google_breakpad::AppMemory> > >::_Getal()
FUNC bcf0 13 0 std::_Vector_alloc<std::_Vec_base_types<google_breakpad::ExceptionHandler *,std::allocator<google_breakpad::ExceptionHandler *> > >::_Getal()
FUNC bd10 13 0 std::_Vector_alloc<std::_Vec_base_types<google_breakpad::ExceptionHandler *,std::allocator<google_breakpad::ExceptionHandler *> > >::_Getal()
FUNC bd30 2b 0 std::_Iterator_base12::_Getcont()
FUNC bd70 1a 0 std::_List_alloc<std::_List_base_types<google_breakpad::AppMemory,std::allocator<google_breakpad::AppMemory> > >::_Getpfirst()
FUNC bd90 1a 0 std::_Vector_alloc<std::_Vec_base_types<google_breakpad::ExceptionHandler *,std::allocator<google_breakpad::ExceptionHandler *> > >::_Getpfirst()
FUNC bdb0 2c 0 std::_Container_base12::_Getpfirst()
FUNC bdf0 11 0 std::_Iterator_base12::_Getpnext()
FUNC be10 59 0 std::vector<google_breakpad::ExceptionHandler *,std::allocator<google_breakpad::ExceptionHandler *> >::_Grow_to(unsigned int)
FUNC be80 50 0 std::list<google_breakpad::AppMemory,std::allocator<google_breakpad::AppMemory> >::_Incsize(unsigned int)
FUNC bef0 52 0 std::vector<google_breakpad::ExceptionHandler *,std::allocator<google_breakpad::ExceptionHandler *> >::_Inside(google_breakpad::ExceptionHandler * const *)
FUNC bf60 57 0 std::list<google_breakpad::AppMemory,std::allocator<google_breakpad::AppMemory> >::_Make_iter(std::_List_const_iterator<std::_List_val<std::_List_simple_types<google_breakpad::AppMemory> > >)
FUNC bfd0 77 0 std::vector<google_breakpad::ExceptionHandler *,std::allocator<google_breakpad::ExceptionHandler *> >::_Make_iter(std::_Vector_const_iterator<std::_Vector_val<std::_Simple_types<google_breakpad::ExceptionHandler *> > >)
FUNC c070 32 0 std::_String_alloc<std::_String_base_types<wchar_t,std::allocator<wchar_t> > >::_Move_alloc(std::_Wrap_alloc<std::allocator<wchar_t> > &)
FUNC c0b0 16 0 std::_Vector_alloc<std::_Vec_base_types<google_breakpad::ExceptionHandler *,std::allocator<google_breakpad::ExceptionHandler *> > >::_Myend()
FUNC c0d0 16 0 std::_Vector_alloc<std::_Vec_base_types<google_breakpad::ExceptionHandler *,std::allocator<google_breakpad::ExceptionHandler *> > >::_Myend()
FUNC c0f0 16 0 std::_Vector_alloc<std::_Vec_base_types<google_breakpad::ExceptionHandler *,std::allocator<google_breakpad::ExceptionHandler *> > >::_Myfirst()
FUNC c110 16 0 std::_Vector_alloc<std::_Vec_base_types<google_breakpad::ExceptionHandler *,std::allocator<google_breakpad::ExceptionHandler *> > >::_Myfirst()
FUNC c130 16 0 std::_List_alloc<std::_List_base_types<google_breakpad::AppMemory,std::allocator<google_breakpad::AppMemory> > >::_Myhead()
FUNC c150 16 0 std::_Vector_alloc<std::_Vec_base_types<google_breakpad::ExceptionHandler *,std::allocator<google_breakpad::ExceptionHandler *> > >::_Mylast()
FUNC c170 16 0 std::_Vector_alloc<std::_Vec_base_types<google_breakpad::ExceptionHandler *,std::allocator<google_breakpad::ExceptionHandler *> > >::_Mylast()
FUNC c190 10 0 std::_List_unchecked_const_iterator<std::_List_val<std::_List_simple_types<google_breakpad::AppMemory> >,std::_Iterator_base0>::_Mynode()
FUNC c1b0 11 0 std::_List_unchecked_const_iterator<std::_List_val<std::_List_simple_types<google_breakpad::AppMemory> >,std::_Iterator_base12>::_Mynode()
FUNC c1d0 13 0 std::_List_alloc<std::_List_base_types<google_breakpad::AppMemory,std::allocator<google_breakpad::AppMemory> > >::_Myproxy()
FUNC c1f0 13 0 std::_Vector_alloc<std::_Vec_base_types<google_breakpad::ExceptionHandler *,std::allocator<google_breakpad::ExceptionHandler *> > >::_Myproxy()
FUNC c210 16 0 std::_List_alloc<std::_List_base_types<google_breakpad::AppMemory,std::allocator<google_breakpad::AppMemory> > >::_Mysize()
FUNC c230 11 0 std::_List_alloc<std::_List_base_types<google_breakpad::AppMemory,std::allocator<google_breakpad::AppMemory> > >::_Myval(std::_List_node<google_breakpad::AppMemory,void *> *)
FUNC c250 b 0 std::_List_val<std::_List_simple_types<google_breakpad::AppMemory> >::_Myval(std::_List_node<google_breakpad::AppMemory,void *> *)
FUNC c260 11 0 std::_List_alloc<std::_List_base_types<google_breakpad::AppMemory,std::allocator<google_breakpad::AppMemory> > >::_Nextnode(std::_List_node<google_breakpad::AppMemory,void *> *)
FUNC c280 8 0 std::_List_val<std::_List_simple_types<google_breakpad::AppMemory> >::_Nextnode(std::_List_node<google_breakpad::AppMemory,void *> *)
FUNC c290 1a 0 std::_List_alloc<std::_List_base_types<google_breakpad::AppMemory,std::allocator<google_breakpad::AppMemory> > >::_Orphan_all()
FUNC c2b0 1a 0 std::_Vector_alloc<std::_Vec_base_types<google_breakpad::ExceptionHandler *,std::allocator<google_breakpad::ExceptionHandler *> > >::_Orphan_all()
FUNC c2d0 73 0 std::_Iterator_base12::_Orphan_me()
FUNC c360 c9 0 std::list<google_breakpad::AppMemory,std::allocator<google_breakpad::AppMemory> >::_Orphan_ptr(std::_List_node<google_breakpad::AppMemory,void *> *)
FUNC c460 ba 0 std::vector<google_breakpad::ExceptionHandler *,std::allocator<google_breakpad::ExceptionHandler *> >::_Orphan_range(google_breakpad::ExceptionHandler * *,google_breakpad::ExceptionHandler * *)
FUNC c550 11 0 std::_List_alloc<std::_List_base_types<google_breakpad::AppMemory,std::allocator<google_breakpad::AppMemory> > >::_Prevnode(std::_List_node<google_breakpad::AppMemory,void *> *)
FUNC c570 b 0 std::_List_val<std::_List_simple_types<google_breakpad::AppMemory> >::_Prevnode(std::_List_node<google_breakpad::AppMemory,void *> *)
FUNC c580 15f 0 std::vector<google_breakpad::ExceptionHandler *,std::allocator<google_breakpad::ExceptionHandler *> >::_Reallocate(unsigned int)
FUNC c740 19 0 std::_List_iterator<std::_List_val<std::_List_simple_types<google_breakpad::AppMemory> > >::_Rechecked(std::_List_unchecked_iterator<std::_List_val<std::_List_simple_types<google_breakpad::AppMemory> > >)
FUNC c760 5a 0 std::vector<google_breakpad::ExceptionHandler *,std::allocator<google_breakpad::ExceptionHandler *> >::_Reserve(unsigned int)
FUNC c7d0 13 0 std::list<google_breakpad::AppMemory,std::allocator<google_breakpad::AppMemory> >::_Tidy()
FUNC c7f0 a2 0 std::vector<google_breakpad::ExceptionHandler *,std::allocator<google_breakpad::ExceptionHandler *> >::_Tidy()
FUNC c8c0 28 0 std::_List_iterator<std::_List_val<std::_List_simple_types<google_breakpad::AppMemory> > >::_Unchecked()
FUNC c900 2c 0 std::list<google_breakpad::AppMemory,std::allocator<google_breakpad::AppMemory> >::_Unchecked_end()
FUNC c940 118 0 std::list<google_breakpad::AppMemory,std::allocator<google_breakpad::AppMemory> >::_Unlinknode(std::_List_const_iterator<std::_List_val<std::_List_simple_types<google_breakpad::AppMemory> > >)
FUNC caa0 28 0 std::vector<google_breakpad::ExceptionHandler *,std::allocator<google_breakpad::ExceptionHandler *> >::_Unused_capacity()
FUNC cae0 16 0 std::vector<google_breakpad::ExceptionHandler *,std::allocator<google_breakpad::ExceptionHandler *> >::_Xlen()
FUNC cb00 16 0 std::vector<google_breakpad::ExceptionHandler *,std::allocator<google_breakpad::ExceptionHandler *> >::_Xran()
FUNC cb20 19 0 std::_Wrap_alloc<std::allocator<wchar_t> >::address(wchar_t &)
FUNC cb40 19 0 std::_Wrap_alloc<std::allocator<google_breakpad::ExceptionHandler *> >::allocate(unsigned int)
FUNC cb60 19 0 std::_Wrap_alloc<std::allocator<std::_List_node<google_breakpad::AppMemory,void *> > >::allocate(unsigned int)
FUNC cb80 1d 0 std::allocator<google_breakpad::ExceptionHandler *>::allocate(unsigned int)
FUNC cbb0 1d 0 std::allocator<std::_List_node<google_breakpad::AppMemory,void *> >::allocate(unsigned int)
FUNC cbe0 21 0 std::basic_string<wchar_t,std::char_traits<wchar_t>,std::allocator<wchar_t> >::assign(std::basic_string<wchar_t,std::char_traits<wchar_t>,std::allocator<wchar_t> > const &)
FUNC cc10 32 0 std::vector<google_breakpad::ExceptionHandler *,std::allocator<google_breakpad::ExceptionHandler *> >::at(unsigned int)
FUNC cc50 97 0 std::vector<google_breakpad::ExceptionHandler *,std::allocator<google_breakpad::ExceptionHandler *> >::back()
FUNC cd10 6c 0 std::basic_string<wchar_t,std::char_traits<wchar_t>,std::allocator<wchar_t> >::begin()
FUNC cda0 61 0 std::list<google_breakpad::AppMemory,std::allocator<google_breakpad::AppMemory> >::begin()
FUNC ce20 56 0 std::vector<google_breakpad::ExceptionHandler *,std::allocator<google_breakpad::ExceptionHandler *> >::begin()
FUNC ce90 3d 0 std::basic_string<wchar_t,std::char_traits<wchar_t>,std::allocator<wchar_t> >::c_str()
FUNC cee0 28 0 std::vector<google_breakpad::ExceptionHandler *,std::allocator<google_breakpad::ExceptionHandler *> >::capacity()
FUNC cf20 e1 0 std::list<google_breakpad::AppMemory,std::allocator<google_breakpad::AppMemory> >::clear()
FUNC d040 1d 0 std::_Wrap_alloc<std::allocator<google_breakpad::ExceptionHandler *> >::deallocate(google_breakpad::ExceptionHandler * *,unsigned int)
FUNC d070 1d 0 std::_Wrap_alloc<std::allocator<std::_List_node<google_breakpad::AppMemory,void *> > >::deallocate(std::_List_node<google_breakpad::AppMemory,void *> *,unsigned int)
FUNC d0a0 1f 0 std::allocator<google_breakpad::ExceptionHandler *>::deallocate(google_breakpad::ExceptionHandler * *,unsigned int)
FUNC d0d0 1f 0 std::allocator<std::_List_node<google_breakpad::AppMemory,void *> >::deallocate(std::_List_node<google_breakpad::AppMemory,void *> *,unsigned int)
FUNC d100 3a 0 std::vector<google_breakpad::ExceptionHandler *,std::allocator<google_breakpad::ExceptionHandler *> >::empty()
FUNC d150 75 0 std::basic_string<wchar_t,std::char_traits<wchar_t>,std::allocator<wchar_t> >::end()
FUNC d1f0 56 0 std::list<google_breakpad::AppMemory,std::allocator<google_breakpad::AppMemory> >::end()
FUNC d260 56 0 std::vector<google_breakpad::ExceptionHandler *,std::allocator<google_breakpad::ExceptionHandler *> >::end()
FUNC d2d0 b8 0 std::list<google_breakpad::AppMemory,std::allocator<google_breakpad::AppMemory> >::erase(std::_List_const_iterator<std::_List_val<std::_List_simple_types<google_breakpad::AppMemory> > >)
FUNC d3c0 141 0 std::vector<google_breakpad::ExceptionHandler *,std::allocator<google_breakpad::ExceptionHandler *> >::erase(std::_Vector_const_iterator<std::_Vector_val<std::_Simple_types<google_breakpad::ExceptionHandler *> > >)
FUNC d560 70 0 std::list<google_breakpad::AppMemory,std::allocator<google_breakpad::AppMemory> >::front()
FUNC d5f0 10 0 google_breakpad::scoped_ptr<google_breakpad::CrashGenerationClient>::get()
FUNC d610 14 0 google_breakpad::ExceptionHandler::get_handle_debug_exceptions()
FUNC d630 10 0 google_breakpad::AutoExceptionHandler::get_handler()
FUNC d650 19 0 std::_Wrap_alloc<std::allocator<google_breakpad::ExceptionHandler *> >::max_size(std::_Nil)
FUNC d670 19 0 std::_Wrap_alloc<std::allocator<std::_List_node<google_breakpad::AppMemory,void *> > >::max_size(std::_Nil)
FUNC d690 10 0 std::allocator<google_breakpad::ExceptionHandler *>::max_size()
FUNC d6b0 10 0 std::allocator<std::_List_node<google_breakpad::AppMemory,void *> >::max_size()
FUNC d6d0 d 0 std::allocator_traits<std::allocator<google_breakpad::ExceptionHandler *> >::max_size(std::allocator<google_breakpad::ExceptionHandler *> const &)
FUNC d6e0 d 0 std::allocator_traits<std::allocator<std::_List_node<google_breakpad::AppMemory,void *> > >::max_size(std::allocator<std::_List_node<google_breakpad::AppMemory,void *> > const &)
FUNC d6f0 21 0 std::list<google_breakpad::AppMemory,std::allocator<google_breakpad::AppMemory> >::max_size()
FUNC d720 21 0 std::vector<google_breakpad::ExceptionHandler *,std::allocator<google_breakpad::ExceptionHandler *> >::max_size()
FUNC d750 11 0 std::pointer_traits<wchar_t *>::pointer_to(wchar_t &)
FUNC d770 11 0 std::pointer_traits<google_breakpad::AppMemory const *>::pointer_to(google_breakpad::AppMemory const &)
FUNC d790 95 0 std::vector<google_breakpad::ExceptionHandler *,std::allocator<google_breakpad::ExceptionHandler *> >::pop_back()
FUNC d850 30 0 std::list<google_breakpad::AppMemory,std::allocator<google_breakpad::AppMemory> >::push_back(google_breakpad::AppMemory const &)
FUNC d890 167 0 std::vector<google_breakpad::ExceptionHandler *,std::allocator<google_breakpad::ExceptionHandler *> >::push_back(google_breakpad::ExceptionHandler * const &)
FUNC da50 21 0 google_breakpad::scoped_ptr<google_breakpad::CrashGenerationClient>::release()
FUNC da80 34d 0 std::basic_string<wchar_t,std::char_traits<wchar_t>,std::allocator<wchar_t> >::replace(unsigned int,unsigned int,std::basic_string<wchar_t,std::char_traits<wchar_t>,std::allocator<wchar_t> > const &,unsigned int,unsigned int)
FUNC dea0 1ab 0 std::basic_string<wchar_t,std::char_traits<wchar_t>,std::allocator<wchar_t> >::replace(unsigned int,unsigned int,wchar_t const *,unsigned int)
FUNC e0c0 135 0 std::basic_string<wchar_t,std::char_traits<wchar_t>,std::allocator<wchar_t> >::replace(std::_String_const_iterator<std::_String_val<std::_Simple_types<wchar_t> > >,std::_String_const_iterator<std::_String_val<std::_Simple_types<wchar_t> > >,std::_String_iterator<std::_String_val<std::_Simple_types<wchar_t> > >,std::_String_iterator<std::_String_val<std::_Simple_types<wchar_t> > >)
FUNC e250 4b 0 google_breakpad::scoped_ptr<google_breakpad::CrashGenerationClient>::reset(google_breakpad::CrashGenerationClient *)
FUNC e2b0 35 0 google_breakpad::ExceptionHandler::set_dump_path(std::basic_string<wchar_t,std::char_traits<wchar_t>,std::allocator<wchar_t> > const &)
FUNC e300 28 0 std::vector<google_breakpad::ExceptionHandler *,std::allocator<google_breakpad::ExceptionHandler *> >::size()
FUNC e340 a 0 __local_stdio_printf_options
FUNC e350 40 0 _snwprintf_s
FUNC e3a0 2a 0 _vfprintf_l
FUNC e3e0 52 0 _vsnwprintf_s_l
FUNC e450 4e 0 _vswprintf_s_l
FUNC e4c0 38 0 fprintf
FUNC e510 3c 0 swprintf_s
FUNC e560 118 0 google_breakpad::WindowsStringUtils::safe_mbstowcs(std::basic_string<char,std::char_traits<char>,std::allocator<char> > const &,std::basic_string<wchar_t,std::char_traits<wchar_t>,std::allocator<wchar_t> > *)
FUNC e680 118 0 google_breakpad::WindowsStringUtils::safe_wcstombs(std::basic_string<wchar_t,std::char_traits<wchar_t>,std::allocator<wchar_t> > const &,std::basic_string<char,std::char_traits<char>,std::allocator<char> > *)
FUNC e7a0 b5 0 google_breakpad::WindowsStringUtils::GetBaseName(std::basic_string<wchar_t,std::char_traits<wchar_t>,std::allocator<wchar_t> > const &)
FUNC e920 20 0 std::_Compressed_pair<std::_Wrap_alloc<std::allocator<char> >,std::_Vector_val<std::_Simple_types<char> >,1>::_Compressed_pair<std::_Wrap_alloc<std::allocator<char> >,std::_Vector_val<std::_Simple_types<char> >,1><>(std::_Zero_then_variadic_args_t)
FUNC e950 20 0 std::_Compressed_pair<std::_Wrap_alloc<std::allocator<wchar_t> >,std::_Vector_val<std::_Simple_types<wchar_t> >,1>::_Compressed_pair<std::_Wrap_alloc<std::allocator<wchar_t> >,std::_Vector_val<std::_Simple_types<wchar_t> >,1><>(std::_Zero_then_variadic_args_t)
FUNC e980 25 0 std::_Wrap_alloc<std::allocator<std::_Container_proxy> >::_Wrap_alloc<std::allocator<std::_Container_proxy> ><std::_Wrap_alloc<std::allocator<char> > &>(std::_Wrap_alloc<std::allocator<char> > &)
FUNC e9b0 10 0 std::allocator<std::_Container_proxy>::allocator<std::_Container_proxy><char>(std::allocator<char> const &)
FUNC e9d0 2d 0 std::_Compressed_pair<std::_Wrap_alloc<std::allocator<wchar_t> >,std::_String_val<std::_Simple_types<wchar_t> >,1>::_Compressed_pair<std::_Wrap_alloc<std::allocator<wchar_t> >,std::_String_val<std::_Simple_types<wchar_t> >,1><std::_Wrap_alloc<std::allocator<wchar_t> > >(std::_One_then_variadic_args_t,std::_Wrap_alloc<std::allocator<wchar_t> > &&)
FUNC ea10 6c 0 std::_String_alloc<std::_String_base_types<wchar_t,std::allocator<wchar_t> > >::_String_alloc<std::_String_base_types<wchar_t,std::allocator<wchar_t> > ><std::_Wrap_alloc<std::allocator<wchar_t> >,void>(std::_Wrap_alloc<std::allocator<wchar_t> > &&)
FUNC eaa0 25 0 std::_Wrap_alloc<std::allocator<wchar_t> >::_Wrap_alloc<std::allocator<wchar_t> ><std::allocator<wchar_t> >(std::allocator<wchar_t> &&)
FUNC ead0 21 0 std::_Debug_pointer<char const >(char const *,wchar_t const *,unsigned int)
FUNC eb00 29 0 std::_Debug_pointer_if<char const >(bool,char const *,wchar_t const *,unsigned int)
FUNC eb40 5 0 std::_Destroy_range1<std::allocator<char>,char *>(char *,char *,std::_Wrap_alloc<std::allocator<char> > &,std::integral_constant<bool,1>)
FUNC eb50 5 0 std::_Destroy_range1<std::allocator<wchar_t>,wchar_t *>(wchar_t *,wchar_t *,std::_Wrap_alloc<std::allocator<wchar_t> > &,std::integral_constant<bool,1>)
FUNC eb60 21 0 std::_Destroy_range<std::allocator<char>,char *>(char *,char *,std::_Wrap_alloc<std::allocator<char> > &)
FUNC eb90 21 0 std::_Destroy_range<std::allocator<wchar_t>,wchar_t *>(wchar_t *,wchar_t *,std::_Wrap_alloc<std::allocator<wchar_t> > &)
FUNC ebc0 8 0 std::_Unfancy<char>(char *)
FUNC ebd0 17 0 std::_Uninitialized_default_fill_n1<char *,unsigned int,std::allocator<char> >(char *,unsigned int,std::_Wrap_alloc<std::allocator<char> > &,std::integral_constant<bool,1>)
FUNC ebf0 19 0 std::_Uninitialized_default_fill_n1<wchar_t *,unsigned int,std::allocator<wchar_t> >(wchar_t *,unsigned int,std::_Wrap_alloc<std::allocator<wchar_t> > &,std::integral_constant<bool,1>)
FUNC ec10 21 0 std::_Uninitialized_default_fill_n<char *,unsigned int,std::allocator<char> >(char *,unsigned int,std::_Wrap_alloc<std::allocator<char> > &)
FUNC ec40 21 0 std::_Uninitialized_default_fill_n<wchar_t *,unsigned int,std::allocator<wchar_t> >(wchar_t *,unsigned int,std::_Wrap_alloc<std::allocator<wchar_t> > &)
FUNC ec70 8 0 std::addressof<char *>(char * &)
FUNC ec80 2a 0 std::_Wrap_alloc<std::allocator<char> >::construct<char *,char * &>(char * *,char * &)
FUNC ecc0 48 0 std::allocator<char>::construct<char *,char * &>(char * *,char * &)
FUNC ed20 1e 0 std::allocator_traits<std::allocator<char> >::construct<char *,char * &>(std::allocator<char> &,char * *,char * &)
FUNC ed50 1d 0 std::_Wrap_alloc<std::allocator<char> >::destroy<char *>(char * *)
FUNC ed80 d 0 std::allocator<char>::destroy<char *>(char * *)
FUNC ed90 11 0 std::allocator_traits<std::allocator<char> >::destroy<char *>(std::allocator<char> &,char * *)
FUNC edb0 8 0 std::forward<char * &>(char * &)
FUNC edc0 8 0 std::forward<std::_Wrap_alloc<std::allocator<char> > &>(std::_Wrap_alloc<std::allocator<char> > &)
FUNC edd0 8 0 std::forward<std::_Wrap_alloc<std::allocator<wchar_t> > >(std::_Wrap_alloc<std::allocator<wchar_t> > &)
FUNC ede0 8 0 std::forward<std::allocator<wchar_t> >(std::allocator<wchar_t> &)
FUNC edf0 5d 0 std::_Vector_alloc<std::_Vec_base_types<char,std::allocator<char> > >::_Vector_alloc<std::_Vec_base_types<char,std::allocator<char> > >()
FUNC ee70 5d 0 std::_Vector_alloc<std::_Vec_base_types<wchar_t,std::allocator<wchar_t> > >::_Vector_alloc<std::_Vec_base_types<wchar_t,std::allocator<wchar_t> > >()
FUNC eef0 34 0 std::_Vector_val<std::_Simple_types<char> >::_Vector_val<std::_Simple_types<char> >()
FUNC ef40 34 0 std::_Vector_val<std::_Simple_types<wchar_t> >::_Vector_val<std::_Simple_types<wchar_t> >()
FUNC ef90 16 0 std::_Wrap_alloc<std::allocator<char> >::_Wrap_alloc<std::allocator<char> >()
FUNC efb0 25 0 std::_Wrap_alloc<std::allocator<wchar_t> >::_Wrap_alloc<std::allocator<wchar_t> >(std::_Wrap_alloc<std::allocator<wchar_t> > &&)
FUNC efe0 e 0 std::allocator<char>::allocator<char>()
FUNC f000 10 0 std::allocator<wchar_t>::allocator<wchar_t>(std::allocator<wchar_t> const &)
FUNC f020 75 0 std::basic_string<wchar_t,std::char_traits<wchar_t>,std::allocator<wchar_t> >::basic_string<wchar_t,std::char_traits<wchar_t>,std::allocator<wchar_t> >(std::basic_string<wchar_t,std::char_traits<wchar_t>,std::allocator<wchar_t> > &&)
FUNC f0c0 8c 0 std::basic_string<wchar_t,std::char_traits<wchar_t>,std::allocator<wchar_t> >::basic_string<wchar_t,std::char_traits<wchar_t>,std::allocator<wchar_t> >(std::basic_string<wchar_t,std::char_traits<wchar_t>,std::allocator<wchar_t> > const &)
FUNC f170 d4 0 std::vector<char,std::allocator<char> >::vector<char,std::allocator<char> >(unsigned int)
FUNC f280 d7 0 std::vector<wchar_t,std::allocator<wchar_t> >::vector<wchar_t,std::allocator<wchar_t> >(unsigned int)
FUNC f390 13 0 std::_Compressed_pair<std::_Wrap_alloc<std::allocator<char> >,std::_Vector_val<std::_Simple_types<char> >,1>::~_Compressed_pair<std::_Wrap_alloc<std::allocator<char> >,std::_Vector_val<std::_Simple_types<char> >,1>()
FUNC f3b0 13 0 std::_Compressed_pair<std::_Wrap_alloc<std::allocator<wchar_t> >,std::_Vector_val<std::_Simple_types<wchar_t> >,1>::~_Compressed_pair<std::_Wrap_alloc<std::allocator<wchar_t> >,std::_Vector_val<std::_Simple_types<wchar_t> >,1>()
FUNC f3d0 45 0 std::_Vector_alloc<std::_Vec_base_types<char,std::allocator<char> > >::~_Vector_alloc<std::_Vec_base_types<char,std::allocator<char> > >()
FUNC f430 45 0 std::_Vector_alloc<std::_Vec_base_types<wchar_t,std::allocator<wchar_t> > >::~_Vector_alloc<std::_Vec_base_types<wchar_t,std::allocator<wchar_t> > >()
FUNC f490 13 0 std::_Vector_val<std::_Simple_types<char> >::~_Vector_val<std::_Simple_types<char> >()
FUNC f4b0 13 0 std::_Vector_val<std::_Simple_types<wchar_t> >::~_Vector_val<std::_Simple_types<wchar_t> >()
FUNC f4d0 45 0 std::vector<char,std::allocator<char> >::~vector<char,std::allocator<char> >()
FUNC f530 45 0 std::vector<wchar_t,std::allocator<wchar_t> >::~vector<wchar_t,std::allocator<wchar_t> >()
FUNC f590 19 0 std::basic_string<char,std::char_traits<char>,std::allocator<char> >::operator=(char const *)
FUNC f5b0 92 0 std::vector<char,std::allocator<char> >::operator[](unsigned int)
FUNC f670 95 0 std::vector<wchar_t,std::allocator<wchar_t> >::operator[](unsigned int)
FUNC f730 71 0 std::_Vector_alloc<std::_Vec_base_types<char,std::allocator<char> > >::_Alloc_proxy()
FUNC f7c0 71 0 std::_Vector_alloc<std::_Vec_base_types<wchar_t,std::allocator<wchar_t> > >::_Alloc_proxy()
FUNC f850 aa 0 std::vector<char,std::allocator<char> >::_Buy(unsigned int)
FUNC f930 ad 0 std::vector<wchar_t,std::allocator<wchar_t> >::_Buy(unsigned int)
FUNC fa10 16 0 std::_String_alloc<std::_String_base_types<char,std::allocator<char> > >::_Bx()
FUNC fa30 24 0 std::basic_string<char,std::char_traits<char>,std::allocator<char> >::_Check_offset(unsigned int)
FUNC fa60 31 0 std::basic_string<char,std::char_traits<char>,std::allocator<char> >::_Clamp_suffix_size(unsigned int,unsigned int)
FUNC faa0 1d4 0 std::basic_string<char,std::char_traits<char>,std::allocator<char> >::_Copy(unsigned int,unsigned int)
FUNC fcf0 26 0 std::vector<char,std::allocator<char> >::_Destroy(char *,char *)
FUNC fd20 26 0 std::vector<wchar_t,std::allocator<wchar_t> >::_Destroy(wchar_t *,wchar_t *)
FUNC fd50 3f 0 std::basic_string<char,std::char_traits<char>,std::allocator<char> >::_Eos(unsigned int)
FUNC fda0 65 0 std::_Vector_alloc<std::_Vec_base_types<char,std::allocator<char> > >::_Free_proxy()
FUNC fe20 65 0 std::_Vector_alloc<std::_Vec_base_types<wchar_t,std::allocator<wchar_t> > >::_Free_proxy()
FUNC fea0 13 0 std::_String_alloc<std::_String_base_types<char,std::allocator<char> > >::_Get_data()
FUNC fec0 13 0 std::_String_alloc<std::_String_base_types<char,std::allocator<char> > >::_Get_data()
FUNC fee0 13 0 std::_Vector_alloc<std::_Vec_base_types<char,std::allocator<char> > >::_Get_data()
FUNC ff00 13 0 std::_Vector_alloc<std::_Vec_base_types<char,std::allocator<char> > >::_Get_data()
FUNC ff20 13 0 std::_Vector_alloc<std::_Vec_base_types<wchar_t,std::allocator<wchar_t> > >::_Get_data()
FUNC ff40 13 0 std::_Vector_alloc<std::_Vec_base_types<wchar_t,std::allocator<wchar_t> > >::_Get_data()
FUNC ff60 e 0 std::_Compressed_pair<std::_Wrap_alloc<std::allocator<char> >,std::_String_val<std::_Simple_types<char> >,1>::_Get_first()
FUNC ff80 e 0 std::_Compressed_pair<std::_Wrap_alloc<std::allocator<char> >,std::_String_val<std::_Simple_types<char> >,1>::_Get_first()
FUNC ffa0 e 0 std::_Compressed_pair<std::_Wrap_alloc<std::allocator<char> >,std::_Vector_val<std::_Simple_types<char> >,1>::_Get_first()
FUNC ffc0 e 0 std::_Compressed_pair<std::_Wrap_alloc<std::allocator<char> >,std::_Vector_val<std::_Simple_types<char> >,1>::_Get_first()
FUNC ffe0 e 0 std::_Compressed_pair<std::_Wrap_alloc<std::allocator<wchar_t> >,std::_Vector_val<std::_Simple_types<wchar_t> >,1>::_Get_first()
FUNC 10000 e 0 std::_Compressed_pair<std::_Wrap_alloc<std::allocator<wchar_t> >,std::_Vector_val<std::_Simple_types<wchar_t> >,1>::_Get_first()
FUNC 10020 e 0 std::_Compressed_pair<std::_Wrap_alloc<std::allocator<char> >,std::_String_val<std::_Simple_types<char> >,1>::_Get_second()
FUNC 10040 e 0 std::_Compressed_pair<std::_Wrap_alloc<std::allocator<char> >,std::_String_val<std::_Simple_types<char> >,1>::_Get_second()
FUNC 10060 e 0 std::_Compressed_pair<std::_Wrap_alloc<std::allocator<char> >,std::_Vector_val<std::_Simple_types<char> >,1>::_Get_second()
FUNC 10080 e 0 std::_Compressed_pair<std::_Wrap_alloc<std::allocator<char> >,std::_Vector_val<std::_Simple_types<char> >,1>::_Get_second()
FUNC 100a0 e 0 std::_Compressed_pair<std::_Wrap_alloc<std::allocator<wchar_t> >,std::_Vector_val<std::_Simple_types<wchar_t> >,1>::_Get_second()
FUNC 100c0 e 0 std::_Compressed_pair<std::_Wrap_alloc<std::allocator<wchar_t> >,std::_Vector_val<std::_Simple_types<wchar_t> >,1>::_Get_second()
FUNC 100e0 13 0 std::_String_alloc<std::_String_base_types<char,std::allocator<char> > >::_Getal()
FUNC 10100 13 0 std::_String_alloc<std::_String_base_types<char,std::allocator<char> > >::_Getal()
FUNC 10120 13 0 std::_Vector_alloc<std::_Vec_base_types<char,std::allocator<char> > >::_Getal()
FUNC 10140 13 0 std::_Vector_alloc<std::_Vec_base_types<char,std::allocator<char> > >::_Getal()
FUNC 10160 13 0 std::_Vector_alloc<std::_Vec_base_types<wchar_t,std::allocator<wchar_t> > >::_Getal()
FUNC 10180 13 0 std::_Vector_alloc<std::_Vec_base_types<wchar_t,std::allocator<wchar_t> > >::_Getal()
FUNC 101a0 b7 0 std::basic_string<char,std::char_traits<char>,std::allocator<char> >::_Grow(unsigned int,bool)
FUNC 10290 43 0 std::basic_string<char,std::char_traits<char>,std::allocator<char> >::_Inside(char const *)
FUNC 102f0 16 0 std::_Vector_alloc<std::_Vec_base_types<char,std::allocator<char> > >::_Myend()
FUNC 10310 16 0 std::_Vector_alloc<std::_Vec_base_types<wchar_t,std::allocator<wchar_t> > >::_Myend()
FUNC 10330 16 0 std::_Vector_alloc<std::_Vec_base_types<char,std::allocator<char> > >::_Myfirst()
FUNC 10350 16 0 std::_Vector_alloc<std::_Vec_base_types<char,std::allocator<char> > >::_Myfirst()
FUNC 10370 16 0 std::_Vector_alloc<std::_Vec_base_types<wchar_t,std::allocator<wchar_t> > >::_Myfirst()
FUNC 10390 16 0 std::_Vector_alloc<std::_Vec_base_types<wchar_t,std::allocator<wchar_t> > >::_Myfirst()
FUNC 103b0 16 0 std::_Vector_alloc<std::_Vec_base_types<char,std::allocator<char> > >::_Mylast()
FUNC 103d0 16 0 std::_Vector_alloc<std::_Vec_base_types<char,std::allocator<char> > >::_Mylast()
FUNC 103f0 16 0 std::_Vector_alloc<std::_Vec_base_types<wchar_t,std::allocator<wchar_t> > >::_Mylast()
FUNC 10410 16 0 std::_Vector_alloc<std::_Vec_base_types<wchar_t,std::allocator<wchar_t> > >::_Mylast()
FUNC 10430 13 0 std::_Vector_alloc<std::_Vec_base_types<char,std::allocator<char> > >::_Myproxy()
FUNC 10450 13 0 std::_Vector_alloc<std::_Vec_base_types<wchar_t,std::allocator<wchar_t> > >::_Myproxy()
FUNC 10470 1a 0 std::_String_alloc<std::_String_base_types<char,std::allocator<char> > >::_Myptr()
FUNC 10490 1a 0 std::_String_alloc<std::_String_base_types<char,std::allocator<char> > >::_Myptr()
FUNC 104b0 36 0 std::_String_val<std::_Simple_types<char> >::_Myptr()
FUNC 10500 36 0 std::_String_val<std::_Simple_types<char> >::_Myptr()
FUNC 10550 16 0 std::_String_alloc<std::_String_base_types<char,std::allocator<char> > >::_Myres()
FUNC 10570 16 0 std::_String_alloc<std::_String_base_types<char,std::allocator<char> > >::_Mysize()
FUNC 10590 16 0 std::_String_alloc<std::_String_base_types<char,std::allocator<char> > >::_Mysize()
FUNC 105b0 1a 0 std::_Vector_alloc<std::_Vec_base_types<char,std::allocator<char> > >::_Orphan_all()
FUNC 105d0 1a 0 std::_Vector_alloc<std::_Vec_base_types<wchar_t,std::allocator<wchar_t> > >::_Orphan_all()
FUNC 105f0 ba 0 std::basic_string<char,std::char_traits<char>,std::allocator<char> >::_Tidy(bool,unsigned int)
FUNC 106e0 9f 0 std::vector<char,std::allocator<char> >::_Tidy()
FUNC 107b0 a1 0 std::vector<wchar_t,std::allocator<wchar_t> >::_Tidy()
FUNC 10880 16 0 std::basic_string<char,std::char_traits<char>,std::allocator<char> >::_Xlen()
FUNC 108a0 16 0 std::vector<char,std::allocator<char> >::_Xlen()
FUNC 108c0 16 0 std::vector<wchar_t,std::allocator<wchar_t> >::_Xlen()
FUNC 108e0 16 0 std::basic_string<char,std::char_traits<char>,std::allocator<char> >::_Xran()
FUNC 10900 19 0 std::_Wrap_alloc<std::allocator<char> >::allocate(unsigned int)
FUNC 10920 1d 0 std::allocator<char>::allocate(unsigned int)
FUNC 10950 98 0 std::basic_string<char,std::char_traits<char>,std::allocator<char> >::assign(std::basic_string<char,std::char_traits<char>,std::allocator<char> > const &,unsigned int,unsigned int)
FUNC 10a10 3c 0 std::basic_string<char,std::char_traits<char>,std::allocator<char> >::assign(char const *)
FUNC 10a60 aa 0 std::basic_string<char,std::char_traits<char>,std::allocator<char> >::assign(char const *,unsigned int)
FUNC 10b40 f 0 std::char_traits<char>::assign(char &,char const &)
FUNC 10b60 3d 0 std::basic_string<char,std::char_traits<char>,std::allocator<char> >::c_str()
FUNC 10bb0 30 0 std::char_traits<char>::copy(char *,char const *,unsigned int)
FUNC 10bf0 1d 0 std::_Wrap_alloc<std::allocator<char> >::deallocate(char *,unsigned int)
FUNC 10c20 1f 0 std::allocator<char>::deallocate(char *,unsigned int)
FUNC 10c50 28 0 std::basic_string<char,std::char_traits<char>,std::allocator<char> >::erase(unsigned int)
FUNC 10c90 88 0 std::basic_string<char,std::char_traits<char>,std::allocator<char> >::erase(unsigned int,unsigned int)
FUNC 10d40 34 0 std::char_traits<wchar_t>::find(wchar_t const *,unsigned int,wchar_t const &)
FUNC 10d90 40 0 std::basic_string<wchar_t,std::char_traits<wchar_t>,std::allocator<wchar_t> >::find_last_of(wchar_t const *,unsigned int)
FUNC 10de0 db 0 std::basic_string<wchar_t,std::char_traits<wchar_t>,std::allocator<wchar_t> >::find_last_of(wchar_t const *,unsigned int,unsigned int)
FUNC 10f00 2d 0 std::char_traits<char>::length(char const *)
FUNC 10f40 19 0 std::_Wrap_alloc<std::allocator<char> >::max_size(std::_Nil)
FUNC 10f60 e 0 std::allocator<char>::max_size()
FUNC 10f80 d 0 std::allocator_traits<std::allocator<char> >::max_size(std::allocator<char> const &)
FUNC 10f90 3f 0 std::basic_string<char,std::char_traits<char>,std::allocator<char> >::max_size()
FUNC 10fe0 21 0 std::vector<char,std::allocator<char> >::max_size()
FUNC 11010 21 0 std::vector<wchar_t,std::allocator<wchar_t> >::max_size()
FUNC 11040 31 0 std::char_traits<char>::move(char *,char const *,unsigned int)
FUNC 11080 2b 0 std::_Wrap_alloc<std::allocator<wchar_t> >::select_on_container_copy_construction(std::_Nil)
FUNC 110c0 14 0 std::allocator_traits<std::allocator<wchar_t> >::select_on_container_copy_construction(std::allocator<wchar_t> const &)
FUNC 110e0 25 0 std::vector<char,std::allocator<char> >::size()
FUNC 11110 27 0 std::vector<wchar_t,std::allocator<wchar_t> >::size()
FUNC 11140 36 0 wmemchr
FUNC 11190 10f 0 google_breakpad::GUIDString::GUIDToWString(_GUID *)
FUNC 112a0 10f 0 google_breakpad::GUIDString::GUIDToSymbolServerWString(_GUID *)
FUNC 11440 a5 0 google_breakpad::CrashGenerationClient::CrashGenerationClient(wchar_t const *,_MINIDUMP_TYPE,google_breakpad::CustomClientInfo const *)
FUNC 114f0 a0 0 google_breakpad::CrashGenerationClient::CrashGenerationClient(void *,_MINIDUMP_TYPE,google_breakpad::CustomClientInfo const *)
FUNC 11590 55 0 google_breakpad::CrashGenerationClient::~CrashGenerationClient()
FUNC 115f0 51 0 google_breakpad::CrashGenerationClient::Register()
FUNC 11650 96 0 google_breakpad::CrashGenerationClient::RequestUpload(unsigned long)
FUNC 116f0 73 0 google_breakpad::CrashGenerationClient::RequestDump(_EXCEPTION_POINTERS *,MDRawAssertionInfo *)
FUNC 11770 1b 0 google_breakpad::CrashGenerationClient::RequestDump(_EXCEPTION_POINTERS *)
FUNC 11790 1b 0 google_breakpad::CrashGenerationClient::RequestDump(MDRawAssertionInfo *)
FUNC 117b0 b3 0 google_breakpad::CrashGenerationClient::DuplicatePipeToClientProcess(wchar_t const *,void *)
FUNC 11870 66 0 google_breakpad::CrashGenerationClient::ConnectToServer()
FUNC 118e0 ef 0 google_breakpad::CrashGenerationClient::RegisterClient(void *)
FUNC 119d0 4e 0 google_breakpad::CrashGenerationClient::ValidateResponse(google_breakpad::ProtocolMessage const &)
FUNC 11a20 29 0 google_breakpad::CrashGenerationClient::IsRegistered()
FUNC 11a50 98 0 google_breakpad::CrashGenerationClient::ConnectToPipe(wchar_t const *,unsigned long,unsigned long)
FUNC 11af0 d8 0 google_breakpad::CrashGenerationClient::SignalCrashEventAndWait()
FUNC 11db0 71 0 google_breakpad::ProtocolMessage::ProtocolMessage(google_breakpad::MessageTag,unsigned long,_MINIDUMP_TYPE,unsigned long *,_EXCEPTION_POINTERS * *,MDRawAssertionInfo *,google_breakpad::CustomClientInfo const &,void *,void *,void *)
FUNC 11e40 74 0 google_breakpad::ProtocolMessage::ProtocolMessage()
FUNC 11f00 46 0 operator new(unsigned int)
FUNC 11f60 13 0 operator delete(void *)
FUNC 11f80 11 0 operator delete(void *,unsigned int)
FUNC 11fa0 26 0 __crt_fast_decode_pointer<void (**)(void)>(void (** const)(void))
FUNC 11fd0 2d 0 __crt_fast_encode_pointer<void (**)(void)>(void (** const)(void))
FUNC 12010 d 0 __crt_rotate_pointer_value(unsigned int,int)
FUNC 12020 13 0 __scrt_narrow_argv_policy::configure_argv()
FUNC 12040 81 0 find_pe_section
FUNC 120f0 69 0 is_potentially_valid_image_base
FUNC 12180 b 0 NtCurrentTeb
FUNC 12190 49 0 __scrt_acquire_startup_lock
FUNC 121f0 29 0 __scrt_dllmain_after_initialize_c
FUNC 12230 1c 0 __scrt_dllmain_before_initialize_c
FUNC 12260 2c 0 __scrt_dllmain_crt_thread_attach
FUNC 122a0 11 0 __scrt_dllmain_crt_thread_detach
FUNC 122c0 42 0 __scrt_dllmain_exception_filter
FUNC 12320 2b 0 __scrt_dllmain_uninitialize_c
FUNC 12360 14 0 __scrt_dllmain_uninitialize_critical
FUNC 12380 43 0 __scrt_initialize_crt
FUNC 123e0 c6 0 __scrt_initialize_onexit_tables
FUNC 124e0 129 0 __scrt_is_nonwritable_in_current_image
FUNC 12660 23 0 __scrt_release_startup_lock
FUNC 12690 38 0 __scrt_uninitialize_crt
FUNC 126e0 6e 0 _onexit
FUNC 12770 48 0 at_quick_exit
FUNC 127d0 2b 0 atexit
FUNC 12810 11 0 __security_check_cookie
FUNC 12830 29 0 __raise_securityfailure
FUNC 12870 103 0 __report_gsfailure
FUNC 129c0 c 0 __report_rangecheckfailure
FUNC 129d0 d2 0 __report_securityfailure
FUNC 12ae0 125 0 __report_securityfailureEx
FUNC 12c50 bd 0 pre_c_initialization
FUNC 12d40 c 0 post_pgo_initialization
FUNC 12d50 18 0 pre_cpp_initialization
FUNC 12d70 f 0 __scrt_common_main
FUNC 12d90 20d 0 __scrt_common_main_seh
FUNC 13020 a 0 __scrt_main_policy::get_app_type()
FUNC 13030 a 0 initialize_environment
FUNC 13040 23 0 invoke_main
FUNC 13070 a 0 mainCRTStartup
FUNC 13080 27 0 std::bad_alloc::bad_alloc(char const * const)
FUNC 130b0 25 0 std::bad_alloc::bad_alloc(std::bad_alloc const &)
FUNC 130e0 26 0 std::bad_alloc::bad_alloc()
FUNC 13110 25 0 std::bad_array_new_length::bad_array_new_length(std::bad_array_new_length const &)
FUNC 13140 24 0 std::bad_array_new_length::bad_array_new_length()
FUNC 13170 3c 0 std::exception::exception(std::exception const &)
FUNC 131c0 2f 0 std::exception::exception(char const * const,int)
FUNC 13200 13 0 std::bad_alloc::~bad_alloc()
FUNC 13220 13 0 std::bad_array_new_length::~bad_array_new_length()
FUNC 13240 23 0 std::exception::~exception()
FUNC 13270 2e 0 std::bad_alloc::`scalar deleting destructor'(unsigned int)
FUNC 132b0 2e 0 std::bad_array_new_length::`scalar deleting destructor'(unsigned int)
FUNC 132f0 2e 0 std::exception::`scalar deleting destructor'(unsigned int)
FUNC 13330 20 0 __scrt_throw_std_bad_alloc()
FUNC 13360 20 0 __scrt_throw_std_bad_array_new_length()
FUNC 13390 2b 0 std::exception::what()
FUNC 133d0 2d3 0 __isa_available_init
FUNC 13760 a 0 _get_startup_argv_mode
FUNC 13770 24 0 __scrt_is_ucrt_dll_in_use
FUNC 137a0 135 0 __scrt_fastfail
FUNC 13930 40 0 __scrt_get_show_window_mode
FUNC 13980 7 0 __scrt_initialize_winrt
FUNC 13990 83 0 __scrt_is_managed_app
FUNC 13a40 10 0 __scrt_set_unhandled_exception_filter
FUNC 13a60 5d 4 __scrt_unhandled_exception_filter
FUNC 13ae0 f 0 _crt_debugger_hook
FUNC 13b00 14 0 _guard_check_icall
FUNC 13b20 27 0 _except_handler4
FUNC 13b50 dd 0 __security_init_cookie
FUNC 13c70 7 0 _matherr
FUNC 13c80 7 0 _get_startup_commit_mode
FUNC 13c90 a 0 _get_startup_file_mode
FUNC 13ca0 7 0 _get_startup_new_mode
FUNC 13cb0 7 0 _get_startup_thread_locale_mode
FUNC 13cc0 10 0 __scrt_initialize_type_info()
FUNC 13ce0 12 0 __scrt_uninitialize_type_info()
FUNC 13d00 7 0 _should_initialize_environment
FUNC 13d10 24 0 _initialize_default_precision
FUNC 13d40 5 0 _initialize_invalid_parameter_handler
FUNC 13d50 5 0 _initialize_denormal_control
FUNC 13d60 a 0 __local_stdio_scanf_options
FUNC 13d70 40 0 __scrt_initialize_default_local_stdio_options
FUNC 13dc0 24 0 __scrt_is_user_matherr_present
FUNC 13df0 a 0 __scrt_get_dyn_tls_init_callback
FUNC 13e00 a 0 __scrt_get_dyn_tls_dtor_callback
FUNC 13e10 2d 0 _RTC_Initialize
FUNC 13e50 2d 0 _RTC_Terminate
FUNC 13e90 14 0 type_info::~type_info()
FUNC 13eb0 2e 0 type_info::`scalar deleting destructor'(unsigned int)
FUNC 13ef0 b 0 _guard_check_icall_nop
FUNC 13f00 27 0 _guard_icall_checks_enforced
FUNC 14170 7 0 __scrt_stub_for_acrt_initialize
FUNC 14180 7 0 __scrt_stub_for_acrt_thread_attach
FUNC 14190 7 0 __scrt_stub_for_acrt_thread_detach
FUNC 141a0 7 0 __scrt_stub_for_acrt_uninitialize
FUNC 141b0 7 0 __scrt_stub_for_acrt_uninitialize_critical
FUNC 141c0 7 0 __scrt_stub_for_is_c_termination_complete
FUNC 17ba0 f 0 `dynamic atexit destructor for 'dump_file''
STACK WIN 4 2c50 19 3 0 0 0 0 0 1 $T0 $ebp = $eip $T0 4 + ^ = $ebp $T0 ^ = $esp $T0 8 + = 
STACK WIN 4 2c70 19 3 0 0 0 0 0 1 $T0 $ebp = $eip $T0 4 + ^ = $ebp $T0 ^ = $esp $T0 8 + = 
STACK WIN 4 2c90 19 3 0 0 0 0 0 1 $T0 $ebp = $eip $T0 4 + ^ = $ebp $T0 ^ = $esp $T0 8 + = 
STACK WIN 4 2cb0 19 3 0 0 0 0 0 1 $T0 $ebp = $eip $T0 4 + ^ = $ebp $T0 ^ = $esp $T0 8 + = 
STACK WIN 4 2cd0 19 3 0 0 0 0 0 1 $T0 $ebp = $eip $T0 4 + ^ = $ebp $T0 ^ = $esp $T0 8 + = 
STACK WIN 4 2cf0 19 3 0 0 0 0 0 1 $T0 $ebp = $eip $T0 4 + ^ = $ebp $T0 ^ = $esp $T0 8 + = 
STACK WIN 4 2d10 19 3 0 0 0 0 0 1 $T0 $ebp = $eip $T0 4 + ^ = $ebp $T0 ^ = $esp $T0 8 + = 
STACK WIN 4 2d30 19 3 0 0 0 0 0 1 $T0 $ebp = $eip $T0 4 + ^ = $ebp $T0 ^ = $esp $T0 8 + = 
STACK WIN 4 2d50 19 3 0 0 0 0 0 1 $T0 $ebp = $eip $T0 4 + ^ = $ebp $T0 ^ = $esp $T0 8 + = 
STACK WIN 4 2d70 1c 3 0 0 0 0 0 1 $T0 $ebp = $eip $T0 4 + ^ = $ebp $T0 ^ = $esp $T0 8 + = 
STACK WIN 4 2da0 19 3 0 0 0 0 0 1 $T0 $ebp = $eip $T0 4 + ^ = $ebp $T0 ^ = $esp $T0 8 + = 
STACK WIN 4 2dc0 19 3 0 0 0 0 0 1 $T0 $ebp = $eip $T0 4 + ^ = $ebp $T0 ^ = $esp $T0 8 + = 
STACK WIN 4 2de0 19 3 0 0 0 0 0 1 $T0 $ebp = $eip $T0 4 + ^ = $ebp $T0 ^ = $esp $T0 8 + = 
STACK WIN 4 2e00 19 3 0 0 0 0 0 1 $T0 $ebp = $eip $T0 4 + ^ = $ebp $T0 ^ = $esp $T0 8 + = 
STACK WIN 4 2e20 19 3 0 0 0 0 0 1 $T0 $ebp = $eip $T0 4 + ^ = $ebp $T0 ^ = $esp $T0 8 + = 
STACK WIN 4 2e40 19 3 0 0 0 0 0 1 $T0 $ebp = $eip $T0 4 + ^ = $ebp $T0 ^ = $esp $T0 8 + = 
STACK WIN 4 2e60 19 3 0 0 0 0 0 1 $T0 $ebp = $eip $T0 4 + ^ = $ebp $T0 ^ = $esp $T0 8 + = 
STACK WIN 4 2e80 19 3 0 0 0 0 0 1 $T0 $ebp = $eip $T0 4 + ^ = $ebp $T0 ^ = $esp $T0 8 + = 
STACK WIN 4 2ea0 19 3 0 0 0 0 0 1 $T0 $ebp = $eip $T0 4 + ^ = $ebp $T0 ^ = $esp $T0 8 + = 
STACK WIN 4 2ec0 19 3 0 0 0 0 0 1 $T0 $ebp = $eip $T0 4 + ^ = $ebp $T0 ^ = $esp $T0 8 + = 
STACK WIN 4 2ee0 19 3 0 0 0 0 0 1 $T0 $ebp = $eip $T0 4 + ^ = $ebp $T0 ^ = $esp $T0 8 + = 
STACK WIN 4 2f00 19 3 0 0 0 0 0 1 $T0 $ebp = $eip $T0 4 + ^ = $ebp $T0 ^ = $esp $T0 8 + = 
STACK WIN 4 2f20 19 3 0 0 0 0 0 1 $T0 $ebp = $eip $T0 4 + ^ = $ebp $T0 ^ = $esp $T0 8 + = 
STACK WIN 4 2f40 19 3 0 0 0 0 0 1 $T0 $ebp = $eip $T0 4 + ^ = $ebp $T0 ^ = $esp $T0 8 + = 
STACK WIN 4 2f60 19 3 0 0 0 0 0 1 $T0 $ebp = $eip $T0 4 + ^ = $ebp $T0 ^ = $esp $T0 8 + = 
STACK WIN 4 2f80 19 3 0 0 0 0 0 1 $T0 $ebp = $eip $T0 4 + ^ = $ebp $T0 ^ = $esp $T0 8 + = 
STACK WIN 4 2fa0 19 3 0 0 0 0 0 1 $T0 $ebp = $eip $T0 4 + ^ = $ebp $T0 ^ = $esp $T0 8 + = 
STACK WIN 4 2fc0 19 3 0 0 0 0 0 1 $T0 $ebp = $eip $T0 4 + ^ = $ebp $T0 ^ = $esp $T0 8 + = 
STACK WIN 4 3560 42 3 0 18 0 0 0 1 $T0 $ebp = $eip $T0 4 + ^ = $ebp $T0 ^ = $esp $T0 8 + = 
STACK WIN 4 35b0 18 4 0 0 0 4 0 1 $T0 $ebp = $eip $T0 4 + ^ = $ebp $T0 ^ = $esp $T0 8 + = 
STACK WIN 4 35d0 bd 28 0 8 4 3c 0 1 $T0 $ebp = $eip $T0 4 + ^ = $ebp $T0 ^ = $esp $T0 8 + = 
STACK WIN 4 36e0 20 7 0 4 0 4 0 1 $T0 $ebp = $eip $T0 4 + ^ = $ebp $T0 ^ = $esp $T0 8 + = 
STACK WIN 4 3710 25 7 0 4 0 4 0 1 $T0 $ebp = $eip $T0 4 + ^ = $ebp $T0 ^ = $esp $T0 8 + = 
STACK WIN 4 3740 10 7 0 4 0 4 0 1 $T0 $ebp = $eip $T0 4 + ^ = $ebp $T0 ^ = $esp $T0 8 + = 
STACK WIN 4 3760 21 3 0 c 0 0 0 1 $T0 $ebp = $eip $T0 4 + ^ = $ebp $T0 ^ = $esp $T0 8 + = 
STACK WIN 4 3790 29 3 0 10 0 0 0 1 $T0 $ebp = $eip $T0 4 + ^ = $ebp $T0 ^ = $esp $T0 8 + = 
STACK WIN 4 37d0 8 3 0 4 0 0 0 1 $T0 $ebp = $eip $T0 4 + ^ = $ebp $T0 ^ = $esp $T0 8 + = 
STACK WIN 4 37e0 8 3 0 4 0 0 0 1 $T0 $ebp = $eip $T0 4 + ^ = $ebp $T0 ^ = $esp $T0 8 + = 
STACK WIN 4 37f0 8 3 0 4 0 0 0 1 $T0 $ebp = $eip $T0 4 + ^ = $ebp $T0 ^ = $esp $T0 8 + = 
STACK WIN 4 3800 8 3 0 4 0 0 0 1 $T0 $ebp = $eip $T0 4 + ^ = $ebp $T0 ^ = $esp $T0 8 + = 
STACK WIN 4 3810 2a 7 0 8 0 4 0 1 $T0 $ebp = $eip $T0 4 + ^ = $ebp $T0 ^ = $esp $T0 8 + = 
STACK WIN 4 3850 48 9 0 8 0 c 0 1 $T0 $ebp = $eip $T0 4 + ^ = $ebp $T0 ^ = $esp $T0 8 + = 
STACK WIN 4 38b0 1e 3 0 c 0 0 0 1 $T0 $ebp = $eip $T0 4 + ^ = $ebp $T0 ^ = $esp $T0 8 + = 
STACK WIN 4 38e0 2a 7 0 8 0 4 0 1 $T0 $ebp = $eip $T0 4 + ^ = $ebp $T0 ^ = $esp $T0 8 + = 
STACK WIN 4 3920 4e 9 0 8 0 c 0 1 $T0 $ebp = $eip $T0 4 + ^ = $ebp $T0 ^ = $esp $T0 8 + = 
STACK WIN 4 3990 1e 3 0 c 0 0 0 1 $T0 $ebp = $eip $T0 4 + ^ = $ebp $T0 ^ = $esp $T0 8 + = 
STACK WIN 4 39c0 1d 7 0 4 0 4 0 1 $T0 $ebp = $eip $T0 4 + ^ = $ebp $T0 ^ = $esp $T0 8 + = 
STACK WIN 4 39f0 d 7 0 4 0 4 0 1 $T0 $ebp = $eip $T0 4 + ^ = $ebp $T0 ^ = $esp $T0 8 + = 
STACK WIN 4 3a00 11 3 0 8 0 0 0 1 $T0 $ebp = $eip $T0 4 + ^ = $ebp $T0 ^ = $esp $T0 8 + = 
STACK WIN 4 3a20 1d 7 0 4 0 4 0 1 $T0 $ebp = $eip $T0 4 + ^ = $ebp $T0 ^ = $esp $T0 8 + = 
STACK WIN 4 3a50 d 7 0 4 0 4 0 1 $T0 $ebp = $eip $T0 4 + ^ = $ebp $T0 ^ = $esp $T0 8 + = 
STACK WIN 4 3a60 11 3 0 8 0 0 0 1 $T0 $ebp = $eip $T0 4 + ^ = $ebp $T0 ^ = $esp $T0 8 + = 
STACK WIN 4 3a80 8 3 0 4 0 0 0 1 $T0 $ebp = $eip $T0 4 + ^ = $ebp $T0 ^ = $esp $T0 8 + = 
STACK WIN 4 3a90 8 3 0 4 0 0 0 1 $T0 $ebp = $eip $T0 4 + ^ = $ebp $T0 ^ = $esp $T0 8 + = 
STACK WIN 4 3aa0 8 3 0 4 0 0 0 1 $T0 $ebp = $eip $T0 4 + ^ = $ebp $T0 ^ = $esp $T0 8 + = 
STACK WIN 4 3ab0 5d 28 0 0 4 14 0 1 $T0 $ebp = $eip $T0 4 + ^ = $ebp $T0 ^ = $esp $T0 8 + = 
STACK WIN 4 3b30 6d 26 0 0 4 10 0 1 $T0 $ebp = $eip $T0 4 + ^ = $ebp $T0 ^ = $esp $T0 8 + = 
STACK WIN 4 3bc0 16 7 0 0 0 4 0 1 $T0 $ebp = $eip $T0 4 + ^ = $ebp $T0 ^ = $esp $T0 8 + = 
STACK WIN 4 3be0 e 7 0 0 0 4 0 1 $T0 $ebp = $eip $T0 4 + ^ = $ebp $T0 ^ = $esp $T0 8 + = 
STACK WIN 4 3c00 68 26 0 4 4 10 0 1 $T0 $ebp = $eip $T0 4 + ^ = $ebp $T0 ^ = $esp $T0 8 + = 
STACK WIN 4 3c90 4c 26 0 0 4 10 0 1 $T0 $ebp = $eip $T0 4 + ^ = $ebp $T0 ^ = $esp $T0 8 + = 
STACK WIN 4 3cf0 e 7 0 0 0 4 0 1 $T0 $ebp = $eip $T0 4 + ^ = $ebp $T0 ^ = $esp $T0 8 + = 
STACK WIN 4 3d10 17 7 0 0 0 4 0 1 $T0 $ebp = $eip $T0 4 + ^ = $ebp $T0 ^ = $esp $T0 8 + = 
STACK WIN 4 3d30 21 7 0 0 0 4 0 1 $T0 $ebp = $eip $T0 4 + ^ = $ebp $T0 ^ = $esp $T0 8 + = 
STACK WIN 4 3d60 13 7 0 0 0 4 0 1 $T0 $ebp = $eip $T0 4 + ^ = $ebp $T0 ^ = $esp $T0 8 + = 
STACK WIN 4 3d80 45 26 0 0 4 10 0 1 $T0 $ebp = $eip $T0 4 + ^ = $ebp $T0 ^ = $esp $T0 8 + = 
STACK WIN 4 3de0 1e 7 0 0 0 4 0 1 $T0 $ebp = $eip $T0 4 + ^ = $ebp $T0 ^ = $esp $T0 8 + = 
STACK WIN 4 3e10 49 26 0 0 4 10 0 1 $T0 $ebp = $eip $T0 4 + ^ = $ebp $T0 ^ = $esp $T0 8 + = 
STACK WIN 4 3e70 b 7 0 0 0 4 0 1 $T0 $ebp = $eip $T0 4 + ^ = $ebp $T0 ^ = $esp $T0 8 + = 
STACK WIN 4 3e80 3d 26 0 0 4 10 0 1 $T0 $ebp = $eip $T0 4 + ^ = $ebp $T0 ^ = $esp $T0 8 + = 
STACK WIN 4 3ed0 8 3 0 8 0 0 0 1 $T0 $ebp = $eip $T0 4 + ^ = $ebp $T0 ^ = $esp $T0 8 + = 
STACK WIN 4 3ee0 19 7 0 4 0 4 0 1 $T0 $ebp = $eip $T0 4 + ^ = $ebp $T0 ^ = $esp $T0 8 + = 
STACK WIN 4 3f00 19 7 0 4 0 4 0 1 $T0 $ebp = $eip $T0 4 + ^ = $ebp $T0 ^ = $esp $T0 8 + = 
STACK WIN 4 3f20 71 a 0 0 4 10 0 1 $T0 $ebp = $eip $T0 4 + ^ = $ebp $T0 ^ = $esp $T0 8 + =  $23 $T0 20 - ^ = 
STACK WIN 4 3fb0 15c 6 0 c 0 10 0 1 $T0 $ebp = $eip $T0 4 + ^ = $ebp $T0 ^ = $esp $T0 8 + = 
STACK WIN 4 4170 16 7 0 0 0 4 0 1 $T0 $ebp = $eip $T0 4 + ^ = $ebp $T0 ^ = $esp $T0 8 + = 
STACK WIN 4 4190 24 7 0 4 0 4 0 1 $T0 $ebp = $eip $T0 4 + ^ = $ebp $T0 ^ = $esp $T0 8 + = 
STACK WIN 4 41c0 31 9 0 8 0 8 0 1 $T0 $ebp = $eip $T0 4 + ^ = $ebp $T0 ^ = $esp $T0 8 + = 
STACK WIN 4 4200 1d4 2f 0 8 10 24 0 1 $T0 $ebp = $eip $T0 4 + ^ = $ebp $T0 ^ = $esp $T0 8 + =  $20 $T0 40 - ^ =  $23 $T0 44 - ^ =  $24 $T0 48 - ^ = 
STACK WIN 4 4450 25f 6 0 c 0 10 0 1 $T0 $ebp = $eip $T0 4 + ^ = $ebp $T0 ^ = $esp $T0 8 + = 
STACK WIN 4 4750 44 9 0 4 0 c 0 1 $T0 $ebp = $eip $T0 4 + ^ = $ebp $T0 ^ = $esp $T0 8 + = 
STACK WIN 4 47b0 65 9 0 0 0 8 0 1 $T0 $ebp = $eip $T0 4 + ^ = $ebp $T0 ^ = $esp $T0 8 + = 
STACK WIN 4 4830 13 7 0 0 0 4 0 1 $T0 $ebp = $eip $T0 4 + ^ = $ebp $T0 ^ = $esp $T0 8 + = 
STACK WIN 4 4850 13 7 0 0 0 4 0 1 $T0 $ebp = $eip $T0 4 + ^ = $ebp $T0 ^ = $esp $T0 8 + = 
STACK WIN 4 4870 e 7 0 0 0 4 0 1 $T0 $ebp = $eip $T0 4 + ^ = $ebp $T0 ^ = $esp $T0 8 + = 
STACK WIN 4 4890 e 7 0 0 0 4 0 1 $T0 $ebp = $eip $T0 4 + ^ = $ebp $T0 ^ = $esp $T0 8 + = 
STACK WIN 4 48b0 e 7 0 0 0 4 0 1 $T0 $ebp = $eip $T0 4 + ^ = $ebp $T0 ^ = $esp $T0 8 + = 
STACK WIN 4 48d0 e 7 0 0 0 4 0 1 $T0 $ebp = $eip $T0 4 + ^ = $ebp $T0 ^ = $esp $T0 8 + = 
STACK WIN 4 48f0 13 7 0 0 0 4 0 1 $T0 $ebp = $eip $T0 4 + ^ = $ebp $T0 ^ = $esp $T0 8 + = 
STACK WIN 4 4910 13 7 0 0 0 4 0 1 $T0 $ebp = $eip $T0 4 + ^ = $ebp $T0 ^ = $esp $T0 8 + = 
STACK WIN 4 4930 b7 9 0 8 0 c 0 1 $T0 $ebp = $eip $T0 4 + ^ = $ebp $T0 ^ = $esp $T0 8 + = 
STACK WIN 4 4a20 46 8 0 4 4 4 0 1 $T0 $ebp = $eip $T0 4 + ^ = $ebp $T0 ^ = $esp $T0 8 + =  $23 $T0 8 - ^ = 
STACK WIN 4 4a80 13 7 0 0 0 4 0 1 $T0 $ebp = $eip $T0 4 + ^ = $ebp $T0 ^ = $esp $T0 8 + = 
STACK WIN 4 4aa0 1a 7 0 0 0 4 0 1 $T0 $ebp = $eip $T0 4 + ^ = $ebp $T0 ^ = $esp $T0 8 + = 
STACK WIN 4 4ac0 1a 7 0 0 0 4 0 1 $T0 $ebp = $eip $T0 4 + ^ = $ebp $T0 ^ = $esp $T0 8 + = 
STACK WIN 4 4ae0 36 9 0 0 0 8 0 1 $T0 $ebp = $eip $T0 4 + ^ = $ebp $T0 ^ = $esp $T0 8 + = 
STACK WIN 4 4b30 36 9 0 0 0 8 0 1 $T0 $ebp = $eip $T0 4 + ^ = $ebp $T0 ^ = $esp $T0 8 + = 
STACK WIN 4 4b80 16 7 0 0 0 4 0 1 $T0 $ebp = $eip $T0 4 + ^ = $ebp $T0 ^ = $esp $T0 8 + = 
STACK WIN 4 4ba0 16 7 0 0 0 4 0 1 $T0 $ebp = $eip $T0 4 + ^ = $ebp $T0 ^ = $esp $T0 8 + = 
STACK WIN 4 4bc0 16 7 0 0 0 4 0 1 $T0 $ebp = $eip $T0 4 + ^ = $ebp $T0 ^ = $esp $T0 8 + = 
STACK WIN 4 4be0 1a 7 0 0 0 4 0 1 $T0 $ebp = $eip $T0 4 + ^ = $ebp $T0 ^ = $esp $T0 8 + = 
STACK WIN 4 4c00 64 9 0 0 0 c 0 1 $T0 $ebp = $eip $T0 4 + ^ = $ebp $T0 ^ = $esp $T0 8 + = 
STACK WIN 4 4c80 ba 9 0 8 0 8 0 1 $T0 $ebp = $eip $T0 4 + ^ = $ebp $T0 ^ = $esp $T0 8 + = 
STACK WIN 4 4d70 16 7 0 0 0 4 0 1 $T0 $ebp = $eip $T0 4 + ^ = $ebp $T0 ^ = $esp $T0 8 + = 
STACK WIN 4 4d90 16 7 0 0 0 4 0 1 $T0 $ebp = $eip $T0 4 + ^ = $ebp $T0 ^ = $esp $T0 8 + = 
STACK WIN 4 4db0 5 3 0 4 0 0 0 1 $T0 $ebp = $eip $T0 4 + ^ = $ebp $T0 ^ = $esp $T0 8 + = 
STACK WIN 4 4dc0 5 3 0 8 0 0 0 1 $T0 $ebp = $eip $T0 4 + ^ = $ebp $T0 ^ = $esp $T0 8 + = 
STACK WIN 4 4dd0 19 7 0 4 0 4 0 1 $T0 $ebp = $eip $T0 4 + ^ = $ebp $T0 ^ = $esp $T0 8 + = 
STACK WIN 4 4df0 19 7 0 4 0 4 0 1 $T0 $ebp = $eip $T0 4 + ^ = $ebp $T0 ^ = $esp $T0 8 + = 
STACK WIN 4 4e10 19 7 0 4 0 4 0 1 $T0 $ebp = $eip $T0 4 + ^ = $ebp $T0 ^ = $esp $T0 8 + = 
STACK WIN 4 4e30 1d 7 0 4 0 4 0 1 $T0 $ebp = $eip $T0 4 + ^ = $ebp $T0 ^ = $esp $T0 8 + = 
STACK WIN 4 4e60 1d 7 0 4 0 4 0 1 $T0 $ebp = $eip $T0 4 + ^ = $ebp $T0 ^ = $esp $T0 8 + = 
STACK WIN 4 4e90 ba a 0 c 4 8 0 1 $T0 $ebp = $eip $T0 4 + ^ = $ebp $T0 ^ = $esp $T0 8 + =  $23 $T0 12 - ^ = 
STACK WIN 4 4f80 3c 7 0 4 0 4 0 1 $T0 $ebp = $eip $T0 4 + ^ = $ebp $T0 ^ = $esp $T0 8 + = 
STACK WIN 4 4fd0 f0 a 0 8 4 c 0 1 $T0 $ebp = $eip $T0 4 + ^ = $ebp $T0 ^ = $esp $T0 8 + =  $23 $T0 16 - ^ = 
STACK WIN 4 5100 9b 7 0 c 0 4 0 1 $T0 $ebp = $eip $T0 4 + ^ = $ebp $T0 ^ = $esp $T0 8 + = 
STACK WIN 4 51d0 3c 7 0 4 0 4 0 1 $T0 $ebp = $eip $T0 4 + ^ = $ebp $T0 ^ = $esp $T0 8 + = 
STACK WIN 4 5220 ac 9 0 8 0 8 0 1 $T0 $ebp = $eip $T0 4 + ^ = $ebp $T0 ^ = $esp $T0 8 + = 
STACK WIN 4 5300 11 3 0 8 0 0 0 1 $T0 $ebp = $eip $T0 4 + ^ = $ebp $T0 ^ = $esp $T0 8 + = 
STACK WIN 4 5320 30 4 0 c 0 4 0 1 $T0 $ebp = $eip $T0 4 + ^ = $ebp $T0 ^ = $esp $T0 8 + = 
STACK WIN 4 5360 1d 7 0 8 0 4 0 1 $T0 $ebp = $eip $T0 4 + ^ = $ebp $T0 ^ = $esp $T0 8 + = 
STACK WIN 4 5390 1d 7 0 8 0 4 0 1 $T0 $ebp = $eip $T0 4 + ^ = $ebp $T0 ^ = $esp $T0 8 + = 
STACK WIN 4 53c0 1f 7 0 8 0 4 0 1 $T0 $ebp = $eip $T0 4 + ^ = $ebp $T0 ^ = $esp $T0 8 + = 
STACK WIN 4 53f0 1f 7 0 8 0 4 0 1 $T0 $ebp = $eip $T0 4 + ^ = $ebp $T0 ^ = $esp $T0 8 + = 
STACK WIN 4 5420 28 7 0 4 0 4 0 1 $T0 $ebp = $eip $T0 4 + ^ = $ebp $T0 ^ = $esp $T0 8 + = 
STACK WIN 4 5460 8e 9 0 8 0 c 0 1 $T0 $ebp = $eip $T0 4 + ^ = $ebp $T0 ^ = $esp $T0 8 + = 
STACK WIN 4 5520 2e 4 0 4 0 4 0 1 $T0 $ebp = $eip $T0 4 + ^ = $ebp $T0 ^ = $esp $T0 8 + = 
STACK WIN 4 5560 19 7 0 4 0 4 0 1 $T0 $ebp = $eip $T0 4 + ^ = $ebp $T0 ^ = $esp $T0 8 + = 
STACK WIN 4 5580 10 7 0 0 0 4 0 1 $T0 $ebp = $eip $T0 4 + ^ = $ebp $T0 ^ = $esp $T0 8 + = 
STACK WIN 4 55a0 d 3 0 4 0 0 0 1 $T0 $ebp = $eip $T0 4 + ^ = $ebp $T0 ^ = $esp $T0 8 + = 
STACK WIN 4 55b0 3f 9 0 0 0 10 0 1 $T0 $ebp = $eip $T0 4 + ^ = $ebp $T0 ^ = $esp $T0 8 + = 
STACK WIN 4 5600 30 4 0 c 0 4 0 1 $T0 $ebp = $eip $T0 4 + ^ = $ebp $T0 ^ = $esp $T0 8 + = 
STACK WIN 4 5640 11 3 0 4 0 0 0 1 $T0 $ebp = $eip $T0 4 + ^ = $ebp $T0 ^ = $esp $T0 8 + = 
STACK WIN 4 5660 1b 3 0 c 0 0 0 1 $T0 $ebp = $eip $T0 4 + ^ = $ebp $T0 ^ = $esp $T0 8 + = 
STACK WIN 4 5690 1c 3 0 c 0 0 0 1 $T0 $ebp = $eip $T0 4 + ^ = $ebp $T0 ^ = $esp $T0 8 + = 
STACK WIN 4 56c0 ba 26 0 14 4 10 0 1 $T0 $ebp = $eip $T0 4 + ^ = $ebp $T0 ^ = $esp $T0 8 + = 
STACK WIN 4 5780 c0 26 0 20 4 10 0 1 $T0 $ebp = $eip $T0 4 + ^ = $ebp $T0 ^ = $esp $T0 8 + = 
STACK WIN 4 5840 c0 26 0 20 4 10 0 1 $T0 $ebp = $eip $T0 4 + ^ = $ebp $T0 ^ = $esp $T0 8 + = 
STACK WIN 4 5900 bc 26 0 18 4 10 0 1 $T0 $ebp = $eip $T0 4 + ^ = $ebp $T0 ^ = $esp $T0 8 + = 
STACK WIN 4 59c0 2b9 28 0 0 4 48 0 1 $T0 $ebp = $eip $T0 4 + ^ = $ebp $T0 ^ = $esp $T0 8 + = 
STACK WIN 4 5c80 23 7 0 4 0 4 0 1 $T0 $ebp = $eip $T0 4 + ^ = $ebp $T0 ^ = $esp $T0 8 + = 
STACK WIN 4 5cb0 88 19 0 0 0 32c 0 1 $T0 $ebp = $eip $T0 4 + ^ = $ebp $T0 ^ = $esp $T0 8 + = 
STACK WIN 4 5d40 51 9 0 4 0 8 0 1 $T0 $ebp = $eip $T0 4 + ^ = $ebp $T0 ^ = $esp $T0 8 + = 
STACK WIN 4 5da0 97 2b 0 10 4 ec 0 1 $T0 $ebp = $eip $T0 4 + ^ = $ebp $T0 ^ = $esp $T0 8 + = 
STACK WIN 4 5e40 1e2 2b 0 18 4 420 0 1 $T0 $ebp = $eip $T0 4 + ^ = $ebp $T0 ^ = $esp $T0 8 + = 
STACK WIN 4 6030 118 2b 0 8 4 5c 0 1 $T0 $ebp = $eip $T0 4 + ^ = $ebp $T0 ^ = $esp $T0 8 + = 
STACK WIN 4 6150 109 28 0 4 4 60 0 1 $T0 $ebp = $eip $T0 4 + ^ = $ebp $T0 ^ = $esp $T0 8 + = 
STACK WIN 4 6260 4e9 2b 0 28 4 58 0 1 $T0 $ebp = $eip $T0 4 + ^ = $ebp $T0 ^ = $esp $T0 8 + = 
STACK WIN 4 6750 ee 4 0 4 0 4 0 1 $T0 $ebp = $eip $T0 4 + ^ = $ebp $T0 ^ = $esp $T0 8 + = 
STACK WIN 4 6840 16e 25 0 4 4 2c 0 1 $T0 $ebp = $eip $T0 4 + ^ = $ebp $T0 ^ = $esp $T0 8 + = 
STACK WIN 4 69b0 247 2b 0 14 4 648 0 1 $T0 $ebp = $eip $T0 4 + ^ = $ebp $T0 ^ = $esp $T0 8 + = 
STACK WIN 4 6c00 1c4 2b 0 0 4 648 0 1 $T0 $ebp = $eip $T0 4 + ^ = $ebp $T0 ^ = $esp $T0 8 + = 
STACK WIN 4 6dd0 11b 9 0 8 0 8 0 1 $T0 $ebp = $eip $T0 4 + ^ = $ebp $T0 ^ = $esp $T0 8 + = 
STACK WIN 4 6ef0 cc 9 0 c 0 8 0 1 $T0 $ebp = $eip $T0 4 + ^ = $ebp $T0 ^ = $esp $T0 8 + = 
STACK WIN 4 6fc0 d4 6 0 c 0 14 0 1 $T0 $ebp = $eip $T0 4 + ^ = $ebp $T0 ^ = $esp $T0 8 + = 
STACK WIN 4 70a0 3e4 2e 0 14 4 120 0 1 $T0 $ebp = $eip $T0 4 + ^ = $ebp $T0 ^ = $esp $T0 8 + = 
STACK WIN 4 7490 170 19 0 0 0 244 0 1 $T0 $ebp = $eip $T0 4 + ^ = $ebp $T0 ^ = $esp $T0 8 + = 
STACK WIN 4 7dd0 20 7 0 4 0 4 0 1 $T0 $ebp = $eip $T0 4 + ^ = $ebp $T0 ^ = $esp $T0 8 + = 
STACK WIN 4 7e00 20 7 0 4 0 4 0 1 $T0 $ebp = $eip $T0 4 + ^ = $ebp $T0 ^ = $esp $T0 8 + = 
STACK WIN 4 7e30 25 7 0 4 0 4 0 1 $T0 $ebp = $eip $T0 4 + ^ = $ebp $T0 ^ = $esp $T0 8 + = 
STACK WIN 4 7e60 25 7 0 4 0 4 0 1 $T0 $ebp = $eip $T0 4 + ^ = $ebp $T0 ^ = $esp $T0 8 + = 
STACK WIN 4 7e90 10 7 0 4 0 4 0 1 $T0 $ebp = $eip $T0 4 + ^ = $ebp $T0 ^ = $esp $T0 8 + = 
STACK WIN 4 7eb0 10 7 0 4 0 4 0 1 $T0 $ebp = $eip $T0 4 + ^ = $ebp $T0 ^ = $esp $T0 8 + = 
STACK WIN 4 7ed0 15 3 0 8 0 0 0 1 $T0 $ebp = $eip $T0 4 + ^ = $ebp $T0 ^ = $esp $T0 8 + = 
STACK WIN 4 7ef0 7 3 0 8 0 0 0 1 $T0 $ebp = $eip $T0 4 + ^ = $ebp $T0 ^ = $esp $T0 8 + = 
STACK WIN 4 7f00 32 4 0 8 0 4 0 1 $T0 $ebp = $eip $T0 4 + ^ = $ebp $T0 ^ = $esp $T0 8 + = 
STACK WIN 4 7f40 4a 9 0 8 0 10 0 1 $T0 $ebp = $eip $T0 4 + ^ = $ebp $T0 ^ = $esp $T0 8 + = 
STACK WIN 4 7fa0 ce 2f 0 c 10 1c 0 1 $T0 $ebp = $eip $T0 4 + ^ = $ebp $T0 ^ = $esp $T0 8 + =  $20 $T0 32 - ^ =  $23 $T0 36 - ^ =  $24 $T0 40 - ^ = 
STACK WIN 4 80b0 40 6 0 c 0 10 0 1 $T0 $ebp = $eip $T0 4 + ^ = $ebp $T0 ^ = $esp $T0 8 + = 
STACK WIN 4 8100 60 23 0 10 4 10 0 1 $T0 $ebp = $eip $T0 4 + ^ = $ebp $T0 ^ = $esp $T0 8 + = 
STACK WIN 4 8180 65 4 0 14 0 4 0 1 $T0 $ebp = $eip $T0 4 + ^ = $ebp $T0 ^ = $esp $T0 8 + = 
STACK WIN 4 8200 5f 22 0 24 4 c 0 1 $T0 $ebp = $eip $T0 4 + ^ = $ebp $T0 ^ = $esp $T0 8 + = 
STACK WIN 4 8280 a6 25 0 20 4 24 0 1 $T0 $ebp = $eip $T0 4 + ^ = $ebp $T0 ^ = $esp $T0 8 + = 
STACK WIN 4 8350 5 3 0 10 0 0 0 1 $T0 $ebp = $eip $T0 4 + ^ = $ebp $T0 ^ = $esp $T0 8 + = 
STACK WIN 4 8360 21 4 0 c 0 4 0 1 $T0 $ebp = $eip $T0 4 + ^ = $ebp $T0 ^ = $esp $T0 8 + = 
STACK WIN 4 8390 4d 3 0 14 0 0 0 1 $T0 $ebp = $eip $T0 4 + ^ = $ebp $T0 ^ = $esp $T0 8 + = 
STACK WIN 4 83f0 28 4 0 10 0 4 0 1 $T0 $ebp = $eip $T0 4 + ^ = $ebp $T0 ^ = $esp $T0 8 + = 
STACK WIN 4 8430 7c 9 0 8 0 c 0 1 $T0 $ebp = $eip $T0 4 + ^ = $ebp $T0 ^ = $esp $T0 8 + = 
STACK WIN 4 84d0 19 3 0 10 0 0 0 1 $T0 $ebp = $eip $T0 4 + ^ = $ebp $T0 ^ = $esp $T0 8 + = 
STACK WIN 4 84f0 35 4 0 c 0 4 0 1 $T0 $ebp = $eip $T0 4 + ^ = $ebp $T0 ^ = $esp $T0 8 + = 
STACK WIN 4 8540 1d 4 0 8 0 4 0 1 $T0 $ebp = $eip $T0 4 + ^ = $ebp $T0 ^ = $esp $T0 8 + = 
STACK WIN 4 8570 5 3 0 c 0 0 0 1 $T0 $ebp = $eip $T0 4 + ^ = $ebp $T0 ^ = $esp $T0 8 + = 
STACK WIN 4 8580 1d 4 0 8 0 4 0 1 $T0 $ebp = $eip $T0 4 + ^ = $ebp $T0 ^ = $esp $T0 8 + = 
STACK WIN 4 85b0 46 22 0 c 4 c 0 1 $T0 $ebp = $eip $T0 4 + ^ = $ebp $T0 ^ = $esp $T0 8 + = 
STACK WIN 4 8610 8 3 0 c 0 0 0 1 $T0 $ebp = $eip $T0 4 + ^ = $ebp $T0 ^ = $esp $T0 8 + = 
STACK WIN 4 8620 10 3 0 8 0 0 0 1 $T0 $ebp = $eip $T0 4 + ^ = $ebp $T0 ^ = $esp $T0 8 + = 
STACK WIN 4 8640 11 3 0 8 0 0 0 1 $T0 $ebp = $eip $T0 4 + ^ = $ebp $T0 ^ = $esp $T0 8 + = 
STACK WIN 4 8660 2a 7 0 c 0 4 0 1 $T0 $ebp = $eip $T0 4 + ^ = $ebp $T0 ^ = $esp $T0 8 + = 
STACK WIN 4 86a0 8 3 0 4 0 0 0 1 $T0 $ebp = $eip $T0 4 + ^ = $ebp $T0 ^ = $esp $T0 8 + = 
STACK WIN 4 86b0 56 22 0 10 4 c 0 1 $T0 $ebp = $eip $T0 4 + ^ = $ebp $T0 ^ = $esp $T0 8 + = 
STACK WIN 4 8720 8 3 0 4 0 0 0 1 $T0 $ebp = $eip $T0 4 + ^ = $ebp $T0 ^ = $esp $T0 8 + = 
STACK WIN 4 8730 8 3 0 4 0 0 0 1 $T0 $ebp = $eip $T0 4 + ^ = $ebp $T0 ^ = $esp $T0 8 + = 
STACK WIN 4 8740 47 3 0 10 0 0 0 1 $T0 $ebp = $eip $T0 4 + ^ = $ebp $T0 ^ = $esp $T0 8 + = 
STACK WIN 4 87a0 19 3 0 18 0 0 0 1 $T0 $ebp = $eip $T0 4 + ^ = $ebp $T0 ^ = $esp $T0 8 + = 
STACK WIN 4 87c0 3f 4 0 10 0 4 0 1 $T0 $ebp = $eip $T0 4 + ^ = $ebp $T0 ^ = $esp $T0 8 + = 
STACK WIN 4 8810 5 3 0 0 0 0 0 1 $T0 $ebp = $eip $T0 4 + ^ = $ebp $T0 ^ = $esp $T0 8 + = 
STACK WIN 4 8820 5 3 0 0 0 0 0 1 $T0 $ebp = $eip $T0 4 + ^ = $ebp $T0 ^ = $esp $T0 8 + = 
STACK WIN 4 8830 8 3 0 4 0 0 0 1 $T0 $ebp = $eip $T0 4 + ^ = $ebp $T0 ^ = $esp $T0 8 + = 
STACK WIN 4 8840 8 3 0 4 0 0 0 1 $T0 $ebp = $eip $T0 4 + ^ = $ebp $T0 ^ = $esp $T0 8 + = 
STACK WIN 4 8850 8 3 0 4 0 0 0 1 $T0 $ebp = $eip $T0 4 + ^ = $ebp $T0 ^ = $esp $T0 8 + = 
STACK WIN 4 8860 8 3 0 4 0 0 0 1 $T0 $ebp = $eip $T0 4 + ^ = $ebp $T0 ^ = $esp $T0 8 + = 
STACK WIN 4 8870 8 3 0 4 0 0 0 1 $T0 $ebp = $eip $T0 4 + ^ = $ebp $T0 ^ = $esp $T0 8 + = 
STACK WIN 4 8880 12b 28 0 18 4 6c 0 1 $T0 $ebp = $eip $T0 4 + ^ = $ebp $T0 ^ = $esp $T0 8 + = 
STACK WIN 4 8a00 2a 7 0 8 0 4 0 1 $T0 $ebp = $eip $T0 4 + ^ = $ebp $T0 ^ = $esp $T0 8 + = 
STACK WIN 4 8a40 48 9 0 8 0 c 0 1 $T0 $ebp = $eip $T0 4 + ^ = $ebp $T0 ^ = $esp $T0 8 + = 
STACK WIN 4 8aa0 1e 3 0 c 0 0 0 1 $T0 $ebp = $eip $T0 4 + ^ = $ebp $T0 ^ = $esp $T0 8 + = 
STACK WIN 4 8ad0 2a 7 0 8 0 4 0 1 $T0 $ebp = $eip $T0 4 + ^ = $ebp $T0 ^ = $esp $T0 8 + = 
STACK WIN 4 8b10 48 9 0 8 0 c 0 1 $T0 $ebp = $eip $T0 4 + ^ = $ebp $T0 ^ = $esp $T0 8 + = 
STACK WIN 4 8b70 1e 3 0 c 0 0 0 1 $T0 $ebp = $eip $T0 4 + ^ = $ebp $T0 ^ = $esp $T0 8 + = 
STACK WIN 4 8ba0 2a 7 0 8 0 4 0 1 $T0 $ebp = $eip $T0 4 + ^ = $ebp $T0 ^ = $esp $T0 8 + = 
STACK WIN 4 8be0 48 9 0 8 0 c 0 1 $T0 $ebp = $eip $T0 4 + ^ = $ebp $T0 ^ = $esp $T0 8 + = 
STACK WIN 4 8c40 1e 3 0 c 0 0 0 1 $T0 $ebp = $eip $T0 4 + ^ = $ebp $T0 ^ = $esp $T0 8 + = 
STACK WIN 4 8c70 2a 7 0 8 0 4 0 1 $T0 $ebp = $eip $T0 4 + ^ = $ebp $T0 ^ = $esp $T0 8 + = 
STACK WIN 4 8cb0 5a 9 0 8 0 c 0 1 $T0 $ebp = $eip $T0 4 + ^ = $ebp $T0 ^ = $esp $T0 8 + = 
STACK WIN 4 8d20 1e 3 0 c 0 0 0 1 $T0 $ebp = $eip $T0 4 + ^ = $ebp $T0 ^ = $esp $T0 8 + = 
STACK WIN 4 8d50 1d 7 0 4 0 4 0 1 $T0 $ebp = $eip $T0 4 + ^ = $ebp $T0 ^ = $esp $T0 8 + = 
STACK WIN 4 8d80 d 7 0 4 0 4 0 1 $T0 $ebp = $eip $T0 4 + ^ = $ebp $T0 ^ = $esp $T0 8 + = 
STACK WIN 4 8d90 11 3 0 8 0 0 0 1 $T0 $ebp = $eip $T0 4 + ^ = $ebp $T0 ^ = $esp $T0 8 + = 
STACK WIN 4 8db0 1d 7 0 4 0 4 0 1 $T0 $ebp = $eip $T0 4 + ^ = $ebp $T0 ^ = $esp $T0 8 + = 
STACK WIN 4 8de0 d 7 0 4 0 4 0 1 $T0 $ebp = $eip $T0 4 + ^ = $ebp $T0 ^ = $esp $T0 8 + = 
STACK WIN 4 8df0 11 3 0 8 0 0 0 1 $T0 $ebp = $eip $T0 4 + ^ = $ebp $T0 ^ = $esp $T0 8 + = 
STACK WIN 4 8e10 1d 7 0 4 0 4 0 1 $T0 $ebp = $eip $T0 4 + ^ = $ebp $T0 ^ = $esp $T0 8 + = 
STACK WIN 4 8e40 d 7 0 4 0 4 0 1 $T0 $ebp = $eip $T0 4 + ^ = $ebp $T0 ^ = $esp $T0 8 + = 
STACK WIN 4 8e50 11 3 0 8 0 0 0 1 $T0 $ebp = $eip $T0 4 + ^ = $ebp $T0 ^ = $esp $T0 8 + = 
STACK WIN 4 8e70 131 25 0 20 4 4c 0 1 $T0 $ebp = $eip $T0 4 + ^ = $ebp $T0 ^ = $esp $T0 8 + = 
STACK WIN 4 8ff0 8 3 0 4 0 0 0 1 $T0 $ebp = $eip $T0 4 + ^ = $ebp $T0 ^ = $esp $T0 8 + = 
STACK WIN 4 9000 8 3 0 4 0 0 0 1 $T0 $ebp = $eip $T0 4 + ^ = $ebp $T0 ^ = $esp $T0 8 + = 
STACK WIN 4 9010 8 3 0 4 0 0 0 1 $T0 $ebp = $eip $T0 4 + ^ = $ebp $T0 ^ = $esp $T0 8 + = 
STACK WIN 4 9020 8 3 0 4 0 0 0 1 $T0 $ebp = $eip $T0 4 + ^ = $ebp $T0 ^ = $esp $T0 8 + = 
STACK WIN 4 9030 8 3 0 4 0 0 0 1 $T0 $ebp = $eip $T0 4 + ^ = $ebp $T0 ^ = $esp $T0 8 + = 
STACK WIN 4 9040 8 3 0 4 0 0 0 1 $T0 $ebp = $eip $T0 4 + ^ = $ebp $T0 ^ = $esp $T0 8 + = 
STACK WIN 4 9050 8 3 0 4 0 0 0 1 $T0 $ebp = $eip $T0 4 + ^ = $ebp $T0 ^ = $esp $T0 8 + = 
STACK WIN 4 9060 8 3 0 4 0 0 0 1 $T0 $ebp = $eip $T0 4 + ^ = $ebp $T0 ^ = $esp $T0 8 + = 
STACK WIN 4 9070 42 6 0 8 0 8 0 1 $T0 $ebp = $eip $T0 4 + ^ = $ebp $T0 ^ = $esp $T0 8 + = 
STACK WIN 4 90d0 42 6 0 8 0 8 0 1 $T0 $ebp = $eip $T0 4 + ^ = $ebp $T0 ^ = $esp $T0 8 + = 
STACK WIN 4 9130 8 3 0 4 0 0 0 1 $T0 $ebp = $eip $T0 4 + ^ = $ebp $T0 ^ = $esp $T0 8 + = 
STACK WIN 4 9140 1c 7 0 4 0 4 0 1 $T0 $ebp = $eip $T0 4 + ^ = $ebp $T0 ^ = $esp $T0 8 + = 
STACK WIN 4 9170 1c 7 0 4 0 4 0 1 $T0 $ebp = $eip $T0 4 + ^ = $ebp $T0 ^ = $esp $T0 8 + = 
STACK WIN 4 91a0 16 7 0 0 0 4 0 1 $T0 $ebp = $eip $T0 4 + ^ = $ebp $T0 ^ = $esp $T0 8 + = 
STACK WIN 4 91c0 1c 7 0 4 0 4 0 1 $T0 $ebp = $eip $T0 4 + ^ = $ebp $T0 ^ = $esp $T0 8 + = 
STACK WIN 4 91f0 16 7 0 0 0 4 0 1 $T0 $ebp = $eip $T0 4 + ^ = $ebp $T0 ^ = $esp $T0 8 + = 
STACK WIN 4 9210 1c 7 0 4 0 4 0 1 $T0 $ebp = $eip $T0 4 + ^ = $ebp $T0 ^ = $esp $T0 8 + = 
STACK WIN 4 9240 1c 7 0 4 0 4 0 1 $T0 $ebp = $eip $T0 4 + ^ = $ebp $T0 ^ = $esp $T0 8 + = 
STACK WIN 4 9270 16 7 0 0 0 4 0 1 $T0 $ebp = $eip $T0 4 + ^ = $ebp $T0 ^ = $esp $T0 8 + = 
STACK WIN 4 9290 b3 2f 0 0 10 18 0 1 $T0 $ebp = $eip $T0 4 + ^ = $ebp $T0 ^ = $esp $T0 8 + =  $20 $T0 28 - ^ =  $23 $T0 32 - ^ =  $24 $T0 36 - ^ = 
STACK WIN 4 9370 16 7 0 0 0 4 0 1 $T0 $ebp = $eip $T0 4 + ^ = $ebp $T0 ^ = $esp $T0 8 + = 
STACK WIN 4 9390 1c 7 0 4 0 4 0 1 $T0 $ebp = $eip $T0 4 + ^ = $ebp $T0 ^ = $esp $T0 8 + = 
STACK WIN 4 93c0 1c 7 0 4 0 4 0 1 $T0 $ebp = $eip $T0 4 + ^ = $ebp $T0 ^ = $esp $T0 8 + = 
STACK WIN 4 93f0 20 7 0 8 0 4 0 1 $T0 $ebp = $eip $T0 4 + ^ = $ebp $T0 ^ = $esp $T0 8 + = 
STACK WIN 4 9420 16 7 0 0 0 4 0 1 $T0 $ebp = $eip $T0 4 + ^ = $ebp $T0 ^ = $esp $T0 8 + = 
STACK WIN 4 9440 1c 7 0 4 0 4 0 1 $T0 $ebp = $eip $T0 4 + ^ = $ebp $T0 ^ = $esp $T0 8 + = 
STACK WIN 4 9470 20 7 0 8 0 4 0 1 $T0 $ebp = $eip $T0 4 + ^ = $ebp $T0 ^ = $esp $T0 8 + = 
STACK WIN 4 94a0 24 7 0 8 0 4 0 1 $T0 $ebp = $eip $T0 4 + ^ = $ebp $T0 ^ = $esp $T0 8 + = 
STACK WIN 4 94d0 28 7 0 4 0 4 0 1 $T0 $ebp = $eip $T0 4 + ^ = $ebp $T0 ^ = $esp $T0 8 + = 
STACK WIN 4 9510 28 7 0 4 0 4 0 1 $T0 $ebp = $eip $T0 4 + ^ = $ebp $T0 ^ = $esp $T0 8 + = 
STACK WIN 4 9550 65 26 0 8 4 10 0 1 $T0 $ebp = $eip $T0 4 + ^ = $ebp $T0 ^ = $esp $T0 8 + = 
STACK WIN 4 95d0 20 7 0 0 0 4 0 1 $T0 $ebp = $eip $T0 4 + ^ = $ebp $T0 ^ = $esp $T0 8 + = 
STACK WIN 4 9600 20 7 0 8 0 4 0 1 $T0 $ebp = $eip $T0 4 + ^ = $ebp $T0 ^ = $esp $T0 8 + = 
STACK WIN 4 9630 2a 7 0 0 0 4 0 1 $T0 $ebp = $eip $T0 4 + ^ = $ebp $T0 ^ = $esp $T0 8 + = 
STACK WIN 4 9670 28 7 0 4 0 4 0 1 $T0 $ebp = $eip $T0 4 + ^ = $ebp $T0 ^ = $esp $T0 8 + = 
STACK WIN 4 96b0 28 7 0 4 0 4 0 1 $T0 $ebp = $eip $T0 4 + ^ = $ebp $T0 ^ = $esp $T0 8 + = 
STACK WIN 4 96f0 65 26 0 8 4 10 0 1 $T0 $ebp = $eip $T0 4 + ^ = $ebp $T0 ^ = $esp $T0 8 + = 
STACK WIN 4 9770 1c 7 0 4 0 4 0 1 $T0 $ebp = $eip $T0 4 + ^ = $ebp $T0 ^ = $esp $T0 8 + = 
STACK WIN 4 97a0 20 7 0 8 0 4 0 1 $T0 $ebp = $eip $T0 4 + ^ = $ebp $T0 ^ = $esp $T0 8 + = 
STACK WIN 4 97d0 5d 28 0 0 4 14 0 1 $T0 $ebp = $eip $T0 4 + ^ = $ebp $T0 ^ = $esp $T0 8 + = 
STACK WIN 4 9850 28 7 0 4 0 4 0 1 $T0 $ebp = $eip $T0 4 + ^ = $ebp $T0 ^ = $esp $T0 8 + = 
STACK WIN 4 9890 65 26 0 8 4 10 0 1 $T0 $ebp = $eip $T0 4 + ^ = $ebp $T0 ^ = $esp $T0 8 + = 
STACK WIN 4 9910 1c 7 0 4 0 4 0 1 $T0 $ebp = $eip $T0 4 + ^ = $ebp $T0 ^ = $esp $T0 8 + = 
STACK WIN 4 9940 20 7 0 8 0 4 0 1 $T0 $ebp = $eip $T0 4 + ^ = $ebp $T0 ^ = $esp $T0 8 + = 
STACK WIN 4 9970 34 7 0 0 0 4 0 1 $T0 $ebp = $eip $T0 4 + ^ = $ebp $T0 ^ = $esp $T0 8 + = 
STACK WIN 4 99c0 16 7 0 0 0 4 0 1 $T0 $ebp = $eip $T0 4 + ^ = $ebp $T0 ^ = $esp $T0 8 + = 
STACK WIN 4 99e0 16 7 0 0 0 4 0 1 $T0 $ebp = $eip $T0 4 + ^ = $ebp $T0 ^ = $esp $T0 8 + = 
STACK WIN 4 9a00 e 7 0 0 0 4 0 1 $T0 $ebp = $eip $T0 4 + ^ = $ebp $T0 ^ = $esp $T0 8 + = 
STACK WIN 4 9a20 e 7 0 0 0 4 0 1 $T0 $ebp = $eip $T0 4 + ^ = $ebp $T0 ^ = $esp $T0 8 + = 
STACK WIN 4 9a40 16 7 0 0 0 4 0 1 $T0 $ebp = $eip $T0 4 + ^ = $ebp $T0 ^ = $esp $T0 8 + = 
STACK WIN 4 9a60 18 7 0 4 0 4 0 1 $T0 $ebp = $eip $T0 4 + ^ = $ebp $T0 ^ = $esp $T0 8 + = 
STACK WIN 4 9a80 40 26 0 0 4 10 0 1 $T0 $ebp = $eip $T0 4 + ^ = $ebp $T0 ^ = $esp $T0 8 + = 
STACK WIN 4 9ad0 86 7 0 0 0 4 0 1 $T0 $ebp = $eip $T0 4 + ^ = $ebp $T0 ^ = $esp $T0 8 + = 
STACK WIN 4 9b80 59 26 0 0 4 10 0 1 $T0 $ebp = $eip $T0 4 + ^ = $ebp $T0 ^ = $esp $T0 8 + = 
STACK WIN 4 9bf0 2f 7 0 4 0 4 0 1 $T0 $ebp = $eip $T0 4 + ^ = $ebp $T0 ^ = $esp $T0 8 + = 
STACK WIN 4 9c30 21 7 0 0 0 4 0 1 $T0 $ebp = $eip $T0 4 + ^ = $ebp $T0 ^ = $esp $T0 8 + = 
STACK WIN 4 9c60 13 7 0 0 0 4 0 1 $T0 $ebp = $eip $T0 4 + ^ = $ebp $T0 ^ = $esp $T0 8 + = 
STACK WIN 4 9c80 13 7 0 0 0 4 0 1 $T0 $ebp = $eip $T0 4 + ^ = $ebp $T0 ^ = $esp $T0 8 + = 
STACK WIN 4 9ca0 13 7 0 0 0 4 0 1 $T0 $ebp = $eip $T0 4 + ^ = $ebp $T0 ^ = $esp $T0 8 + = 
STACK WIN 4 9cc0 13 7 0 0 0 4 0 1 $T0 $ebp = $eip $T0 4 + ^ = $ebp $T0 ^ = $esp $T0 8 + = 
STACK WIN 4 9ce0 13 7 0 0 0 4 0 1 $T0 $ebp = $eip $T0 4 + ^ = $ebp $T0 ^ = $esp $T0 8 + = 
STACK WIN 4 9d00 58 26 0 0 4 10 0 1 $T0 $ebp = $eip $T0 4 + ^ = $ebp $T0 ^ = $esp $T0 8 + = 
STACK WIN 4 9d70 13 7 0 0 0 4 0 1 $T0 $ebp = $eip $T0 4 + ^ = $ebp $T0 ^ = $esp $T0 8 + = 
STACK WIN 4 9d90 13 7 0 0 0 4 0 1 $T0 $ebp = $eip $T0 4 + ^ = $ebp $T0 ^ = $esp $T0 8 + = 
STACK WIN 4 9db0 13 7 0 0 0 4 0 1 $T0 $ebp = $eip $T0 4 + ^ = $ebp $T0 ^ = $esp $T0 8 + = 
STACK WIN 4 9dd0 13 7 0 0 0 4 0 1 $T0 $ebp = $eip $T0 4 + ^ = $ebp $T0 ^ = $esp $T0 8 + = 
STACK WIN 4 9df0 13 7 0 0 0 4 0 1 $T0 $ebp = $eip $T0 4 + ^ = $ebp $T0 ^ = $esp $T0 8 + = 
STACK WIN 4 9e10 13 7 0 0 0 4 0 1 $T0 $ebp = $eip $T0 4 + ^ = $ebp $T0 ^ = $esp $T0 8 + = 
STACK WIN 4 9e30 13 7 0 0 0 4 0 1 $T0 $ebp = $eip $T0 4 + ^ = $ebp $T0 ^ = $esp $T0 8 + = 
STACK WIN 4 9e50 45 26 0 0 4 10 0 1 $T0 $ebp = $eip $T0 4 + ^ = $ebp $T0 ^ = $esp $T0 8 + = 
STACK WIN 4 9eb0 13 7 0 0 0 4 0 1 $T0 $ebp = $eip $T0 4 + ^ = $ebp $T0 ^ = $esp $T0 8 + = 
STACK WIN 4 9ed0 13 7 0 0 0 4 0 1 $T0 $ebp = $eip $T0 4 + ^ = $ebp $T0 ^ = $esp $T0 8 + = 
STACK WIN 4 9ef0 13 7 0 0 0 4 0 1 $T0 $ebp = $eip $T0 4 + ^ = $ebp $T0 ^ = $esp $T0 8 + = 
STACK WIN 4 9f10 45 26 0 0 4 10 0 1 $T0 $ebp = $eip $T0 4 + ^ = $ebp $T0 ^ = $esp $T0 8 + = 
STACK WIN 4 9f70 37 9 0 0 0 10 0 1 $T0 $ebp = $eip $T0 4 + ^ = $ebp $T0 ^ = $esp $T0 8 + = 
STACK WIN 4 9fc0 45 26 0 0 4 10 0 1 $T0 $ebp = $eip $T0 4 + ^ = $ebp $T0 ^ = $esp $T0 8 + = 
STACK WIN 4 a020 4a 7 0 0 0 4 0 1 $T0 $ebp = $eip $T0 4 + ^ = $ebp $T0 ^ = $esp $T0 8 + = 
STACK WIN 4 a080 1e 7 0 0 0 4 0 1 $T0 $ebp = $eip $T0 4 + ^ = $ebp $T0 ^ = $esp $T0 8 + = 
STACK WIN 4 a0b0 53 28 0 0 4 14 0 1 $T0 $ebp = $eip $T0 4 + ^ = $ebp $T0 ^ = $esp $T0 8 + = 
STACK WIN 4 a120 1c 7 0 4 0 4 0 1 $T0 $ebp = $eip $T0 4 + ^ = $ebp $T0 ^ = $esp $T0 8 + = 
STACK WIN 4 a150 1c 7 0 4 0 4 0 1 $T0 $ebp = $eip $T0 4 + ^ = $ebp $T0 ^ = $esp $T0 8 + = 
STACK WIN 4 a180 1c 7 0 4 0 4 0 1 $T0 $ebp = $eip $T0 4 + ^ = $ebp $T0 ^ = $esp $T0 8 + = 
STACK WIN 4 a1b0 28 7 0 4 0 4 0 1 $T0 $ebp = $eip $T0 4 + ^ = $ebp $T0 ^ = $esp $T0 8 + = 
STACK WIN 4 a1f0 28 7 0 4 0 4 0 1 $T0 $ebp = $eip $T0 4 + ^ = $ebp $T0 ^ = $esp $T0 8 + = 
STACK WIN 4 a230 1c 7 0 4 0 4 0 1 $T0 $ebp = $eip $T0 4 + ^ = $ebp $T0 ^ = $esp $T0 8 + = 
STACK WIN 4 a260 1c 7 0 4 0 4 0 1 $T0 $ebp = $eip $T0 4 + ^ = $ebp $T0 ^ = $esp $T0 8 + = 
STACK WIN 4 a290 f1 28 0 4 4 18 0 1 $T0 $ebp = $eip $T0 4 + ^ = $ebp $T0 ^ = $esp $T0 8 + = 
STACK WIN 4 a3c0 66 7 0 4 0 4 0 1 $T0 $ebp = $eip $T0 4 + ^ = $ebp $T0 ^ = $esp $T0 8 + = 
STACK WIN 4 a440 8e 28 0 4 4 14 0 1 $T0 $ebp = $eip $T0 4 + ^ = $ebp $T0 ^ = $esp $T0 8 + = 
STACK WIN 4 a500 b3 a 0 4 4 8 0 1 $T0 $ebp = $eip $T0 4 + ^ = $ebp $T0 ^ = $esp $T0 8 + =  $23 $T0 12 - ^ = 
STACK WIN 4 a5e0 2e 9 0 4 0 8 0 1 $T0 $ebp = $eip $T0 4 + ^ = $ebp $T0 ^ = $esp $T0 8 + = 
STACK WIN 4 a620 3c 9 0 4 0 8 0 1 $T0 $ebp = $eip $T0 4 + ^ = $ebp $T0 ^ = $esp $T0 8 + = 
STACK WIN 4 a670 3c 9 0 4 0 8 0 1 $T0 $ebp = $eip $T0 4 + ^ = $ebp $T0 ^ = $esp $T0 8 + = 
STACK WIN 4 a6c0 47 9 0 4 0 14 0 1 $T0 $ebp = $eip $T0 4 + ^ = $ebp $T0 ^ = $esp $T0 8 + = 
STACK WIN 4 a720 35 9 0 4 0 8 0 1 $T0 $ebp = $eip $T0 4 + ^ = $ebp $T0 ^ = $esp $T0 8 + = 
STACK WIN 4 a770 35 9 0 4 0 8 0 1 $T0 $ebp = $eip $T0 4 + ^ = $ebp $T0 ^ = $esp $T0 8 + = 
STACK WIN 4 a7c0 35 9 0 4 0 8 0 1 $T0 $ebp = $eip $T0 4 + ^ = $ebp $T0 ^ = $esp $T0 8 + = 
STACK WIN 4 a810 1c 7 0 0 0 4 0 1 $T0 $ebp = $eip $T0 4 + ^ = $ebp $T0 ^ = $esp $T0 8 + = 
STACK WIN 4 a840 2d 7 0 0 0 4 0 1 $T0 $ebp = $eip $T0 4 + ^ = $ebp $T0 ^ = $esp $T0 8 + = 
STACK WIN 4 a880 af 9 0 0 0 8 0 1 $T0 $ebp = $eip $T0 4 + ^ = $ebp $T0 ^ = $esp $T0 8 + = 
STACK WIN 4 a960 13 7 0 0 0 4 0 1 $T0 $ebp = $eip $T0 4 + ^ = $ebp $T0 ^ = $esp $T0 8 + = 
STACK WIN 4 a980 19 7 0 0 0 4 0 1 $T0 $ebp = $eip $T0 4 + ^ = $ebp $T0 ^ = $esp $T0 8 + = 
STACK WIN 4 a9a0 1a 7 0 0 0 4 0 1 $T0 $ebp = $eip $T0 4 + ^ = $ebp $T0 ^ = $esp $T0 8 + = 
STACK WIN 4 a9c0 13 7 0 0 0 4 0 1 $T0 $ebp = $eip $T0 4 + ^ = $ebp $T0 ^ = $esp $T0 8 + = 
STACK WIN 4 a9e0 e4 a 0 0 4 10 0 1 $T0 $ebp = $eip $T0 4 + ^ = $ebp $T0 ^ = $esp $T0 8 + =  $23 $T0 20 - ^ = 
STACK WIN 4 ab00 13 7 0 0 0 4 0 1 $T0 $ebp = $eip $T0 4 + ^ = $ebp $T0 ^ = $esp $T0 8 + = 
STACK WIN 4 ab20 ab 9 0 0 0 8 0 1 $T0 $ebp = $eip $T0 4 + ^ = $ebp $T0 ^ = $esp $T0 8 + = 
STACK WIN 4 ac00 13 7 0 0 0 4 0 1 $T0 $ebp = $eip $T0 4 + ^ = $ebp $T0 ^ = $esp $T0 8 + = 
STACK WIN 4 ac20 82 28 0 8 4 20 0 1 $T0 $ebp = $eip $T0 4 + ^ = $ebp $T0 ^ = $esp $T0 8 + = 
STACK WIN 4 acd0 ba 9 0 0 0 8 0 1 $T0 $ebp = $eip $T0 4 + ^ = $ebp $T0 ^ = $esp $T0 8 + = 
STACK WIN 4 adc0 23 7 0 0 0 4 0 1 $T0 $ebp = $eip $T0 4 + ^ = $ebp $T0 ^ = $esp $T0 8 + = 
STACK WIN 4 adf0 16 7 0 0 0 4 0 1 $T0 $ebp = $eip $T0 4 + ^ = $ebp $T0 ^ = $esp $T0 8 + = 
STACK WIN 4 ae10 a9 9 0 0 0 8 0 1 $T0 $ebp = $eip $T0 4 + ^ = $ebp $T0 ^ = $esp $T0 8 + = 
STACK WIN 4 aef0 16 7 0 0 0 4 0 1 $T0 $ebp = $eip $T0 4 + ^ = $ebp $T0 ^ = $esp $T0 8 + = 
STACK WIN 4 af10 27 7 0 4 0 4 0 1 $T0 $ebp = $eip $T0 4 + ^ = $ebp $T0 ^ = $esp $T0 8 + = 
STACK WIN 4 af40 19 7 0 4 0 4 0 1 $T0 $ebp = $eip $T0 4 + ^ = $ebp $T0 ^ = $esp $T0 8 + = 
STACK WIN 4 af60 83 28 0 8 4 20 0 1 $T0 $ebp = $eip $T0 4 + ^ = $ebp $T0 ^ = $esp $T0 8 + = 
STACK WIN 4 b010 d2 9 0 4 0 8 0 1 $T0 $ebp = $eip $T0 4 + ^ = $ebp $T0 ^ = $esp $T0 8 + = 
STACK WIN 4 b120 1c 7 0 4 0 4 0 1 $T0 $ebp = $eip $T0 4 + ^ = $ebp $T0 ^ = $esp $T0 8 + = 
STACK WIN 4 b150 1b 7 0 4 0 4 0 1 $T0 $ebp = $eip $T0 4 + ^ = $ebp $T0 ^ = $esp $T0 8 + = 
STACK WIN 4 b180 2e 7 0 4 0 4 0 1 $T0 $ebp = $eip $T0 4 + ^ = $ebp $T0 ^ = $esp $T0 8 + = 
STACK WIN 4 b1c0 31 7 0 4 0 4 0 1 $T0 $ebp = $eip $T0 4 + ^ = $ebp $T0 ^ = $esp $T0 8 + = 
STACK WIN 4 b200 2f 9 0 0 0 8 0 1 $T0 $ebp = $eip $T0 4 + ^ = $ebp $T0 ^ = $esp $T0 8 + = 
STACK WIN 4 b240 d 7 0 4 0 4 0 1 $T0 $ebp = $eip $T0 4 + ^ = $ebp $T0 ^ = $esp $T0 8 + = 
STACK WIN 4 b250 c4 28 0 4 4 1c 0 1 $T0 $ebp = $eip $T0 4 + ^ = $ebp $T0 ^ = $esp $T0 8 + = 
STACK WIN 4 b350 71 a 0 0 4 10 0 1 $T0 $ebp = $eip $T0 4 + ^ = $ebp $T0 ^ = $esp $T0 8 + =  $23 $T0 20 - ^ = 
STACK WIN 4 b3e0 71 a 0 0 4 10 0 1 $T0 $ebp = $eip $T0 4 + ^ = $ebp $T0 ^ = $esp $T0 8 + =  $23 $T0 20 - ^ = 
STACK WIN 4 b470 b6 8 0 4 4 4 0 1 $T0 $ebp = $eip $T0 4 + ^ = $ebp $T0 ^ = $esp $T0 8 + =  $23 $T0 8 - ^ = 
STACK WIN 4 b560 17 7 0 0 0 4 0 1 $T0 $ebp = $eip $T0 4 + ^ = $ebp $T0 ^ = $esp $T0 8 + = 
STACK WIN 4 b580 107 2f 0 8 10 20 0 1 $T0 $ebp = $eip $T0 4 + ^ = $ebp $T0 ^ = $esp $T0 8 + =  $20 $T0 36 - ^ =  $23 $T0 40 - ^ =  $24 $T0 44 - ^ = 
STACK WIN 4 b6d0 14 7 0 0 0 4 0 1 $T0 $ebp = $eip $T0 4 + ^ = $ebp $T0 ^ = $esp $T0 8 + = 
STACK WIN 4 b6f0 90 8 0 4 4 4 0 1 $T0 $ebp = $eip $T0 4 + ^ = $ebp $T0 ^ = $esp $T0 8 + =  $23 $T0 8 - ^ = 
STACK WIN 4 b7b0 90 8 0 4 4 4 0 1 $T0 $ebp = $eip $T0 4 + ^ = $ebp $T0 ^ = $esp $T0 8 + =  $23 $T0 8 - ^ = 
STACK WIN 4 b870 32 7 0 4 0 4 0 1 $T0 $ebp = $eip $T0 4 + ^ = $ebp $T0 ^ = $esp $T0 8 + = 
STACK WIN 4 b8b0 26 7 0 8 0 4 0 1 $T0 $ebp = $eip $T0 4 + ^ = $ebp $T0 ^ = $esp $T0 8 + = 
STACK WIN 4 b8e0 65 9 0 0 0 8 0 1 $T0 $ebp = $eip $T0 4 + ^ = $ebp $T0 ^ = $esp $T0 8 + = 
STACK WIN 4 b960 65 9 0 0 0 8 0 1 $T0 $ebp = $eip $T0 4 + ^ = $ebp $T0 ^ = $esp $T0 8 + = 
STACK WIN 4 b9e0 6c 7 0 4 0 4 0 1 $T0 $ebp = $eip $T0 4 + ^ = $ebp $T0 ^ = $esp $T0 8 + = 
STACK WIN 4 ba70 91 7 0 4 0 4 0 1 $T0 $ebp = $eip $T0 4 + ^ = $ebp $T0 ^ = $esp $T0 8 + = 
STACK WIN 4 bb30 13 7 0 0 0 4 0 1 $T0 $ebp = $eip $T0 4 + ^ = $ebp $T0 ^ = $esp $T0 8 + = 
STACK WIN 4 bb50 13 7 0 0 0 4 0 1 $T0 $ebp = $eip $T0 4 + ^ = $ebp $T0 ^ = $esp $T0 8 + = 
STACK WIN 4 bb70 13 7 0 0 0 4 0 1 $T0 $ebp = $eip $T0 4 + ^ = $ebp $T0 ^ = $esp $T0 8 + = 
STACK WIN 4 bb90 13 7 0 0 0 4 0 1 $T0 $ebp = $eip $T0 4 + ^ = $ebp $T0 ^ = $esp $T0 8 + = 
STACK WIN 4 bbb0 e 7 0 0 0 4 0 1 $T0 $ebp = $eip $T0 4 + ^ = $ebp $T0 ^ = $esp $T0 8 + = 
STACK WIN 4 bbd0 e 7 0 0 0 4 0 1 $T0 $ebp = $eip $T0 4 + ^ = $ebp $T0 ^ = $esp $T0 8 + = 
STACK WIN 4 bbf0 e 7 0 0 0 4 0 1 $T0 $ebp = $eip $T0 4 + ^ = $ebp $T0 ^ = $esp $T0 8 + = 
STACK WIN 4 bc10 e 7 0 0 0 4 0 1 $T0 $ebp = $eip $T0 4 + ^ = $ebp $T0 ^ = $esp $T0 8 + = 
STACK WIN 4 bc30 e 7 0 0 0 4 0 1 $T0 $ebp = $eip $T0 4 + ^ = $ebp $T0 ^ = $esp $T0 8 + = 
STACK WIN 4 bc50 e 7 0 0 0 4 0 1 $T0 $ebp = $eip $T0 4 + ^ = $ebp $T0 ^ = $esp $T0 8 + = 
STACK WIN 4 bc70 e 7 0 0 0 4 0 1 $T0 $ebp = $eip $T0 4 + ^ = $ebp $T0 ^ = $esp $T0 8 + = 
STACK WIN 4 bc90 e 7 0 0 0 4 0 1 $T0 $ebp = $eip $T0 4 + ^ = $ebp $T0 ^ = $esp $T0 8 + = 
STACK WIN 4 bcb0 13 7 0 0 0 4 0 1 $T0 $ebp = $eip $T0 4 + ^ = $ebp $T0 ^ = $esp $T0 8 + = 
STACK WIN 4 bcd0 13 7 0 0 0 4 0 1 $T0 $ebp = $eip $T0 4 + ^ = $ebp $T0 ^ = $esp $T0 8 + = 
STACK WIN 4 bcf0 13 7 0 0 0 4 0 1 $T0 $ebp = $eip $T0 4 + ^ = $ebp $T0 ^ = $esp $T0 8 + = 
STACK WIN 4 bd10 13 7 0 0 0 4 0 1 $T0 $ebp = $eip $T0 4 + ^ = $ebp $T0 ^ = $esp $T0 8 + = 
STACK WIN 4 bd30 2b 9 0 0 0 8 0 1 $T0 $ebp = $eip $T0 4 + ^ = $ebp $T0 ^ = $esp $T0 8 + = 
STACK WIN 4 bd70 1a 7 0 0 0 4 0 1 $T0 $ebp = $eip $T0 4 + ^ = $ebp $T0 ^ = $esp $T0 8 + = 
STACK WIN 4 bd90 1a 7 0 0 0 4 0 1 $T0 $ebp = $eip $T0 4 + ^ = $ebp $T0 ^ = $esp $T0 8 + = 
STACK WIN 4 bdb0 2c 9 0 0 0 8 0 1 $T0 $ebp = $eip $T0 4 + ^ = $ebp $T0 ^ = $esp $T0 8 + = 
STACK WIN 4 bdf0 11 7 0 0 0 4 0 1 $T0 $ebp = $eip $T0 4 + ^ = $ebp $T0 ^ = $esp $T0 8 + = 
STACK WIN 4 be10 59 9 0 4 0 c 0 1 $T0 $ebp = $eip $T0 4 + ^ = $ebp $T0 ^ = $esp $T0 8 + = 
STACK WIN 4 be80 50 a 0 4 4 8 0 1 $T0 $ebp = $eip $T0 4 + ^ = $ebp $T0 ^ = $esp $T0 8 + =  $23 $T0 12 - ^ = 
STACK WIN 4 bef0 52 9 0 4 0 8 0 1 $T0 $ebp = $eip $T0 4 + ^ = $ebp $T0 ^ = $esp $T0 8 + = 
STACK WIN 4 bf60 57 26 0 10 4 10 0 1 $T0 $ebp = $eip $T0 4 + ^ = $ebp $T0 ^ = $esp $T0 8 + = 
STACK WIN 4 bfd0 77 28 0 10 4 14 0 1 $T0 $ebp = $eip $T0 4 + ^ = $ebp $T0 ^ = $esp $T0 8 + = 
STACK WIN 4 c070 32 7 0 4 0 4 0 1 $T0 $ebp = $eip $T0 4 + ^ = $ebp $T0 ^ = $esp $T0 8 + = 
STACK WIN 4 c0b0 16 7 0 0 0 4 0 1 $T0 $ebp = $eip $T0 4 + ^ = $ebp $T0 ^ = $esp $T0 8 + = 
STACK WIN 4 c0d0 16 7 0 0 0 4 0 1 $T0 $ebp = $eip $T0 4 + ^ = $ebp $T0 ^ = $esp $T0 8 + = 
STACK WIN 4 c0f0 16 7 0 0 0 4 0 1 $T0 $ebp = $eip $T0 4 + ^ = $ebp $T0 ^ = $esp $T0 8 + = 
STACK WIN 4 c110 16 7 0 0 0 4 0 1 $T0 $ebp = $eip $T0 4 + ^ = $ebp $T0 ^ = $esp $T0 8 + = 
STACK WIN 4 c130 16 7 0 0 0 4 0 1 $T0 $ebp = $eip $T0 4 + ^ = $ebp $T0 ^ = $esp $T0 8 + = 
STACK WIN 4 c150 16 7 0 0 0 4 0 1 $T0 $ebp = $eip $T0 4 + ^ = $ebp $T0 ^ = $esp $T0 8 + = 
STACK WIN 4 c170 16 7 0 0 0 4 0 1 $T0 $ebp = $eip $T0 4 + ^ = $ebp $T0 ^ = $esp $T0 8 + = 
STACK WIN 4 c190 10 7 0 0 0 4 0 1 $T0 $ebp = $eip $T0 4 + ^ = $ebp $T0 ^ = $esp $T0 8 + = 
STACK WIN 4 c1b0 11 7 0 0 0 4 0 1 $T0 $ebp = $eip $T0 4 + ^ = $ebp $T0 ^ = $esp $T0 8 + = 
STACK WIN 4 c1d0 13 7 0 0 0 4 0 1 $T0 $ebp = $eip $T0 4 + ^ = $ebp $T0 ^ = $esp $T0 8 + = 
STACK WIN 4 c1f0 13 7 0 0 0 4 0 1 $T0 $ebp = $eip $T0 4 + ^ = $ebp $T0 ^ = $esp $T0 8 + = 
STACK WIN 4 c210 16 7 0 0 0 4 0 1 $T0 $ebp = $eip $T0 4 + ^ = $ebp $T0 ^ = $esp $T0 8 + = 
STACK WIN 4 c230 11 3 0 4 0 0 0 1 $T0 $ebp = $eip $T0 4 + ^ = $ebp $T0 ^ = $esp $T0 8 + = 
STACK WIN 4 c250 b 3 0 4 0 0 0 1 $T0 $ebp = $eip $T0 4 + ^ = $ebp $T0 ^ = $esp $T0 8 + = 
STACK WIN 4 c260 11 3 0 4 0 0 0 1 $T0 $ebp = $eip $T0 4 + ^ = $ebp $T0 ^ = $esp $T0 8 + = 
STACK WIN 4 c280 8 3 0 4 0 0 0 1 $T0 $ebp = $eip $T0 4 + ^ = $ebp $T0 ^ = $esp $T0 8 + = 
STACK WIN 4 c290 1a 7 0 0 0 4 0 1 $T0 $ebp = $eip $T0 4 + ^ = $ebp $T0 ^ = $esp $T0 8 + = 
STACK WIN 4 c2b0 1a 7 0 0 0 4 0 1 $T0 $ebp = $eip $T0 4 + ^ = $ebp $T0 ^ = $esp $T0 8 + = 
STACK WIN 4 c2d0 73 9 0 0 0 8 0 1 $T0 $ebp = $eip $T0 4 + ^ = $ebp $T0 ^ = $esp $T0 8 + = 
STACK WIN 4 c360 c9 29 0 4 8 18 0 1 $T0 $ebp = $eip $T0 4 + ^ = $ebp $T0 ^ = $esp $T0 8 + =  $23 $T0 28 - ^ = 
STACK WIN 4 c460 ba 28 0 8 4 18 0 1 $T0 $ebp = $eip $T0 4 + ^ = $ebp $T0 ^ = $esp $T0 8 + = 
STACK WIN 4 c550 11 3 0 4 0 0 0 1 $T0 $ebp = $eip $T0 4 + ^ = $ebp $T0 ^ = $esp $T0 8 + = 
STACK WIN 4 c570 b 3 0 4 0 0 0 1 $T0 $ebp = $eip $T0 4 + ^ = $ebp $T0 ^ = $esp $T0 8 + = 
STACK WIN 4 c580 15f 2f 0 4 10 1c 0 1 $T0 $ebp = $eip $T0 4 + ^ = $ebp $T0 ^ = $esp $T0 8 + =  $20 $T0 32 - ^ =  $23 $T0 36 - ^ =  $24 $T0 40 - ^ = 
STACK WIN 4 c740 19 7 0 4 0 4 0 1 $T0 $ebp = $eip $T0 4 + ^ = $ebp $T0 ^ = $esp $T0 8 + = 
STACK WIN 4 c760 5a 8 0 4 4 4 0 1 $T0 $ebp = $eip $T0 4 + ^ = $ebp $T0 ^ = $esp $T0 8 + =  $23 $T0 8 - ^ = 
STACK WIN 4 c7d0 13 7 0 0 0 4 0 1 $T0 $ebp = $eip $T0 4 + ^ = $ebp $T0 ^ = $esp $T0 8 + = 
STACK WIN 4 c7f0 a2 8 0 0 4 4 0 1 $T0 $ebp = $eip $T0 4 + ^ = $ebp $T0 ^ = $esp $T0 8 + =  $23 $T0 8 - ^ = 
STACK WIN 4 c8c0 28 7 0 4 0 4 0 1 $T0 $ebp = $eip $T0 4 + ^ = $ebp $T0 ^ = $esp $T0 8 + = 
STACK WIN 4 c900 2c 7 0 4 0 4 0 1 $T0 $ebp = $eip $T0 4 + ^ = $ebp $T0 ^ = $esp $T0 8 + = 
STACK WIN 4 c940 118 29 0 c 8 1c 0 1 $T0 $ebp = $eip $T0 4 + ^ = $ebp $T0 ^ = $esp $T0 8 + =  $23 $T0 32 - ^ = 
STACK WIN 4 caa0 28 8 0 0 4 4 0 1 $T0 $ebp = $eip $T0 4 + ^ = $ebp $T0 ^ = $esp $T0 8 + =  $23 $T0 8 - ^ = 
STACK WIN 4 cae0 16 7 0 0 0 4 0 1 $T0 $ebp = $eip $T0 4 + ^ = $ebp $T0 ^ = $esp $T0 8 + = 
STACK WIN 4 cb00 16 7 0 0 0 4 0 1 $T0 $ebp = $eip $T0 4 + ^ = $ebp $T0 ^ = $esp $T0 8 + = 
STACK WIN 4 cb20 19 7 0 4 0 4 0 1 $T0 $ebp = $eip $T0 4 + ^ = $ebp $T0 ^ = $esp $T0 8 + = 
STACK WIN 4 cb40 19 7 0 4 0 4 0 1 $T0 $ebp = $eip $T0 4 + ^ = $ebp $T0 ^ = $esp $T0 8 + = 
STACK WIN 4 cb60 19 7 0 4 0 4 0 1 $T0 $ebp = $eip $T0 4 + ^ = $ebp $T0 ^ = $esp $T0 8 + = 
STACK WIN 4 cb80 1d 7 0 4 0 4 0 1 $T0 $ebp = $eip $T0 4 + ^ = $ebp $T0 ^ = $esp $T0 8 + = 
STACK WIN 4 cbb0 1d 7 0 4 0 4 0 1 $T0 $ebp = $eip $T0 4 + ^ = $ebp $T0 ^ = $esp $T0 8 + = 
STACK WIN 4 cbe0 21 7 0 4 0 4 0 1 $T0 $ebp = $eip $T0 4 + ^ = $ebp $T0 ^ = $esp $T0 8 + = 
STACK WIN 4 cc10 32 7 0 4 0 4 0 1 $T0 $ebp = $eip $T0 4 + ^ = $ebp $T0 ^ = $esp $T0 8 + = 
STACK WIN 4 cc50 97 28 0 0 4 3c 0 1 $T0 $ebp = $eip $T0 4 + ^ = $ebp $T0 ^ = $esp $T0 8 + = 
STACK WIN 4 cd10 6c 28 0 4 4 14 0 1 $T0 $ebp = $eip $T0 4 + ^ = $ebp $T0 ^ = $esp $T0 8 + = 
STACK WIN 4 cda0 61 26 0 4 4 10 0 1 $T0 $ebp = $eip $T0 4 + ^ = $ebp $T0 ^ = $esp $T0 8 + = 
STACK WIN 4 ce20 56 26 0 4 4 10 0 1 $T0 $ebp = $eip $T0 4 + ^ = $ebp $T0 ^ = $esp $T0 8 + = 
STACK WIN 4 ce90 3d 26 0 0 4 10 0 1 $T0 $ebp = $eip $T0 4 + ^ = $ebp $T0 ^ = $esp $T0 8 + = 
STACK WIN 4 cee0 28 8 0 0 4 4 0 1 $T0 $ebp = $eip $T0 4 + ^ = $ebp $T0 ^ = $esp $T0 8 + =  $23 $T0 8 - ^ = 
STACK WIN 4 cf20 e1 29 0 0 8 18 0 1 $T0 $ebp = $eip $T0 4 + ^ = $ebp $T0 ^ = $esp $T0 8 + =  $23 $T0 28 - ^ = 
STACK WIN 4 d040 1d 7 0 8 0 4 0 1 $T0 $ebp = $eip $T0 4 + ^ = $ebp $T0 ^ = $esp $T0 8 + = 
STACK WIN 4 d070 1d 7 0 8 0 4 0 1 $T0 $ebp = $eip $T0 4 + ^ = $ebp $T0 ^ = $esp $T0 8 + = 
STACK WIN 4 d0a0 1f 7 0 8 0 4 0 1 $T0 $ebp = $eip $T0 4 + ^ = $ebp $T0 ^ = $esp $T0 8 + = 
STACK WIN 4 d0d0 1f 7 0 8 0 4 0 1 $T0 $ebp = $eip $T0 4 + ^ = $ebp $T0 ^ = $esp $T0 8 + = 
STACK WIN 4 d100 3a a 0 0 4 8 0 1 $T0 $ebp = $eip $T0 4 + ^ = $ebp $T0 ^ = $esp $T0 8 + =  $23 $T0 12 - ^ = 
STACK WIN 4 d150 75 28 0 4 4 14 0 1 $T0 $ebp = $eip $T0 4 + ^ = $ebp $T0 ^ = $esp $T0 8 + = 
STACK WIN 4 d1f0 56 26 0 4 4 10 0 1 $T0 $ebp = $eip $T0 4 + ^ = $ebp $T0 ^ = $esp $T0 8 + = 
STACK WIN 4 d260 56 26 0 4 4 10 0 1 $T0 $ebp = $eip $T0 4 + ^ = $ebp $T0 ^ = $esp $T0 8 + = 
STACK WIN 4 d2d0 b8 28 0 10 4 30 0 1 $T0 $ebp = $eip $T0 4 + ^ = $ebp $T0 ^ = $esp $T0 8 + = 
STACK WIN 4 d3c0 141 29 0 10 8 24 0 1 $T0 $ebp = $eip $T0 4 + ^ = $ebp $T0 ^ = $esp $T0 8 + =  $23 $T0 40 - ^ = 
STACK WIN 4 d560 70 28 0 0 4 28 0 1 $T0 $ebp = $eip $T0 4 + ^ = $ebp $T0 ^ = $esp $T0 8 + = 
STACK WIN 4 d5f0 10 7 0 0 0 4 0 1 $T0 $ebp = $eip $T0 4 + ^ = $ebp $T0 ^ = $esp $T0 8 + = 
STACK WIN 4 d610 14 7 0 0 0 4 0 1 $T0 $ebp = $eip $T0 4 + ^ = $ebp $T0 ^ = $esp $T0 8 + = 
STACK WIN 4 d630 10 7 0 0 0 4 0 1 $T0 $ebp = $eip $T0 4 + ^ = $ebp $T0 ^ = $esp $T0 8 + = 
STACK WIN 4 d650 19 7 0 4 0 4 0 1 $T0 $ebp = $eip $T0 4 + ^ = $ebp $T0 ^ = $esp $T0 8 + = 
STACK WIN 4 d670 19 7 0 4 0 4 0 1 $T0 $ebp = $eip $T0 4 + ^ = $ebp $T0 ^ = $esp $T0 8 + = 
STACK WIN 4 d690 10 7 0 0 0 4 0 1 $T0 $ebp = $eip $T0 4 + ^ = $ebp $T0 ^ = $esp $T0 8 + = 
STACK WIN 4 d6b0 10 7 0 0 0 4 0 1 $T0 $ebp = $eip $T0 4 + ^ = $ebp $T0 ^ = $esp $T0 8 + = 
STACK WIN 4 d6d0 d 3 0 4 0 0 0 1 $T0 $ebp = $eip $T0 4 + ^ = $ebp $T0 ^ = $esp $T0 8 + = 
STACK WIN 4 d6e0 d 3 0 4 0 0 0 1 $T0 $ebp = $eip $T0 4 + ^ = $ebp $T0 ^ = $esp $T0 8 + = 
STACK WIN 4 d6f0 21 9 0 0 0 8 0 1 $T0 $ebp = $eip $T0 4 + ^ = $ebp $T0 ^ = $esp $T0 8 + = 
STACK WIN 4 d720 21 9 0 0 0 8 0 1 $T0 $ebp = $eip $T0 4 + ^ = $ebp $T0 ^ = $esp $T0 8 + = 
STACK WIN 4 d750 11 3 0 4 0 0 0 1 $T0 $ebp = $eip $T0 4 + ^ = $ebp $T0 ^ = $esp $T0 8 + = 
STACK WIN 4 d770 11 3 0 4 0 0 0 1 $T0 $ebp = $eip $T0 4 + ^ = $ebp $T0 ^ = $esp $T0 8 + = 
STACK WIN 4 d790 95 9 0 0 0 8 0 1 $T0 $ebp = $eip $T0 4 + ^ = $ebp $T0 ^ = $esp $T0 8 + = 
STACK WIN 4 d850 30 9 0 4 0 c 0 1 $T0 $ebp = $eip $T0 4 + ^ = $ebp $T0 ^ = $esp $T0 8 + = 
STACK WIN 4 d890 167 a 0 4 4 10 0 1 $T0 $ebp = $eip $T0 4 + ^ = $ebp $T0 ^ = $esp $T0 8 + =  $23 $T0 20 - ^ = 
STACK WIN 4 da50 21 9 0 0 0 8 0 1 $T0 $ebp = $eip $T0 4 + ^ = $ebp $T0 ^ = $esp $T0 8 + = 
STACK WIN 4 da80 34d a 0 14 4 c 0 1 $T0 $ebp = $eip $T0 4 + ^ = $ebp $T0 ^ = $esp $T0 8 + =  $23 $T0 16 - ^ = 
STACK WIN 4 dea0 1ab a 0 10 4 10 0 1 $T0 $ebp = $eip $T0 4 + ^ = $ebp $T0 ^ = $esp $T0 8 + =  $23 $T0 20 - ^ = 
STACK WIN 4 e0c0 135 28 0 30 4 3c 0 1 $T0 $ebp = $eip $T0 4 + ^ = $ebp $T0 ^ = $esp $T0 8 + = 
STACK WIN 4 e250 4b 9 0 4 0 10 0 1 $T0 $ebp = $eip $T0 4 + ^ = $ebp $T0 ^ = $esp $T0 8 + = 
STACK WIN 4 e2b0 35 7 0 4 0 4 0 1 $T0 $ebp = $eip $T0 4 + ^ = $ebp $T0 ^ = $esp $T0 8 + = 
STACK WIN 4 e300 28 8 0 0 4 4 0 1 $T0 $ebp = $eip $T0 4 + ^ = $ebp $T0 ^ = $esp $T0 8 + =  $23 $T0 8 - ^ = 
STACK WIN 4 e340 a 3 0 0 0 0 0 1 $T0 $ebp = $eip $T0 4 + ^ = $ebp $T0 ^ = $esp $T0 8 + = 
STACK WIN 4 e350 40 6 0 10 0 8 0 1 $T0 $ebp = $eip $T0 4 + ^ = $ebp $T0 ^ = $esp $T0 8 + = 
STACK WIN 4 e3a0 2a 3 0 10 0 0 0 1 $T0 $ebp = $eip $T0 4 + ^ = $ebp $T0 ^ = $esp $T0 8 + = 
STACK WIN 4 e3e0 52 6 0 18 0 8 0 1 $T0 $ebp = $eip $T0 4 + ^ = $ebp $T0 ^ = $esp $T0 8 + = 
STACK WIN 4 e450 4e 6 0 14 0 8 0 1 $T0 $ebp = $eip $T0 4 + ^ = $ebp $T0 ^ = $esp $T0 8 + = 
STACK WIN 4 e4c0 38 6 0 8 0 8 0 1 $T0 $ebp = $eip $T0 4 + ^ = $ebp $T0 ^ = $esp $T0 8 + = 
STACK WIN 4 e510 3c 6 0 c 0 8 0 1 $T0 $ebp = $eip $T0 4 + ^ = $ebp $T0 ^ = $esp $T0 8 + = 
STACK WIN 4 e560 118 25 0 8 4 28 0 1 $T0 $ebp = $eip $T0 4 + ^ = $ebp $T0 ^ = $esp $T0 8 + = 
STACK WIN 4 e680 118 25 0 8 4 28 0 1 $T0 $ebp = $eip $T0 4 + ^ = $ebp $T0 ^ = $esp $T0 8 + = 
STACK WIN 4 e7a0 b5 28 0 8 4 34 0 1 $T0 $ebp = $eip $T0 4 + ^ = $ebp $T0 ^ = $esp $T0 8 + = 
STACK WIN 4 e920 20 7 0 4 0 4 0 1 $T0 $ebp = $eip $T0 4 + ^ = $ebp $T0 ^ = $esp $T0 8 + = 
STACK WIN 4 e950 20 7 0 4 0 4 0 1 $T0 $ebp = $eip $T0 4 + ^ = $ebp $T0 ^ = $esp $T0 8 + = 
STACK WIN 4 e980 25 7 0 4 0 4 0 1 $T0 $ebp = $eip $T0 4 + ^ = $ebp $T0 ^ = $esp $T0 8 + = 
STACK WIN 4 e9b0 10 7 0 4 0 4 0 1 $T0 $ebp = $eip $T0 4 + ^ = $ebp $T0 ^ = $esp $T0 8 + = 
STACK WIN 4 e9d0 2d 7 0 8 0 4 0 1 $T0 $ebp = $eip $T0 4 + ^ = $ebp $T0 ^ = $esp $T0 8 + = 
STACK WIN 4 ea10 6c 28 0 4 4 14 0 1 $T0 $ebp = $eip $T0 4 + ^ = $ebp $T0 ^ = $esp $T0 8 + = 
STACK WIN 4 eaa0 25 7 0 4 0 4 0 1 $T0 $ebp = $eip $T0 4 + ^ = $ebp $T0 ^ = $esp $T0 8 + = 
STACK WIN 4 ead0 21 3 0 c 0 0 0 1 $T0 $ebp = $eip $T0 4 + ^ = $ebp $T0 ^ = $esp $T0 8 + = 
STACK WIN 4 eb00 29 3 0 10 0 0 0 1 $T0 $ebp = $eip $T0 4 + ^ = $ebp $T0 ^ = $esp $T0 8 + = 
STACK WIN 4 eb40 5 3 0 10 0 0 0 1 $T0 $ebp = $eip $T0 4 + ^ = $ebp $T0 ^ = $esp $T0 8 + = 
STACK WIN 4 eb50 5 3 0 10 0 0 0 1 $T0 $ebp = $eip $T0 4 + ^ = $ebp $T0 ^ = $esp $T0 8 + = 
STACK WIN 4 eb60 21 4 0 c 0 4 0 1 $T0 $ebp = $eip $T0 4 + ^ = $ebp $T0 ^ = $esp $T0 8 + = 
STACK WIN 4 eb90 21 4 0 c 0 4 0 1 $T0 $ebp = $eip $T0 4 + ^ = $ebp $T0 ^ = $esp $T0 8 + = 
STACK WIN 4 ebc0 8 3 0 4 0 0 0 1 $T0 $ebp = $eip $T0 4 + ^ = $ebp $T0 ^ = $esp $T0 8 + = 
STACK WIN 4 ebd0 17 3 0 10 0 0 0 1 $T0 $ebp = $eip $T0 4 + ^ = $ebp $T0 ^ = $esp $T0 8 + = 
STACK WIN 4 ebf0 19 3 0 10 0 0 0 1 $T0 $ebp = $eip $T0 4 + ^ = $ebp $T0 ^ = $esp $T0 8 + = 
STACK WIN 4 ec10 21 4 0 c 0 4 0 1 $T0 $ebp = $eip $T0 4 + ^ = $ebp $T0 ^ = $esp $T0 8 + = 
STACK WIN 4 ec40 21 4 0 c 0 4 0 1 $T0 $ebp = $eip $T0 4 + ^ = $ebp $T0 ^ = $esp $T0 8 + = 
STACK WIN 4 ec70 8 3 0 4 0 0 0 1 $T0 $ebp = $eip $T0 4 + ^ = $ebp $T0 ^ = $esp $T0 8 + = 
STACK WIN 4 ec80 2a 7 0 8 0 4 0 1 $T0 $ebp = $eip $T0 4 + ^ = $ebp $T0 ^ = $esp $T0 8 + = 
STACK WIN 4 ecc0 48 9 0 8 0 c 0 1 $T0 $ebp = $eip $T0 4 + ^ = $ebp $T0 ^ = $esp $T0 8 + = 
STACK WIN 4 ed20 1e 3 0 c 0 0 0 1 $T0 $ebp = $eip $T0 4 + ^ = $ebp $T0 ^ = $esp $T0 8 + = 
STACK WIN 4 ed50 1d 7 0 4 0 4 0 1 $T0 $ebp = $eip $T0 4 + ^ = $ebp $T0 ^ = $esp $T0 8 + = 
STACK WIN 4 ed80 d 7 0 4 0 4 0 1 $T0 $ebp = $eip $T0 4 + ^ = $ebp $T0 ^ = $esp $T0 8 + = 
STACK WIN 4 ed90 11 3 0 8 0 0 0 1 $T0 $ebp = $eip $T0 4 + ^ = $ebp $T0 ^ = $esp $T0 8 + = 
STACK WIN 4 edb0 8 3 0 4 0 0 0 1 $T0 $ebp = $eip $T0 4 + ^ = $ebp $T0 ^ = $esp $T0 8 + = 
STACK WIN 4 edc0 8 3 0 4 0 0 0 1 $T0 $ebp = $eip $T0 4 + ^ = $ebp $T0 ^ = $esp $T0 8 + = 
STACK WIN 4 edd0 8 3 0 4 0 0 0 1 $T0 $ebp = $eip $T0 4 + ^ = $ebp $T0 ^ = $esp $T0 8 + = 
STACK WIN 4 ede0 8 3 0 4 0 0 0 1 $T0 $ebp = $eip $T0 4 + ^ = $ebp $T0 ^ = $esp $T0 8 + = 
STACK WIN 4 edf0 5d 28 0 0 4 14 0 1 $T0 $ebp = $eip $T0 4 + ^ = $ebp $T0 ^ = $esp $T0 8 + = 
STACK WIN 4 ee70 5d 28 0 0 4 14 0 1 $T0 $ebp = $eip $T0 4 + ^ = $ebp $T0 ^ = $esp $T0 8 + = 
STACK WIN 4 eef0 34 7 0 0 0 4 0 1 $T0 $ebp = $eip $T0 4 + ^ = $ebp $T0 ^ = $esp $T0 8 + = 
STACK WIN 4 ef40 34 7 0 0 0 4 0 1 $T0 $ebp = $eip $T0 4 + ^ = $ebp $T0 ^ = $esp $T0 8 + = 
STACK WIN 4 ef90 16 7 0 0 0 4 0 1 $T0 $ebp = $eip $T0 4 + ^ = $ebp $T0 ^ = $esp $T0 8 + = 
STACK WIN 4 efb0 25 7 0 4 0 4 0 1 $T0 $ebp = $eip $T0 4 + ^ = $ebp $T0 ^ = $esp $T0 8 + = 
STACK WIN 4 efe0 e 7 0 0 0 4 0 1 $T0 $ebp = $eip $T0 4 + ^ = $ebp $T0 ^ = $esp $T0 8 + = 
STACK WIN 4 f000 10 7 0 4 0 4 0 1 $T0 $ebp = $eip $T0 4 + ^ = $ebp $T0 ^ = $esp $T0 8 + = 
STACK WIN 4 f020 75 26 0 4 4 10 0 1 $T0 $ebp = $eip $T0 4 + ^ = $ebp $T0 ^ = $esp $T0 8 + = 
STACK WIN 4 f0c0 8c 28 0 4 4 14 0 1 $T0 $ebp = $eip $T0 4 + ^ = $ebp $T0 ^ = $esp $T0 8 + = 
STACK WIN 4 f170 d4 2f 0 4 10 18 0 1 $T0 $ebp = $eip $T0 4 + ^ = $ebp $T0 ^ = $esp $T0 8 + =  $20 $T0 28 - ^ =  $23 $T0 32 - ^ =  $24 $T0 36 - ^ = 
STACK WIN 4 f280 d7 2f 0 4 10 18 0 1 $T0 $ebp = $eip $T0 4 + ^ = $ebp $T0 ^ = $esp $T0 8 + =  $20 $T0 28 - ^ =  $23 $T0 32 - ^ =  $24 $T0 36 - ^ = 
STACK WIN 4 f390 13 7 0 0 0 4 0 1 $T0 $ebp = $eip $T0 4 + ^ = $ebp $T0 ^ = $esp $T0 8 + = 
STACK WIN 4 f3b0 13 7 0 0 0 4 0 1 $T0 $ebp = $eip $T0 4 + ^ = $ebp $T0 ^ = $esp $T0 8 + = 
STACK WIN 4 f3d0 45 26 0 0 4 10 0 1 $T0 $ebp = $eip $T0 4 + ^ = $ebp $T0 ^ = $esp $T0 8 + = 
STACK WIN 4 f430 45 26 0 0 4 10 0 1 $T0 $ebp = $eip $T0 4 + ^ = $ebp $T0 ^ = $esp $T0 8 + = 
STACK WIN 4 f490 13 7 0 0 0 4 0 1 $T0 $ebp = $eip $T0 4 + ^ = $ebp $T0 ^ = $esp $T0 8 + = 
STACK WIN 4 f4b0 13 7 0 0 0 4 0 1 $T0 $ebp = $eip $T0 4 + ^ = $ebp $T0 ^ = $esp $T0 8 + = 
STACK WIN 4 f4d0 45 26 0 0 4 10 0 1 $T0 $ebp = $eip $T0 4 + ^ = $ebp $T0 ^ = $esp $T0 8 + = 
STACK WIN 4 f530 45 26 0 0 4 10 0 1 $T0 $ebp = $eip $T0 4 + ^ = $ebp $T0 ^ = $esp $T0 8 + = 
STACK WIN 4 f590 19 7 0 4 0 4 0 1 $T0 $ebp = $eip $T0 4 + ^ = $ebp $T0 ^ = $esp $T0 8 + = 
STACK WIN 4 f5b0 92 7 0 4 0 4 0 1 $T0 $ebp = $eip $T0 4 + ^ = $ebp $T0 ^ = $esp $T0 8 + = 
STACK WIN 4 f670 95 7 0 4 0 4 0 1 $T0 $ebp = $eip $T0 4 + ^ = $ebp $T0 ^ = $esp $T0 8 + = 
STACK WIN 4 f730 71 a 0 0 4 10 0 1 $T0 $ebp = $eip $T0 4 + ^ = $ebp $T0 ^ = $esp $T0 8 + =  $23 $T0 20 - ^ = 
STACK WIN 4 f7c0 71 a 0 0 4 10 0 1 $T0 $ebp = $eip $T0 4 + ^ = $ebp $T0 ^ = $esp $T0 8 + =  $23 $T0 20 - ^ = 
STACK WIN 4 f850 aa 8 0 4 4 4 0 1 $T0 $ebp = $eip $T0 4 + ^ = $ebp $T0 ^ = $esp $T0 8 + =  $23 $T0 8 - ^ = 
STACK WIN 4 f930 ad 8 0 4 4 4 0 1 $T0 $ebp = $eip $T0 4 + ^ = $ebp $T0 ^ = $esp $T0 8 + =  $23 $T0 8 - ^ = 
STACK WIN 4 fa10 16 7 0 0 0 4 0 1 $T0 $ebp = $eip $T0 4 + ^ = $ebp $T0 ^ = $esp $T0 8 + = 
STACK WIN 4 fa30 24 7 0 4 0 4 0 1 $T0 $ebp = $eip $T0 4 + ^ = $ebp $T0 ^ = $esp $T0 8 + = 
STACK WIN 4 fa60 31 9 0 8 0 8 0 1 $T0 $ebp = $eip $T0 4 + ^ = $ebp $T0 ^ = $esp $T0 8 + = 
STACK WIN 4 faa0 1d4 2f 0 8 10 24 0 1 $T0 $ebp = $eip $T0 4 + ^ = $ebp $T0 ^ = $esp $T0 8 + =  $20 $T0 40 - ^ =  $23 $T0 44 - ^ =  $24 $T0 48 - ^ = 
STACK WIN 4 fcf0 26 7 0 8 0 4 0 1 $T0 $ebp = $eip $T0 4 + ^ = $ebp $T0 ^ = $esp $T0 8 + = 
STACK WIN 4 fd20 26 7 0 8 0 4 0 1 $T0 $ebp = $eip $T0 4 + ^ = $ebp $T0 ^ = $esp $T0 8 + = 
STACK WIN 4 fd50 3f 9 0 4 0 c 0 1 $T0 $ebp = $eip $T0 4 + ^ = $ebp $T0 ^ = $esp $T0 8 + = 
STACK WIN 4 fda0 65 9 0 0 0 8 0 1 $T0 $ebp = $eip $T0 4 + ^ = $ebp $T0 ^ = $esp $T0 8 + = 
STACK WIN 4 fe20 65 9 0 0 0 8 0 1 $T0 $ebp = $eip $T0 4 + ^ = $ebp $T0 ^ = $esp $T0 8 + = 
STACK WIN 4 fea0 13 7 0 0 0 4 0 1 $T0 $ebp = $eip $T0 4 + ^ = $ebp $T0 ^ = $esp $T0 8 + = 
STACK WIN 4 fec0 13 7 0 0 0 4 0 1 $T0 $ebp = $eip $T0 4 + ^ = $ebp $T0 ^ = $esp $T0 8 + = 
STACK WIN 4 fee0 13 7 0 0 0 4 0 1 $T0 $ebp = $eip $T0 4 + ^ = $ebp $T0 ^ = $esp $T0 8 + = 
STACK WIN 4 ff00 13 7 0 0 0 4 0 1 $T0 $ebp = $eip $T0 4 + ^ = $ebp $T0 ^ = $esp $T0 8 + = 
STACK WIN 4 ff20 13 7 0 0 0 4 0 1 $T0 $ebp = $eip $T0 4 + ^ = $ebp $T0 ^ = $esp $T0 8 + = 
STACK WIN 4 ff40 13 7 0 0 0 4 0 1 $T0 $ebp = $eip $T0 4 + ^ = $ebp $T0 ^ = $esp $T0 8 + = 
STACK WIN 4 ff60 e 7 0 0 0 4 0 1 $T0 $ebp = $eip $T0 4 + ^ = $ebp $T0 ^ = $esp $T0 8 + = 
STACK WIN 4 ff80 e 7 0 0 0 4 0 1 $T0 $ebp = $eip $T0 4 + ^ = $ebp $T0 ^ = $esp $T0 8 + = 
STACK WIN 4 ffa0 e 7 0 0 0 4 0 1 $T0 $ebp = $eip $T0 4 + ^ = $ebp $T0 ^ = $esp $T0 8 + = 
STACK WIN 4 ffc0 e 7 0 0 0 4 0 1 $T0 $ebp = $eip $T0 4 + ^ = $ebp $T0 ^ = $esp $T0 8 + = 
STACK WIN 4 ffe0 e 7 0 0 0 4 0 1 $T0 $ebp = $eip $T0 4 + ^ = $ebp $T0 ^ = $esp $T0 8 + = 
STACK WIN 4 10000 e 7 0 0 0 4 0 1 $T0 $ebp = $eip $T0 4 + ^ = $ebp $T0 ^ = $esp $T0 8 + = 
STACK WIN 4 10020 e 7 0 0 0 4 0 1 $T0 $ebp = $eip $T0 4 + ^ = $ebp $T0 ^ = $esp $T0 8 + = 
STACK WIN 4 10040 e 7 0 0 0 4 0 1 $T0 $ebp = $eip $T0 4 + ^ = $ebp $T0 ^ = $esp $T0 8 + = 
STACK WIN 4 10060 e 7 0 0 0 4 0 1 $T0 $ebp = $eip $T0 4 + ^ = $ebp $T0 ^ = $esp $T0 8 + = 
STACK WIN 4 10080 e 7 0 0 0 4 0 1 $T0 $ebp = $eip $T0 4 + ^ = $ebp $T0 ^ = $esp $T0 8 + = 
STACK WIN 4 100a0 e 7 0 0 0 4 0 1 $T0 $ebp = $eip $T0 4 + ^ = $ebp $T0 ^ = $esp $T0 8 + = 
STACK WIN 4 100c0 e 7 0 0 0 4 0 1 $T0 $ebp = $eip $T0 4 + ^ = $ebp $T0 ^ = $esp $T0 8 + = 
STACK WIN 4 100e0 13 7 0 0 0 4 0 1 $T0 $ebp = $eip $T0 4 + ^ = $ebp $T0 ^ = $esp $T0 8 + = 
STACK WIN 4 10100 13 7 0 0 0 4 0 1 $T0 $ebp = $eip $T0 4 + ^ = $ebp $T0 ^ = $esp $T0 8 + = 
STACK WIN 4 10120 13 7 0 0 0 4 0 1 $T0 $ebp = $eip $T0 4 + ^ = $ebp $T0 ^ = $esp $T0 8 + = 
STACK WIN 4 10140 13 7 0 0 0 4 0 1 $T0 $ebp = $eip $T0 4 + ^ = $ebp $T0 ^ = $esp $T0 8 + = 
STACK WIN 4 10160 13 7 0 0 0 4 0 1 $T0 $ebp = $eip $T0 4 + ^ = $ebp $T0 ^ = $esp $T0 8 + = 
STACK WIN 4 10180 13 7 0 0 0 4 0 1 $T0 $ebp = $eip $T0 4 + ^ = $ebp $T0 ^ = $esp $T0 8 + = 
STACK WIN 4 101a0 b7 9 0 8 0 c 0 1 $T0 $ebp = $eip $T0 4 + ^ = $ebp $T0 ^ = $esp $T0 8 + = 
STACK WIN 4 10290 43 8 0 4 4 4 0 1 $T0 $ebp = $eip $T0 4 + ^ = $ebp $T0 ^ = $esp $T0 8 + =  $23 $T0 8 - ^ = 
STACK WIN 4 102f0 16 7 0 0 0 4 0 1 $T0 $ebp = $eip $T0 4 + ^ = $ebp $T0 ^ = $esp $T0 8 + = 
STACK WIN 4 10310 16 7 0 0 0 4 0 1 $T0 $ebp = $eip $T0 4 + ^ = $ebp $T0 ^ = $esp $T0 8 + = 
STACK WIN 4 10330 16 7 0 0 0 4 0 1 $T0 $ebp = $eip $T0 4 + ^ = $ebp $T0 ^ = $esp $T0 8 + = 
STACK WIN 4 10350 16 7 0 0 0 4 0 1 $T0 $ebp = $eip $T0 4 + ^ = $ebp $T0 ^ = $esp $T0 8 + = 
STACK WIN 4 10370 16 7 0 0 0 4 0 1 $T0 $ebp = $eip $T0 4 + ^ = $ebp $T0 ^ = $esp $T0 8 + = 
STACK WIN 4 10390 16 7 0 0 0 4 0 1 $T0 $ebp = $eip $T0 4 + ^ = $ebp $T0 ^ = $esp $T0 8 + = 
STACK WIN 4 103b0 16 7 0 0 0 4 0 1 $T0 $ebp = $eip $T0 4 + ^ = $ebp $T0 ^ = $esp $T0 8 + = 
STACK WIN 4 103d0 16 7 0 0 0 4 0 1 $T0 $ebp = $eip $T0 4 + ^ = $ebp $T0 ^ = $esp $T0 8 + = 
STACK WIN 4 103f0 16 7 0 0 0 4 0 1 $T0 $ebp = $eip $T0 4 + ^ = $ebp $T0 ^ = $esp $T0 8 + = 
STACK WIN 4 10410 16 7 0 0 0 4 0 1 $T0 $ebp = $eip $T0 4 + ^ = $ebp $T0 ^ = $esp $T0 8 + = 
STACK WIN 4 10430 13 7 0 0 0 4 0 1 $T0 $ebp = $eip $T0 4 + ^ = $ebp $T0 ^ = $esp $T0 8 + = 
STACK WIN 4 10450 13 7 0 0 0 4 0 1 $T0 $ebp = $eip $T0 4 + ^ = $ebp $T0 ^ = $esp $T0 8 + = 
STACK WIN 4 10470 1a 7 0 0 0 4 0 1 $T0 $ebp = $eip $T0 4 + ^ = $ebp $T0 ^ = $esp $T0 8 + = 
STACK WIN 4 10490 1a 7 0 0 0 4 0 1 $T0 $ebp = $eip $T0 4 + ^ = $ebp $T0 ^ = $esp $T0 8 + = 
STACK WIN 4 104b0 36 9 0 0 0 8 0 1 $T0 $ebp = $eip $T0 4 + ^ = $ebp $T0 ^ = $esp $T0 8 + = 
STACK WIN 4 10500 36 9 0 0 0 8 0 1 $T0 $ebp = $eip $T0 4 + ^ = $ebp $T0 ^ = $esp $T0 8 + = 
STACK WIN 4 10550 16 7 0 0 0 4 0 1 $T0 $ebp = $eip $T0 4 + ^ = $ebp $T0 ^ = $esp $T0 8 + = 
STACK WIN 4 10570 16 7 0 0 0 4 0 1 $T0 $ebp = $eip $T0 4 + ^ = $ebp $T0 ^ = $esp $T0 8 + = 
STACK WIN 4 10590 16 7 0 0 0 4 0 1 $T0 $ebp = $eip $T0 4 + ^ = $ebp $T0 ^ = $esp $T0 8 + = 
STACK WIN 4 105b0 1a 7 0 0 0 4 0 1 $T0 $ebp = $eip $T0 4 + ^ = $ebp $T0 ^ = $esp $T0 8 + = 
STACK WIN 4 105d0 1a 7 0 0 0 4 0 1 $T0 $ebp = $eip $T0 4 + ^ = $ebp $T0 ^ = $esp $T0 8 + = 
STACK WIN 4 105f0 ba 9 0 8 0 8 0 1 $T0 $ebp = $eip $T0 4 + ^ = $ebp $T0 ^ = $esp $T0 8 + = 
STACK WIN 4 106e0 9f 8 0 0 4 4 0 1 $T0 $ebp = $eip $T0 4 + ^ = $ebp $T0 ^ = $esp $T0 8 + =  $23 $T0 8 - ^ = 
STACK WIN 4 107b0 a1 8 0 0 4 4 0 1 $T0 $ebp = $eip $T0 4 + ^ = $ebp $T0 ^ = $esp $T0 8 + =  $23 $T0 8 - ^ = 
STACK WIN 4 10880 16 7 0 0 0 4 0 1 $T0 $ebp = $eip $T0 4 + ^ = $ebp $T0 ^ = $esp $T0 8 + = 
STACK WIN 4 108a0 16 7 0 0 0 4 0 1 $T0 $ebp = $eip $T0 4 + ^ = $ebp $T0 ^ = $esp $T0 8 + = 
STACK WIN 4 108c0 16 7 0 0 0 4 0 1 $T0 $ebp = $eip $T0 4 + ^ = $ebp $T0 ^ = $esp $T0 8 + = 
STACK WIN 4 108e0 16 7 0 0 0 4 0 1 $T0 $ebp = $eip $T0 4 + ^ = $ebp $T0 ^ = $esp $T0 8 + = 
STACK WIN 4 10900 19 7 0 4 0 4 0 1 $T0 $ebp = $eip $T0 4 + ^ = $ebp $T0 ^ = $esp $T0 8 + = 
STACK WIN 4 10920 1d 7 0 4 0 4 0 1 $T0 $ebp = $eip $T0 4 + ^ = $ebp $T0 ^ = $esp $T0 8 + = 
STACK WIN 4 10950 98 7 0 c 0 4 0 1 $T0 $ebp = $eip $T0 4 + ^ = $ebp $T0 ^ = $esp $T0 8 + = 
STACK WIN 4 10a10 3c 7 0 4 0 4 0 1 $T0 $ebp = $eip $T0 4 + ^ = $ebp $T0 ^ = $esp $T0 8 + = 
STACK WIN 4 10a60 aa 9 0 8 0 8 0 1 $T0 $ebp = $eip $T0 4 + ^ = $ebp $T0 ^ = $esp $T0 8 + = 
STACK WIN 4 10b40 f 3 0 8 0 0 0 1 $T0 $ebp = $eip $T0 4 + ^ = $ebp $T0 ^ = $esp $T0 8 + = 
STACK WIN 4 10b60 3d 26 0 0 4 10 0 1 $T0 $ebp = $eip $T0 4 + ^ = $ebp $T0 ^ = $esp $T0 8 + = 
STACK WIN 4 10bb0 30 4 0 c 0 4 0 1 $T0 $ebp = $eip $T0 4 + ^ = $ebp $T0 ^ = $esp $T0 8 + = 
STACK WIN 4 10bf0 1d 7 0 8 0 4 0 1 $T0 $ebp = $eip $T0 4 + ^ = $ebp $T0 ^ = $esp $T0 8 + = 
STACK WIN 4 10c20 1f 7 0 8 0 4 0 1 $T0 $ebp = $eip $T0 4 + ^ = $ebp $T0 ^ = $esp $T0 8 + = 
STACK WIN 4 10c50 28 7 0 4 0 4 0 1 $T0 $ebp = $eip $T0 4 + ^ = $ebp $T0 ^ = $esp $T0 8 + = 
STACK WIN 4 10c90 88 9 0 8 0 c 0 1 $T0 $ebp = $eip $T0 4 + ^ = $ebp $T0 ^ = $esp $T0 8 + = 
STACK WIN 4 10d40 34 4 0 c 0 4 0 1 $T0 $ebp = $eip $T0 4 + ^ = $ebp $T0 ^ = $esp $T0 8 + = 
STACK WIN 4 10d90 40 7 0 8 0 4 0 1 $T0 $ebp = $eip $T0 4 + ^ = $ebp $T0 ^ = $esp $T0 8 + = 
STACK WIN 4 10de0 db 9 0 c 0 10 0 1 $T0 $ebp = $eip $T0 4 + ^ = $ebp $T0 ^ = $esp $T0 8 + = 
STACK WIN 4 10f00 2d 4 0 4 0 4 0 1 $T0 $ebp = $eip $T0 4 + ^ = $ebp $T0 ^ = $esp $T0 8 + = 
STACK WIN 4 10f40 19 7 0 4 0 4 0 1 $T0 $ebp = $eip $T0 4 + ^ = $ebp $T0 ^ = $esp $T0 8 + = 
STACK WIN 4 10f60 e 7 0 0 0 4 0 1 $T0 $ebp = $eip $T0 4 + ^ = $ebp $T0 ^ = $esp $T0 8 + = 
STACK WIN 4 10f80 d 3 0 4 0 0 0 1 $T0 $ebp = $eip $T0 4 + ^ = $ebp $T0 ^ = $esp $T0 8 + = 
STACK WIN 4 10f90 3f 9 0 0 0 10 0 1 $T0 $ebp = $eip $T0 4 + ^ = $ebp $T0 ^ = $esp $T0 8 + = 
STACK WIN 4 10fe0 21 9 0 0 0 8 0 1 $T0 $ebp = $eip $T0 4 + ^ = $ebp $T0 ^ = $esp $T0 8 + = 
STACK WIN 4 11010 21 9 0 0 0 8 0 1 $T0 $ebp = $eip $T0 4 + ^ = $ebp $T0 ^ = $esp $T0 8 + = 
STACK WIN 4 11040 31 4 0 c 0 4 0 1 $T0 $ebp = $eip $T0 4 + ^ = $ebp $T0 ^ = $esp $T0 8 + = 
STACK WIN 4 11080 2b 9 0 8 0 8 0 1 $T0 $ebp = $eip $T0 4 + ^ = $ebp $T0 ^ = $esp $T0 8 + = 
STACK WIN 4 110c0 14 3 0 8 0 0 0 1 $T0 $ebp = $eip $T0 4 + ^ = $ebp $T0 ^ = $esp $T0 8 + = 
STACK WIN 4 110e0 25 8 0 0 4 4 0 1 $T0 $ebp = $eip $T0 4 + ^ = $ebp $T0 ^ = $esp $T0 8 + =  $23 $T0 8 - ^ = 
STACK WIN 4 11110 27 8 0 0 4 4 0 1 $T0 $ebp = $eip $T0 4 + ^ = $ebp $T0 ^ = $esp $T0 8 + =  $23 $T0 8 - ^ = 
STACK WIN 4 11140 36 3 0 c 0 0 0 1 $T0 $ebp = $eip $T0 4 + ^ = $ebp $T0 ^ = $esp $T0 8 + = 
STACK WIN 4 11190 10f 10 0 8 0 58 0 1 $T0 $ebp = $eip $T0 4 + ^ = $ebp $T0 ^ = $esp $T0 8 + = 
STACK WIN 4 112a0 10f 10 0 8 0 50 0 1 $T0 $ebp = $eip $T0 4 + ^ = $ebp $T0 ^ = $esp $T0 8 + = 
STACK WIN 4 11440 a5 7 0 c 0 4 0 1 $T0 $ebp = $eip $T0 4 + ^ = $ebp $T0 ^ = $esp $T0 8 + = 
STACK WIN 4 114f0 a0 7 0 c 0 4 0 1 $T0 $ebp = $eip $T0 4 + ^ = $ebp $T0 ^ = $esp $T0 8 + = 
STACK WIN 4 11590 55 7 0 0 0 4 0 1 $T0 $ebp = $eip $T0 4 + ^ = $ebp $T0 ^ = $esp $T0 8 + = 
STACK WIN 4 115f0 51 9 0 0 0 c 0 1 $T0 $ebp = $eip $T0 4 + ^ = $ebp $T0 ^ = $esp $T0 8 + = 
STACK WIN 4 11650 96 9 0 4 0 48 0 1 $T0 $ebp = $eip $T0 4 + ^ = $ebp $T0 ^ = $esp $T0 8 + = 
STACK WIN 4 116f0 73 7 0 8 0 4 0 1 $T0 $ebp = $eip $T0 4 + ^ = $ebp $T0 ^ = $esp $T0 8 + = 
STACK WIN 4 11770 1b 7 0 4 0 4 0 1 $T0 $ebp = $eip $T0 4 + ^ = $ebp $T0 ^ = $esp $T0 8 + = 
STACK WIN 4 11790 1b 7 0 4 0 4 0 1 $T0 $ebp = $eip $T0 4 + ^ = $ebp $T0 ^ = $esp $T0 8 + = 
STACK WIN 4 117b0 b3 6 0 8 0 c 0 1 $T0 $ebp = $eip $T0 4 + ^ = $ebp $T0 ^ = $esp $T0 8 + = 
STACK WIN 4 11870 66 9 0 0 0 c 0 1 $T0 $ebp = $eip $T0 4 + ^ = $ebp $T0 ^ = $esp $T0 8 + = 
STACK WIN 4 118e0 ef c 0 4 0 8c 0 1 $T0 $ebp = $eip $T0 4 + ^ = $ebp $T0 ^ = $esp $T0 8 + = 
STACK WIN 4 119d0 4e 9 0 4 0 8 0 1 $T0 $ebp = $eip $T0 4 + ^ = $ebp $T0 ^ = $esp $T0 8 + = 
STACK WIN 4 11a20 29 9 0 0 0 8 0 1 $T0 $ebp = $eip $T0 4 + ^ = $ebp $T0 ^ = $esp $T0 8 + = 
STACK WIN 4 11a50 98 9 0 c 0 10 0 1 $T0 $ebp = $eip $T0 4 + ^ = $ebp $T0 ^ = $esp $T0 8 + = 
STACK WIN 4 11af0 d8 9 0 0 0 14 0 1 $T0 $ebp = $eip $T0 4 + ^ = $ebp $T0 ^ = $esp $T0 8 + = 
STACK WIN 4 11db0 71 7 0 28 0 4 0 1 $T0 $ebp = $eip $T0 4 + ^ = $ebp $T0 ^ = $esp $T0 8 + = 
STACK WIN 4 11e40 74 7 0 0 0 4 0 1 $T0 $ebp = $eip $T0 4 + ^ = $ebp $T0 ^ = $esp $T0 8 + = 
STACK WIN 4 11f00 46 4 0 4 0 4 0 1 $T0 $ebp = $eip $T0 4 + ^ = $ebp $T0 ^ = $esp $T0 8 + = 
STACK WIN 4 11f60 13 3 0 4 0 0 0 1 $T0 $ebp = $eip $T0 4 + ^ = $ebp $T0 ^ = $esp $T0 8 + = 
STACK WIN 4 11f80 11 3 0 8 0 0 0 1 $T0 $ebp = $eip $T0 4 + ^ = $ebp $T0 ^ = $esp $T0 8 + = 
STACK WIN 4 11fa0 26 3 0 4 0 0 0 1 $T0 $ebp = $eip $T0 4 + ^ = $ebp $T0 ^ = $esp $T0 8 + = 
STACK WIN 4 11fd0 2d 3 0 4 0 0 0 1 $T0 $ebp = $eip $T0 4 + ^ = $ebp $T0 ^ = $esp $T0 8 + = 
STACK WIN 4 12010 d 3 0 8 0 0 0 1 $T0 $ebp = $eip $T0 4 + ^ = $ebp $T0 ^ = $esp $T0 8 + = 
STACK WIN 4 12020 13 3 0 0 0 0 0 1 $T0 $ebp = $eip $T0 4 + ^ = $ebp $T0 ^ = $esp $T0 8 + = 
STACK WIN 4 12040 81 6 0 8 0 18 0 1 $T0 $ebp = $eip $T0 4 + ^ = $ebp $T0 ^ = $esp $T0 8 + = 
STACK WIN 4 120f0 69 6 0 4 0 10 0 1 $T0 $ebp = $eip $T0 4 + ^ = $ebp $T0 ^ = $esp $T0 8 + = 
STACK WIN 4 12180 b 3 0 0 0 0 0 1 $T0 $ebp = $eip $T0 4 + ^ = $ebp $T0 ^ = $esp $T0 8 + = 
STACK WIN 4 12190 49 6 0 0 0 8 0 1 $T0 $ebp = $eip $T0 4 + ^ = $ebp $T0 ^ = $esp $T0 8 + = 
STACK WIN 4 121f0 29 3 0 0 0 0 0 1 $T0 $ebp = $eip $T0 4 + ^ = $ebp $T0 ^ = $esp $T0 8 + = 
STACK WIN 4 12230 1c 3 0 0 0 0 0 1 $T0 $ebp = $eip $T0 4 + ^ = $ebp $T0 ^ = $esp $T0 8 + = 
STACK WIN 4 12260 2c 3 0 0 0 0 0 1 $T0 $ebp = $eip $T0 4 + ^ = $ebp $T0 ^ = $esp $T0 8 + = 
STACK WIN 4 122a0 11 3 0 0 0 0 0 1 $T0 $ebp = $eip $T0 4 + ^ = $ebp $T0 ^ = $esp $T0 8 + = 
STACK WIN 4 122c0 42 4 0 18 0 4 0 1 $T0 $ebp = $eip $T0 4 + ^ = $ebp $T0 ^ = $esp $T0 8 + = 
STACK WIN 4 12320 2b 3 0 0 0 0 0 1 $T0 $ebp = $eip $T0 4 + ^ = $ebp $T0 ^ = $esp $T0 8 + = 
STACK WIN 4 12360 14 3 0 0 0 0 0 1 $T0 $ebp = $eip $T0 4 + ^ = $ebp $T0 ^ = $esp $T0 8 + = 
STACK WIN 4 12380 43 3 0 4 0 0 0 1 $T0 $ebp = $eip $T0 4 + ^ = $ebp $T0 ^ = $esp $T0 8 + = 
STACK WIN 4 123e0 c6 6 0 4 0 1c 0 1 $T0 $ebp = $eip $T0 4 + ^ = $ebp $T0 ^ = $esp $T0 8 + = 
STACK WIN 4 124e0 129 33 0 4 10 38 0 1 $T0 $ebp = $eip $T0 4 + ^ = $ebp $T0 ^ = $esp $T0 8 + =  $20 $T0 20 - ^ =  $23 $T0 24 - ^ =  $24 $T0 28 - ^ = 
STACK WIN 4 125b6 27 0 0 4 10 38 0 1 $T0 $ebp = $T2 $esp = $T1 .raSearchStart = $eip $T1 ^ = $ebp $T0 = $esp $T1 4 + = 
STACK WIN 4 12660 23 3 0 4 0 0 0 1 $T0 $ebp = $eip $T0 4 + ^ = $ebp $T0 ^ = $esp $T0 8 + = 
STACK WIN 4 12690 38 3 0 8 0 0 0 1 $T0 $ebp = $eip $T0 4 + ^ = $ebp $T0 ^ = $esp $T0 8 + = 
STACK WIN 4 126e0 6e 6 0 4 0 c 0 1 $T0 $ebp = $eip $T0 4 + ^ = $ebp $T0 ^ = $esp $T0 8 + = 
STACK WIN 4 12770 48 6 0 4 0 8 0 1 $T0 $ebp = $eip $T0 4 + ^ = $ebp $T0 ^ = $esp $T0 8 + = 
STACK WIN 4 127d0 2b 4 0 4 0 4 0 1 $T0 $ebp = $eip $T0 4 + ^ = $ebp $T0 ^ = $esp $T0 8 + = 
STACK WIN 4 12810 11 0 0 0 0 0 0 1 $T0 .raSearch = $eip $T0 ^ = $esp $T0 4 + = 
STACK WIN 4 12830 29 3 0 4 0 0 0 1 $T0 $ebp = $eip $T0 4 + ^ = $ebp $T0 ^ = $esp $T0 8 + = 
STACK WIN 4 12870 103 9 0 0 0 324 0 1 $T0 $ebp = $eip $T0 4 + ^ = $ebp $T0 ^ = $esp $T0 8 + = 
STACK WIN 4 129c0 c 3 0 0 0 0 0 1 $T0 $ebp = $eip $T0 4 + ^ = $ebp $T0 ^ = $esp $T0 8 + = 
STACK WIN 4 129d0 d2 9 0 4 0 31c 0 1 $T0 $ebp = $eip $T0 4 + ^ = $ebp $T0 ^ = $esp $T0 8 + = 
STACK WIN 4 12ae0 125 9 0 c 0 320 0 1 $T0 $ebp = $eip $T0 4 + ^ = $ebp $T0 ^ = $esp $T0 8 + = 
STACK WIN 4 12c50 bd 4 0 0 4 0 0 1 $T0 $ebp = $eip $T0 4 + ^ = $ebp $T0 ^ = $esp $T0 8 + =  $23 $T0 4 - ^ = 
STACK WIN 4 12d40 c 3 0 0 0 0 0 1 $T0 $ebp = $eip $T0 4 + ^ = $ebp $T0 ^ = $esp $T0 8 + = 
STACK WIN 4 12d50 18 3 0 0 0 0 0 1 $T0 $ebp = $eip $T0 4 + ^ = $ebp $T0 ^ = $esp $T0 8 + = 
STACK WIN 4 12d70 f 3 0 0 0 0 0 1 $T0 $ebp = $eip $T0 4 + ^ = $ebp $T0 ^ = $esp $T0 8 + = 
STACK WIN 4 12d90 20d 33 0 0 10 40 0 1 $T0 $ebp = $eip $T0 4 + ^ = $ebp $T0 ^ = $esp $T0 8 + =  $20 $T0 20 - ^ =  $23 $T0 24 - ^ =  $24 $T0 28 - ^ = 
STACK WIN 4 12f2c 1b 0 0 0 10 40 0 1 $T0 $ebp = $T2 $esp = $T1 .raSearchStart = $eip $T1 ^ = $ebp $T0 = $esp $T1 4 + = 
STACK WIN 4 13020 a 3 0 0 0 0 0 1 $T0 $ebp = $eip $T0 4 + ^ = $ebp $T0 ^ = $esp $T0 8 + = 
STACK WIN 4 13030 a 3 0 0 0 0 0 1 $T0 $ebp = $eip $T0 4 + ^ = $ebp $T0 ^ = $esp $T0 8 + = 
STACK WIN 4 13040 23 3 0 0 0 0 0 1 $T0 $ebp = $eip $T0 4 + ^ = $ebp $T0 ^ = $esp $T0 8 + = 
STACK WIN 4 13070 a 3 0 0 0 0 0 1 $T0 $ebp = $eip $T0 4 + ^ = $ebp $T0 ^ = $esp $T0 8 + = 
STACK WIN 4 13080 27 7 0 4 0 4 0 1 $T0 $ebp = $eip $T0 4 + ^ = $ebp $T0 ^ = $esp $T0 8 + = 
STACK WIN 4 130b0 25 7 0 4 0 4 0 1 $T0 $ebp = $eip $T0 4 + ^ = $ebp $T0 ^ = $esp $T0 8 + = 
STACK WIN 4 130e0 26 7 0 0 0 4 0 1 $T0 $ebp = $eip $T0 4 + ^ = $ebp $T0 ^ = $esp $T0 8 + = 
STACK WIN 4 13110 25 7 0 4 0 4 0 1 $T0 $ebp = $eip $T0 4 + ^ = $ebp $T0 ^ = $esp $T0 8 + = 
STACK WIN 4 13140 24 7 0 0 0 4 0 1 $T0 $ebp = $eip $T0 4 + ^ = $ebp $T0 ^ = $esp $T0 8 + = 
STACK WIN 4 13170 3c 7 0 4 0 4 0 1 $T0 $ebp = $eip $T0 4 + ^ = $ebp $T0 ^ = $esp $T0 8 + = 
STACK WIN 4 131c0 2f 7 0 8 0 4 0 1 $T0 $ebp = $eip $T0 4 + ^ = $ebp $T0 ^ = $esp $T0 8 + = 
STACK WIN 4 13200 13 7 0 0 0 4 0 1 $T0 $ebp = $eip $T0 4 + ^ = $ebp $T0 ^ = $esp $T0 8 + = 
STACK WIN 4 13220 13 7 0 0 0 4 0 1 $T0 $ebp = $eip $T0 4 + ^ = $ebp $T0 ^ = $esp $T0 8 + = 
STACK WIN 4 13240 23 7 0 0 0 4 0 1 $T0 $ebp = $eip $T0 4 + ^ = $ebp $T0 ^ = $esp $T0 8 + = 
STACK WIN 4 13270 2e 7 0 4 0 4 0 1 $T0 $ebp = $eip $T0 4 + ^ = $ebp $T0 ^ = $esp $T0 8 + = 
STACK WIN 4 132b0 2e 7 0 4 0 4 0 1 $T0 $ebp = $eip $T0 4 + ^ = $ebp $T0 ^ = $esp $T0 8 + = 
STACK WIN 4 132f0 2e 7 0 4 0 4 0 1 $T0 $ebp = $eip $T0 4 + ^ = $ebp $T0 ^ = $esp $T0 8 + = 
STACK WIN 4 13330 20 6 0 0 0 c 0 1 $T0 $ebp = $eip $T0 4 + ^ = $ebp $T0 ^ = $esp $T0 8 + = 
STACK WIN 4 13360 20 6 0 0 0 c 0 1 $T0 $ebp = $eip $T0 4 + ^ = $ebp $T0 ^ = $esp $T0 8 + = 
STACK WIN 4 13390 2b 9 0 0 0 8 0 1 $T0 $ebp = $eip $T0 4 + ^ = $ebp $T0 ^ = $esp $T0 8 + = 
STACK WIN 4 133d0 2d3 12 0 0 8 40 0 1 $T0 $ebp = $eip $T0 4 + ^ = $ebp $T0 ^ = $esp $T0 8 + =  $20 $T0 68 - ^ =  $23 $T0 72 - ^ = 
STACK WIN 4 13760 a 3 0 0 0 0 0 1 $T0 $ebp = $eip $T0 4 + ^ = $ebp $T0 ^ = $esp $T0 8 + = 
STACK WIN 4 13770 24 4 0 0 0 4 0 1 $T0 $ebp = $eip $T0 4 + ^ = $ebp $T0 ^ = $esp $T0 8 + = 
STACK WIN 4 137a0 135 9 0 4 0 32c 0 1 $T0 $ebp = $eip $T0 4 + ^ = $ebp $T0 ^ = $esp $T0 8 + = 
STACK WIN 4 13930 40 6 0 0 0 48 0 1 $T0 $ebp = $eip $T0 4 + ^ = $ebp $T0 ^ = $esp $T0 8 + = 
STACK WIN 4 13980 7 3 0 0 0 0 0 1 $T0 $ebp = $eip $T0 4 + ^ = $ebp $T0 ^ = $esp $T0 8 + = 
STACK WIN 4 13990 83 6 0 0 0 8 0 1 $T0 $ebp = $eip $T0 4 + ^ = $ebp $T0 ^ = $esp $T0 8 + = 
STACK WIN 4 13a40 10 3 0 0 0 0 0 1 $T0 $ebp = $eip $T0 4 + ^ = $ebp $T0 ^ = $esp $T0 8 + = 
STACK WIN 4 13a60 5d 4 0 4 0 4 0 1 $T0 $ebp = $eip $T0 4 + ^ = $ebp $T0 ^ = $esp $T0 8 + = 
STACK WIN 4 13ae0 f 3 0 4 0 0 0 1 $T0 $ebp = $eip $T0 4 + ^ = $ebp $T0 ^ = $esp $T0 8 + = 
STACK WIN 4 13b00 14 7 0 0 0 4 0 1 $T0 $ebp = $eip $T0 4 + ^ = $ebp $T0 ^ = $esp $T0 8 + = 
STACK WIN 4 13b20 27 3 0 10 0 0 0 1 $T0 $ebp = $eip $T0 4 + ^ = $ebp $T0 ^ = $esp $T0 8 + = 
STACK WIN 4 13b50 dd 6 0 0 0 14 0 1 $T0 $ebp = $eip $T0 4 + ^ = $ebp $T0 ^ = $esp $T0 8 + = 
STACK WIN 4 13c70 7 3 0 4 0 0 0 1 $T0 $ebp = $eip $T0 4 + ^ = $ebp $T0 ^ = $esp $T0 8 + = 
STACK WIN 4 13c80 7 3 0 0 0 0 0 1 $T0 $ebp = $eip $T0 4 + ^ = $ebp $T0 ^ = $esp $T0 8 + = 
STACK WIN 4 13c90 a 3 0 0 0 0 0 1 $T0 $ebp = $eip $T0 4 + ^ = $ebp $T0 ^ = $esp $T0 8 + = 
STACK WIN 4 13ca0 7 3 0 0 0 0 0 1 $T0 $ebp = $eip $T0 4 + ^ = $ebp $T0 ^ = $esp $T0 8 + = 
STACK WIN 4 13cb0 7 3 0 0 0 0 0 1 $T0 $ebp = $eip $T0 4 + ^ = $ebp $T0 ^ = $esp $T0 8 + = 
STACK WIN 4 13cc0 10 3 0 0 0 0 0 1 $T0 $ebp = $eip $T0 4 + ^ = $ebp $T0 ^ = $esp $T0 8 + = 
STACK WIN 4 13ce0 12 3 0 0 0 0 0 1 $T0 $ebp = $eip $T0 4 + ^ = $ebp $T0 ^ = $esp $T0 8 + = 
STACK WIN 4 13d00 7 3 0 0 0 0 0 1 $T0 $ebp = $eip $T0 4 + ^ = $ebp $T0 ^ = $esp $T0 8 + = 
STACK WIN 4 13d10 24 3 0 0 0 0 0 1 $T0 $ebp = $eip $T0 4 + ^ = $ebp $T0 ^ = $esp $T0 8 + = 
STACK WIN 4 13d40 5 3 0 0 0 0 0 1 $T0 $ebp = $eip $T0 4 + ^ = $ebp $T0 ^ = $esp $T0 8 + = 
STACK WIN 4 13d50 5 3 0 0 0 0 0 1 $T0 $ebp = $eip $T0 4 + ^ = $ebp $T0 ^ = $esp $T0 8 + = 
STACK WIN 4 13d60 a 3 0 0 0 0 0 1 $T0 $ebp = $eip $T0 4 + ^ = $ebp $T0 ^ = $esp $T0 8 + = 
STACK WIN 4 13d70 40 6 0 0 0 8 0 1 $T0 $ebp = $eip $T0 4 + ^ = $ebp $T0 ^ = $esp $T0 8 + = 
STACK WIN 4 13dc0 24 4 0 0 0 4 0 1 $T0 $ebp = $eip $T0 4 + ^ = $ebp $T0 ^ = $esp $T0 8 + = 
STACK WIN 4 13df0 a 3 0 0 0 0 0 1 $T0 $ebp = $eip $T0 4 + ^ = $ebp $T0 ^ = $esp $T0 8 + = 
STACK WIN 4 13e00 a 3 0 0 0 0 0 1 $T0 $ebp = $eip $T0 4 + ^ = $ebp $T0 ^ = $esp $T0 8 + = 
STACK WIN 4 13e10 2d 1 0 0 0 0 0 1 $T0 .raSearch = $eip $T0 ^ = $esp $T0 4 + = 
STACK WIN 4 13e11 2b 0 0 0 4 0 0 1 $T0 .raSearch = $eip $T0 ^ = $esp $T0 4 + =  $23 $T0 4 - ^ = 
STACK WIN 4 13e20 1b 0 0 0 8 0 0 1 $T0 .raSearch = $eip $T0 ^ = $esp $T0 4 + =  $23 $T0 4 - ^ =  $24 $T0 8 - ^ = 
STACK WIN 4 13e50 2d 1 0 0 0 0 0 1 $T0 .raSearch = $eip $T0 ^ = $esp $T0 4 + = 
STACK WIN 4 13e51 2b 0 0 0 4 0 0 1 $T0 .raSearch = $eip $T0 ^ = $esp $T0 4 + =  $23 $T0 4 - ^ = 
STACK WIN 4 13e60 1b 0 0 0 8 0 0 1 $T0 .raSearch = $eip $T0 ^ = $esp $T0 4 + =  $23 $T0 4 - ^ =  $24 $T0 8 - ^ = 
STACK WIN 4 13e90 14 7 0 0 0 4 0 1 $T0 $ebp = $eip $T0 4 + ^ = $ebp $T0 ^ = $esp $T0 8 + = 
STACK WIN 4 13eb0 2e 7 0 4 0 4 0 1 $T0 $ebp = $eip $T0 4 + ^ = $ebp $T0 ^ = $esp $T0 8 + = 
STACK WIN 4 13ef0 b 7 0 0 0 4 0 1 $T0 $ebp = $eip $T0 4 + ^ = $ebp $T0 ^ = $esp $T0 8 + = 
STACK WIN 4 13f00 27 4 0 0 0 4 0 1 $T0 $ebp = $eip $T0 4 + ^ = $ebp $T0 ^ = $esp $T0 8 + = 
STACK WIN 4 14170 7 3 0 0 0 0 0 1 $T0 $ebp = $eip $T0 4 + ^ = $ebp $T0 ^ = $esp $T0 8 + = 
STACK WIN 4 14180 7 3 0 0 0 0 0 1 $T0 $ebp = $eip $T0 4 + ^ = $ebp $T0 ^ = $esp $T0 8 + = 
STACK WIN 4 14190 7 3 0 0 0 0 0 1 $T0 $ebp = $eip $T0 4 + ^ = $ebp $T0 ^ = $esp $T0 8 + = 
STACK WIN 4 141a0 7 3 0 4 0 0 0 1 $T0 $ebp = $eip $T0 4 + ^ = $ebp $T0 ^ = $esp $T0 8 + = 
STACK WIN 4 141b0 7 3 0 4 0 0 0 1 $T0 $ebp = $eip $T0 4 + ^ = $ebp $T0 ^ = $esp $T0 8 + = 
STACK WIN 4 141c0 7 3 0 0 0 0 0 1 $T0 $ebp = $eip $T0 4 + ^ = $ebp $T0 ^ = $esp $T0 8 + = 
STACK WIN 4 17ba0 f 3 0 0 0 0 0 1 $T0 $ebp = $eip $T0 4 + ^ = $ebp $T0 ^ = $esp $T0 8 + = 
STACK WIN 0 125b6 27 0 0 0 0 0 0 0 0
STACK WIN 0 12f2c 1b 0 0 0 0 0 0 0 0
